(dp0
I892
(dp1
S'Fare'
p2
F7.8292
sS'Ticket'
p3
I330911
sS'Title'
p4
I0
sS'Age'
p5
F34.5
sS'Embarked'
p6
I1
sS'Parch'
p7
I0
sS'Pclass'
p8
I3
sS'Sex'
p9
I0
sS'Family_size'
p10
I0
sS'SibSp'
p11
I0
sS'Ticket_prefix'
p12
S'NaN'
p13
sS'Cabin'
p14
g13
ssI893
(dp15
g2
F7.0
sg3
I363272
sg4
I1
sg5
F47.0
sg6
I2
sg7
I0
sg8
I3
sg9
I1
sg10
I1
sg11
I1
sg12
g13
sg14
g13
ssI894
(dp16
g2
F9.6875
sg3
I240276
sg4
I0
sg5
F62.0
sg6
I1
sg7
I0
sg8
I2
sg9
I0
sg10
I0
sg11
I0
sg12
g13
sg14
g13
ssI895
(dp17
g2
F8.6625
sg3
I315154
sg4
I0
sg5
F27.0
sg6
I2
sg7
I0
sg8
I3
sg9
I0
sg10
I0
sg11
I0
sg12
g13
sg14
g13
ssI896
(dp18
g2
F12.2875
sg3
I3101298
sg4
I1
sg5
F22.0
sg6
I2
sg7
I1
sg8
I3
sg9
I1
sg10
I2
sg11
I1
sg12
g13
sg14
g13
ssI897
(dp19
g2
F9.225
sg3
I7538
sg4
I0
sg5
F14.0
sg6
I2
sg7
I0
sg8
I3
sg9
I0
sg10
I0
sg11
I0
sg12
g13
sg14
g13
ssI898
(dp20
g2
F7.6292
sg3
I330972
sg4
I3
sg5
F30.0
sg6
I1
sg7
I0
sg8
I3
sg9
I1
sg10
I0
sg11
I0
sg12
g13
sg14
g13
ssI899
(dp21
g2
F29.0
sg3
I248738
sg4
I0
sg5
F26.0
sg6
I2
sg7
I1
sg8
I2
sg9
I0
sg10
I2
sg11
I1
sg12
g13
sg14
g13
ssI900
(dp22
g2
F7.2292
sg3
I2657
sg4
I1
sg5
F18.0
sg6
I0
sg7
I0
sg8
I3
sg9
I1
sg10
I0
sg11
I0
sg12
g13
sg14
g13
ssI901
(dp23
g2
F24.15
sg3
I48871
sg4
I0
sg5
F21.0
sg6
I2
sg7
I0
sg8
I3
sg9
I0
sg10
I2
sg11
I2
sg12
I6
sg14
g13
ssI902
(dp24
g2
F7.8958
sg3
I349220
sg4
I0
sg5
g13
sg6
I2
sg7
I0
sg8
I3
sg9
I0
sg10
I0
sg11
I0
sg12
g13
sg14
g13
ssI903
(dp25
g2
F26.0
sg3
I694
sg4
I0
sg5
F46.0
sg6
I2
sg7
I0
sg8
I1
sg9
I0
sg10
I0
sg11
I0
sg12
g13
sg14
g13
ssI904
(dp26
g2
F82.2667
sg3
I21228
sg4
I1
sg5
F23.0
sg6
I2
sg7
I0
sg8
I1
sg9
I1
sg10
I1
sg11
I1
sg12
g13
sg14
F1.45
ssI905
(dp27
g2
F26.0
sg3
I24065
sg4
I0
sg5
F63.0
sg6
I2
sg7
I0
sg8
I2
sg9
I0
sg10
I1
sg11
I1
sg12
g13
sg14
g13
ssI906
(dp28
g2
F61.175
sg3
I5734
sg4
I1
sg5
F47.0
sg6
I2
sg7
I0
sg8
I1
sg9
I1
sg10
I1
sg11
I1
sg12
I6
sg14
F4.31
ssI907
(dp29
g2
F27.7208
sg3
I2167
sg4
I4
sg5
F24.0
sg6
I0
sg7
I0
sg8
I2
sg9
I1
sg10
I1
sg11
I1
sg12
I6
sg14
g13
ssI908
(dp30
g2
F12.35
sg3
I233734
sg4
I0
sg5
F35.0
sg6
I1
sg7
I0
sg8
I2
sg9
I0
sg10
I0
sg11
I0
sg12
g13
sg14
g13
ssI909
(dp31
g2
F7.225
sg3
I2692
sg4
I0
sg5
F21.0
sg6
I0
sg7
I0
sg8
I3
sg9
I0
sg10
I0
sg11
I0
sg12
g13
sg14
g13
ssI910
(dp32
g2
F7.925
sg3
I3101270
sg4
I3
sg5
F27.0
sg6
I2
sg7
I0
sg8
I3
sg9
I1
sg10
I1
sg11
I1
sg12
I6
sg14
g13
ssI911
(dp33
g2
F7.225
sg3
I2696
sg4
I4
sg5
F45.0
sg6
I0
sg7
I0
sg8
I3
sg9
I1
sg10
I0
sg11
I0
sg12
g13
sg14
g13
ssI912
(dp34
g2
F59.4
sg3
I17603
sg4
I0
sg5
F55.0
sg6
I0
sg7
I0
sg8
I1
sg9
I0
sg10
I1
sg11
I1
sg12
I0
sg14
g13
ssI913
(dp35
g2
F3.1708
sg3
I17368
sg4
I2
sg5
F9.0
sg6
I2
sg7
I1
sg8
I3
sg9
I0
sg10
I1
sg11
I0
sg12
I6
sg14
g13
ssI914
(dp36
g2
F31.6833
sg3
I17598
sg4
I1
sg5
g13
sg6
I2
sg7
I0
sg8
I1
sg9
I1
sg10
I0
sg11
I0
sg12
I0
sg14
g13
ssI915
(dp37
g2
F61.3792
sg3
I17597
sg4
I0
sg5
F21.0
sg6
I0
sg7
I1
sg8
I1
sg9
I0
sg10
I1
sg11
I0
sg12
I0
sg14
g13
ssI916
(dp38
g2
F262.375
sg3
I17608
sg4
I1
sg5
F48.0
sg6
I0
sg7
I3
sg8
I1
sg9
I1
sg10
I4
sg11
I1
sg12
I0
sg14
F1.6125
ssI917
(dp39
g2
F14.5
sg3
I3337
sg4
I0
sg5
F50.0
sg6
I2
sg7
I0
sg8
I3
sg9
I0
sg10
I1
sg11
I1
sg12
I2
sg14
g13
ssI918
(dp40
g2
F61.9792
sg3
I113509
sg4
I3
sg5
F22.0
sg6
I0
sg7
I1
sg8
I1
sg9
I1
sg10
I1
sg11
I0
sg12
g13
sg14
F1.36
ssI919
(dp41
g2
F7.225
sg3
I2698
sg4
I0
sg5
F22.5
sg6
I0
sg7
I0
sg8
I3
sg9
I0
sg10
I0
sg11
I0
sg12
g13
sg14
g13
ssI920
(dp42
g2
F30.5
sg3
I113054
sg4
I0
sg5
F41.0
sg6
I2
sg7
I0
sg8
I1
sg9
I0
sg10
I0
sg11
I0
sg12
g13
sg14
F0.21
ssI921
(dp43
g2
F21.6792
sg3
I2662
sg4
I0
sg5
g13
sg6
I0
sg7
I0
sg8
I3
sg9
I0
sg10
I2
sg11
I2
sg12
g13
sg14
g13
ssI922
(dp44
g2
F26.0
sg3
I3085
sg4
I0
sg5
F50.0
sg6
I2
sg7
I0
sg8
I2
sg9
I0
sg10
I1
sg11
I1
sg12
I6
sg14
g13
ssI923
(dp45
g2
F31.5
sg3
I31029
sg4
I0
sg5
F24.0
sg6
I2
sg7
I0
sg8
I2
sg9
I0
sg10
I2
sg11
I2
sg12
I1
sg14
g13
ssI924
(dp46
g2
F20.575
sg3
I2315
sg4
I1
sg5
F33.0
sg6
I2
sg7
I2
sg8
I3
sg9
I1
sg10
I3
sg11
I1
sg12
I1
sg14
g13
ssI925
(dp47
g2
F23.45
sg3
I6607
sg4
I1
sg5
g13
sg6
I2
sg7
I2
sg8
I3
sg9
I1
sg10
I3
sg11
I1
sg12
I5
sg14
g13
ssI926
(dp48
g2
F57.75
sg3
I13236
sg4
I0
sg5
F30.0
sg6
I0
sg7
I0
sg8
I1
sg9
I0
sg10
I1
sg11
I1
sg12
g13
sg14
F2.78
ssI927
(dp49
g2
F7.2292
sg3
I2682
sg4
I0
sg5
F18.5
sg6
I0
sg7
I0
sg8
I3
sg9
I0
sg10
I0
sg11
I0
sg12
g13
sg14
g13
ssI928
(dp50
g2
F8.05
sg3
I342712
sg4
I3
sg5
g13
sg6
I2
sg7
I0
sg8
I3
sg9
I1
sg10
I0
sg11
I0
sg12
g13
sg14
g13
ssI929
(dp51
g2
F8.6625
sg3
I315087
sg4
I3
sg5
F21.0
sg6
I2
sg7
I0
sg8
I3
sg9
I1
sg10
I0
sg11
I0
sg12
g13
sg14
g13
ssI930
(dp52
g2
F9.5
sg3
I345768
sg4
I0
sg5
F25.0
sg6
I2
sg7
I0
sg8
I3
sg9
I0
sg10
I0
sg11
I0
sg12
g13
sg14
g13
ssI931
(dp53
g2
F56.4958
sg3
I1601
sg4
I0
sg5
g13
sg6
I2
sg7
I0
sg8
I3
sg9
I0
sg10
I0
sg11
I0
sg12
g13
sg14
g13
ssI932
(dp54
g2
F13.4167
sg3
I349256
sg4
I0
sg5
F39.0
sg6
I0
sg7
I1
sg8
I3
sg9
I0
sg10
I1
sg11
I0
sg12
g13
sg14
g13
ssI933
(dp55
g2
F26.55
sg3
I113778
sg4
I0
sg5
g13
sg6
I2
sg7
I0
sg8
I1
sg9
I0
sg10
I0
sg11
I0
sg12
g13
sg14
F3.34
ssI934
(dp56
g2
F7.85
sg3
I3101263
sg4
I0
sg5
F41.0
sg6
I2
sg7
I0
sg8
I3
sg9
I0
sg10
I0
sg11
I0
sg12
I3
sg14
g13
ssI935
(dp57
g2
F13.0
sg3
I237249
sg4
I1
sg5
F30.0
sg6
I2
sg7
I0
sg8
I2
sg9
I1
sg10
I0
sg11
I0
sg12
g13
sg14
g13
ssI936
(dp58
g2
F52.5542
sg3
I11753
sg4
I1
sg5
F45.0
sg6
I2
sg7
I0
sg8
I1
sg9
I1
sg10
I1
sg11
I1
sg12
g13
sg14
F3.19
ssI937
(dp59
g2
F7.925
sg3
I3101291
sg4
I0
sg5
F25.0
sg6
I2
sg7
I0
sg8
I3
sg9
I0
sg10
I0
sg11
I0
sg12
I4
sg14
g13
ssI938
(dp60
g2
F29.7
sg3
I17594
sg4
I0
sg5
F45.0
sg6
I0
sg7
I0
sg8
I1
sg9
I0
sg10
I0
sg11
I0
sg12
I0
sg14
F0.9
ssI939
(dp61
g2
F7.75
sg3
I370374
sg4
I0
sg5
g13
sg6
I1
sg7
I0
sg8
I3
sg9
I0
sg10
I0
sg11
I0
sg12
g13
sg14
g13
ssI940
(dp62
g2
F76.2917
sg3
I11813
sg4
I1
sg5
F60.0
sg6
I0
sg7
I0
sg8
I1
sg9
I1
sg10
I0
sg11
I0
sg12
g13
sg14
F3.15
ssI941
(dp63
g2
F15.9
sg3
I37671
sg4
I1
sg5
F36.0
sg6
I2
sg7
I2
sg8
I3
sg9
I1
sg10
I2
sg11
I0
sg12
I1
sg14
g13
ssI942
(dp64
g2
F60.0
sg3
I13695
sg4
I0
sg5
F24.0
sg6
I2
sg7
I0
sg8
I1
sg9
I0
sg10
I1
sg11
I1
sg12
g13
sg14
F2.31
ssI943
(dp65
g2
F15.0333
sg3
I2168
sg4
I0
sg5
F27.0
sg6
I0
sg7
I0
sg8
I2
sg9
I0
sg10
I0
sg11
I0
sg12
I6
sg14
g13
ssI944
(dp66
g2
F23.0
sg3
I29105
sg4
I3
sg5
F20.0
sg6
I2
sg7
I1
sg8
I2
sg9
I1
sg10
I3
sg11
I2
sg12
g13
sg14
g13
ssI945
(dp67
g2
F263.0
sg3
I19950
sg4
I3
sg5
F28.0
sg6
I2
sg7
I2
sg8
I1
sg9
I1
sg10
I5
sg11
I3
sg12
g13
sg14
F2.25
ssI946
(dp68
g2
F15.5792
sg3
I2861
sg4
I0
sg5
g13
sg6
I0
sg7
I0
sg8
I2
sg9
I0
sg10
I0
sg11
I0
sg12
I6
sg14
g13
ssI947
(dp69
g2
F29.125
sg3
I382652
sg4
I2
sg5
F10.0
sg6
I1
sg7
I1
sg8
I3
sg9
I0
sg10
I5
sg11
I4
sg12
g13
sg14
g13
ssI948
(dp70
g2
F7.8958
sg3
I349230
sg4
I0
sg5
F35.0
sg6
I2
sg7
I0
sg8
I3
sg9
I0
sg10
I0
sg11
I0
sg12
g13
sg14
g13
ssI949
(dp71
g2
F7.65
sg3
I348122
sg4
I0
sg5
F25.0
sg6
I2
sg7
I0
sg8
I3
sg9
I0
sg10
I0
sg11
I0
sg12
g13
sg14
F5.8149999999999995
ssI950
(dp72
g2
F16.1
sg3
I386525
sg4
I0
sg5
g13
sg6
I2
sg7
I0
sg8
I3
sg9
I0
sg10
I1
sg11
I1
sg12
g13
sg14
g13
ssI951
(dp73
g2
F262.375
sg3
I17608
sg4
I3
sg5
F36.0
sg6
I0
sg7
I0
sg8
I1
sg9
I1
sg10
I0
sg11
I0
sg12
I0
sg14
F1.61
ssI952
(dp74
g2
F7.8958
sg3
I349232
sg4
I0
sg5
F17.0
sg6
I2
sg7
I0
sg8
I3
sg9
I0
sg10
I0
sg11
I0
sg12
g13
sg14
g13
ssI953
(dp75
g2
F13.5
sg3
I237216
sg4
I0
sg5
F32.0
sg6
I2
sg7
I0
sg8
I2
sg9
I0
sg10
I0
sg11
I0
sg12
g13
sg14
g13
ssI954
(dp76
g2
F7.75
sg3
I347090
sg4
I0
sg5
F18.0
sg6
I2
sg7
I0
sg8
I3
sg9
I0
sg10
I0
sg11
I0
sg12
g13
sg14
g13
ssI955
(dp77
g2
F7.725
sg3
I334914
sg4
I3
sg5
F22.0
sg6
I1
sg7
I0
sg8
I3
sg9
I1
sg10
I0
sg11
I0
sg12
g13
sg14
g13
ssI956
(dp78
g2
F262.375
sg3
I17608
sg4
I2
sg5
F13.0
sg6
I0
sg7
I2
sg8
I1
sg9
I0
sg10
I4
sg11
I2
sg12
I0
sg14
F1.6125
ssI957
(dp79
g2
F21.0
sg3
I13534
sg4
I1
sg5
g13
sg6
I2
sg7
I0
sg8
I2
sg9
I1
sg10
I0
sg11
I0
sg12
I6
sg14
g13
ssI958
(dp80
g2
F7.8792
sg3
I330963
sg4
I3
sg5
F18.0
sg6
I1
sg7
I0
sg8
I3
sg9
I1
sg10
I0
sg11
I0
sg12
g13
sg14
g13
ssI959
(dp81
g2
F42.4
sg3
I113796
sg4
I0
sg5
F47.0
sg6
I2
sg7
I0
sg8
I1
sg9
I0
sg10
I0
sg11
I0
sg12
g13
sg14
g13
ssI960
(dp82
g2
F28.5375
sg3
I2543
sg4
I0
sg5
F31.0
sg6
I0
sg7
I0
sg8
I1
sg9
I0
sg10
I0
sg11
I0
sg12
g13
sg14
F2.53
ssI961
(dp83
g2
F263.0
sg3
I19950
sg4
I1
sg5
F60.0
sg6
I2
sg7
I4
sg8
I1
sg9
I1
sg10
I5
sg11
I1
sg12
g13
sg14
F2.25
ssI962
(dp84
g2
F7.75
sg3
I382653
sg4
I3
sg5
F24.0
sg6
I1
sg7
I0
sg8
I3
sg9
I1
sg10
I0
sg11
I0
sg12
g13
sg14
g13
ssI963
(dp85
g2
F7.8958
sg3
I349211
sg4
I0
sg5
F21.0
sg6
I2
sg7
I0
sg8
I3
sg9
I0
sg10
I0
sg11
I0
sg12
g13
sg14
g13
ssI964
(dp86
g2
F7.925
sg3
I3101297
sg4
I3
sg5
F29.0
sg6
I2
sg7
I0
sg8
I3
sg9
I1
sg10
I0
sg11
I0
sg12
g13
sg14
g13
ssI965
(dp87
g2
F27.7208
sg3
I17562
sg4
I4
sg5
F28.5
sg6
I0
sg7
I0
sg8
I1
sg9
I0
sg10
I0
sg11
I0
sg12
I0
sg14
F3.43
ssI966
(dp88
g2
F211.5
sg3
I113503
sg4
I3
sg5
F35.0
sg6
I0
sg7
I0
sg8
I1
sg9
I1
sg10
I0
sg11
I0
sg12
g13
sg14
F2.13
ssI967
(dp89
g2
F211.5
sg3
I113503
sg4
I0
sg5
F32.5
sg6
I0
sg7
I0
sg8
I1
sg9
I0
sg10
I0
sg11
I0
sg12
g13
sg14
F2.132
ssI968
(dp90
g2
F8.05
sg3
I359306
sg4
I0
sg5
g13
sg6
I2
sg7
I0
sg8
I3
sg9
I0
sg10
I0
sg11
I0
sg12
g13
sg14
g13
ssI969
(dp91
g2
F25.7
sg3
I11770
sg4
I1
sg5
F55.0
sg6
I2
sg7
I0
sg8
I1
sg9
I1
sg10
I2
sg11
I2
sg12
g13
sg14
F2.101
ssI970
(dp92
g2
F13.0
sg3
I248744
sg4
I0
sg5
F30.0
sg6
I2
sg7
I0
sg8
I2
sg9
I0
sg10
I0
sg11
I0
sg12
g13
sg14
g13
ssI971
(dp93
g2
F7.75
sg3
I368702
sg4
I3
sg5
F24.0
sg6
I1
sg7
I0
sg8
I3
sg9
I1
sg10
I0
sg11
I0
sg12
g13
sg14
g13
ssI972
(dp94
g2
F15.2458
sg3
I2678
sg4
I2
sg5
F6.0
sg6
I0
sg7
I1
sg8
I3
sg9
I0
sg10
I2
sg11
I1
sg12
g13
sg14
g13
ssI973
(dp95
g2
F221.7792
sg3
I17483
sg4
I0
sg5
F67.0
sg6
I2
sg7
I0
sg8
I1
sg9
I0
sg10
I1
sg11
I1
sg12
I0
sg14
F2.5599999999999996
ssI974
(dp96
g2
F26.0
sg3
I19924
sg4
I0
sg5
F49.0
sg6
I2
sg7
I0
sg8
I1
sg9
I0
sg10
I0
sg11
I0
sg12
g13
sg14
g13
ssI975
(dp97
g2
F7.8958
sg3
I349238
sg4
I0
sg5
g13
sg6
I2
sg7
I0
sg8
I3
sg9
I0
sg10
I0
sg11
I0
sg12
g13
sg14
g13
ssI976
(dp98
g2
F10.7083
sg3
I240261
sg4
I0
sg5
g13
sg6
I1
sg7
I0
sg8
I2
sg9
I0
sg10
I0
sg11
I0
sg12
g13
sg14
g13
ssI977
(dp99
g2
F14.4542
sg3
I2660
sg4
I0
sg5
g13
sg6
I0
sg7
I0
sg8
I3
sg9
I0
sg10
I1
sg11
I1
sg12
g13
sg14
g13
ssI978
(dp100
g2
F7.8792
sg3
I330844
sg4
I3
sg5
F27.0
sg6
I1
sg7
I0
sg8
I3
sg9
I1
sg10
I0
sg11
I0
sg12
g13
sg14
g13
ssI979
(dp101
g2
F8.05
sg3
I31416
sg4
I3
sg5
F18.0
sg6
I2
sg7
I0
sg8
I3
sg9
I1
sg10
I0
sg11
I0
sg12
I6
sg14
g13
ssI980
(dp102
g2
F7.75
sg3
I364856
sg4
I4
sg5
g13
sg6
I1
sg7
I0
sg8
I3
sg9
I1
sg10
I0
sg11
I0
sg12
g13
sg14
g13
ssI981
(dp103
g2
F23.0
sg3
I29103
sg4
I2
sg5
F2.0
sg6
I2
sg7
I1
sg8
I2
sg9
I0
sg10
I2
sg11
I1
sg12
g13
sg14
g13
ssI982
(dp104
g2
F13.9
sg3
I347072
sg4
I1
sg5
F22.0
sg6
I2
sg7
I0
sg8
I3
sg9
I1
sg10
I1
sg11
I1
sg12
g13
sg14
g13
ssI983
(dp105
g2
F7.775
sg3
I345498
sg4
I0
sg5
g13
sg6
I2
sg7
I0
sg8
I3
sg9
I0
sg10
I0
sg11
I0
sg12
g13
sg14
g13
ssI984
(dp106
g2
F52.0
sg3
I12750
sg4
I1
sg5
F27.0
sg6
I2
sg7
I2
sg8
I1
sg9
I1
sg10
I3
sg11
I1
sg12
I6
sg14
F1.71
ssI985
(dp107
g2
F8.05
sg3
I376563
sg4
I0
sg5
g13
sg6
I2
sg7
I0
sg8
I3
sg9
I0
sg10
I0
sg11
I0
sg12
g13
sg14
g13
ssI986
(dp108
g2
F26.0
sg3
I13905
sg4
I0
sg5
F25.0
sg6
I0
sg7
I0
sg8
I1
sg9
I0
sg10
I0
sg11
I0
sg12
g13
sg14
g13
ssI987
(dp109
g2
F7.7958
sg3
I350033
sg4
I0
sg5
F25.0
sg6
I2
sg7
I0
sg8
I3
sg9
I0
sg10
I0
sg11
I0
sg12
g13
sg14
g13
ssI988
(dp110
g2
F78.85
sg3
I19877
sg4
I1
sg5
F76.0
sg6
I2
sg7
I0
sg8
I1
sg9
I1
sg10
I1
sg11
I1
sg12
g13
sg14
F2.46
ssI989
(dp111
g2
F7.925
sg3
I3101268
sg4
I0
sg5
F29.0
sg6
I2
sg7
I0
sg8
I3
sg9
I0
sg10
I0
sg11
I0
sg12
I4
sg14
g13
ssI990
(dp112
g2
F7.8542
sg3
I347471
sg4
I3
sg5
F20.0
sg6
I2
sg7
I0
sg8
I3
sg9
I1
sg10
I0
sg11
I0
sg12
g13
sg14
g13
ssI991
(dp113
g2
F8.05
sg3
I3338
sg4
I0
sg5
F33.0
sg6
I2
sg7
I0
sg8
I3
sg9
I0
sg10
I0
sg11
I0
sg12
I2
sg14
g13
ssI992
(dp114
g2
F55.4417
sg3
I11778
sg4
I1
sg5
F43.0
sg6
I0
sg7
I0
sg8
I1
sg9
I1
sg10
I1
sg11
I1
sg12
g13
sg14
F2.116
ssI993
(dp115
g2
F26.0
sg3
I228414
sg4
I0
sg5
F27.0
sg6
I2
sg7
I0
sg8
I2
sg9
I0
sg10
I1
sg11
I1
sg12
g13
sg14
g13
ssI994
(dp116
g2
F7.75
sg3
I365235
sg4
I0
sg5
g13
sg6
I1
sg7
I0
sg8
I3
sg9
I0
sg10
I0
sg11
I0
sg12
g13
sg14
g13
ssI995
(dp117
g2
F7.775
sg3
I347070
sg4
I4
sg5
F26.0
sg6
I2
sg7
I0
sg8
I3
sg9
I0
sg10
I0
sg11
I0
sg12
g13
sg14
g13
ssI996
(dp118
g2
F8.5167
sg3
I2625
sg4
I1
sg5
F16.0
sg6
I0
sg7
I1
sg8
I3
sg9
I1
sg10
I2
sg11
I1
sg12
g13
sg14
g13
ssI997
(dp119
g2
F22.525
sg3
I4001
sg4
I0
sg5
F28.0
sg6
I2
sg7
I0
sg8
I3
sg9
I0
sg10
I0
sg11
I0
sg12
I6
sg14
g13
ssI998
(dp120
g2
F7.8208
sg3
I330920
sg4
I0
sg5
F21.0
sg6
I1
sg7
I0
sg8
I3
sg9
I0
sg10
I0
sg11
I0
sg12
g13
sg14
g13
ssI999
(dp121
g2
F7.75
sg3
I383162
sg4
I0
sg5
g13
sg6
I1
sg7
I0
sg8
I3
sg9
I0
sg10
I0
sg11
I0
sg12
g13
sg14
g13
ssI1000
(dp122
g2
F8.7125
sg3
I3410
sg4
I0
sg5
g13
sg6
I2
sg7
I0
sg8
I3
sg9
I0
sg10
I0
sg11
I0
sg12
g13
sg14
g13
ssI1001
(dp123
g2
F13.0
sg3
I248734
sg4
I0
sg5
F18.5
sg6
I2
sg7
I0
sg8
I2
sg9
I0
sg10
I0
sg11
I0
sg12
g13
sg14
F5.0
ssI1002
(dp124
g2
F15.0458
sg3
I237734
sg4
I0
sg5
F41.0
sg6
I0
sg7
I0
sg8
I2
sg9
I0
sg10
I0
sg11
I0
sg12
g13
sg14
g13
ssI1003
(dp125
g2
F7.7792
sg3
I330968
sg4
I3
sg5
g13
sg6
I1
sg7
I0
sg8
I3
sg9
I1
sg10
I0
sg11
I0
sg12
g13
sg14
g13
ssI1004
(dp126
g2
F31.6792
sg3
I17531
sg4
I3
sg5
F36.0
sg6
I0
sg7
I0
sg8
I1
sg9
I1
sg10
I0
sg11
I0
sg12
I0
sg14
F0.29
ssI1005
(dp127
g2
F7.2833
sg3
I329944
sg4
I3
sg5
F18.5
sg6
I1
sg7
I0
sg8
I3
sg9
I1
sg10
I0
sg11
I0
sg12
g13
sg14
g13
ssI1006
(dp128
g2
F221.7792
sg3
I17483
sg4
I1
sg5
F63.0
sg6
I2
sg7
I0
sg8
I1
sg9
I1
sg10
I1
sg11
I1
sg12
I0
sg14
F2.5599999999999996
ssI1007
(dp129
g2
F14.4542
sg3
I2680
sg4
I0
sg5
F18.0
sg6
I0
sg7
I0
sg8
I3
sg9
I0
sg10
I1
sg11
I1
sg12
g13
sg14
g13
ssI1008
(dp130
g2
F6.4375
sg3
I2681
sg4
I0
sg5
g13
sg6
I0
sg7
I0
sg8
I3
sg9
I0
sg10
I0
sg11
I0
sg12
g13
sg14
g13
ssI1009
(dp131
g2
F16.7
sg3
I9549
sg4
I3
sg5
F1.0
sg6
I2
sg7
I1
sg8
I3
sg9
I1
sg10
I2
sg11
I1
sg12
I6
sg14
F6.6
ssI1010
(dp132
g2
F75.2417
sg3
I13050
sg4
I0
sg5
F36.0
sg6
I0
sg7
I0
sg8
I1
sg9
I0
sg10
I0
sg11
I0
sg12
g13
sg14
F2.6
ssI1011
(dp133
g2
F26.0
sg3
I29037
sg4
I1
sg5
F29.0
sg6
I2
sg7
I0
sg8
I2
sg9
I1
sg10
I1
sg11
I1
sg12
I6
sg14
g13
ssI1012
(dp134
g2
F15.75
sg3
I33595
sg4
I3
sg5
F12.0
sg6
I2
sg7
I0
sg8
I2
sg9
I1
sg10
I0
sg11
I0
sg12
I1
sg14
g13
ssI1013
(dp135
g2
F7.75
sg3
I367227
sg4
I0
sg5
g13
sg6
I1
sg7
I0
sg8
I3
sg9
I0
sg10
I1
sg11
I1
sg12
g13
sg14
g13
ssI1014
(dp136
g2
F57.75
sg3
I13236
sg4
I1
sg5
F35.0
sg6
I0
sg7
I0
sg8
I1
sg9
I1
sg10
I1
sg11
I1
sg12
g13
sg14
F2.28
ssI1015
(dp137
g2
F7.25
sg3
I392095
sg4
I0
sg5
F28.0
sg6
I2
sg7
I0
sg8
I3
sg9
I0
sg10
I0
sg11
I0
sg12
g13
sg14
g13
ssI1016
(dp138
g2
F7.75
sg3
I368783
sg4
I0
sg5
g13
sg6
I1
sg7
I0
sg8
I3
sg9
I0
sg10
I0
sg11
I0
sg12
g13
sg14
g13
ssI1017
(dp139
g2
F16.1
sg3
I371362
sg4
I3
sg5
F17.0
sg6
I2
sg7
I1
sg8
I3
sg9
I1
sg10
I1
sg11
I0
sg12
g13
sg14
g13
ssI1018
(dp140
g2
F7.7958
sg3
I350045
sg4
I0
sg5
F22.0
sg6
I2
sg7
I0
sg8
I3
sg9
I0
sg10
I0
sg11
I0
sg12
g13
sg14
g13
ssI1019
(dp141
g2
F23.25
sg3
I367226
sg4
I3
sg5
g13
sg6
I1
sg7
I0
sg8
I3
sg9
I1
sg10
I2
sg11
I2
sg12
g13
sg14
g13
ssI1020
(dp142
g2
F13.0
sg3
I211535
sg4
I0
sg5
F42.0
sg6
I2
sg7
I0
sg8
I2
sg9
I0
sg10
I0
sg11
I0
sg12
g13
sg14
g13
ssI1021
(dp143
g2
F8.05
sg3
I342441
sg4
I0
sg5
F24.0
sg6
I2
sg7
I0
sg8
I3
sg9
I0
sg10
I0
sg11
I0
sg12
g13
sg14
g13
ssI1022
(dp144
g2
F8.05
sg3
I369943
sg4
I0
sg5
F32.0
sg6
I2
sg7
I0
sg8
I3
sg9
I0
sg10
I0
sg11
I0
sg12
I6
sg14
g13
ssI1023
(dp145
g2
F28.5
sg3
I113780
sg4
I4
sg5
F53.0
sg6
I0
sg7
I0
sg8
I1
sg9
I0
sg10
I0
sg11
I0
sg12
g13
sg14
F2.51
ssI1024
(dp146
g2
F25.4667
sg3
I4133
sg4
I1
sg5
g13
sg6
I2
sg7
I4
sg8
I3
sg9
I1
sg10
I4
sg11
I0
sg12
g13
sg14
g13
ssI1025
(dp147
g2
F6.4375
sg3
I2621
sg4
I0
sg5
g13
sg6
I0
sg7
I0
sg8
I3
sg9
I0
sg10
I1
sg11
I1
sg12
g13
sg14
g13
ssI1026
(dp148
g2
F7.8958
sg3
I349226
sg4
I0
sg5
F43.0
sg6
I2
sg7
I0
sg8
I3
sg9
I0
sg10
I0
sg11
I0
sg12
g13
sg14
g13
ssI1027
(dp149
g2
F7.8542
sg3
I350409
sg4
I0
sg5
F24.0
sg6
I2
sg7
I0
sg8
I3
sg9
I0
sg10
I0
sg11
I0
sg12
g13
sg14
g13
ssI1028
(dp150
g2
F7.225
sg3
I2656
sg4
I0
sg5
F26.5
sg6
I0
sg7
I0
sg8
I3
sg9
I0
sg10
I0
sg11
I0
sg12
g13
sg14
g13
ssI1029
(dp151
g2
F13.0
sg3
I248659
sg4
I0
sg5
F26.0
sg6
I2
sg7
I0
sg8
I2
sg9
I0
sg10
I0
sg11
I0
sg12
g13
sg14
g13
ssI1030
(dp152
g2
F8.05
sg3
I392083
sg4
I3
sg5
F23.0
sg6
I2
sg7
I0
sg8
I3
sg9
I1
sg10
I0
sg11
I0
sg12
I3
sg14
g13
ssI1031
(dp153
g2
F46.9
sg3
I2144
sg4
I0
sg5
F40.0
sg6
I2
sg7
I6
sg8
I3
sg9
I0
sg10
I7
sg11
I1
sg12
I1
sg14
g13
ssI1032
(dp154
g2
F46.9
sg3
I2144
sg4
I3
sg5
F10.0
sg6
I2
sg7
I2
sg8
I3
sg9
I1
sg10
I7
sg11
I5
sg12
I1
sg14
g13
ssI1033
(dp155
g2
F151.55
sg3
I113781
sg4
I3
sg5
F33.0
sg6
I2
sg7
I0
sg8
I1
sg9
I1
sg10
I0
sg11
I0
sg12
g13
sg14
g13
ssI1034
(dp156
g2
F262.375
sg3
I17608
sg4
I0
sg5
F61.0
sg6
I0
sg7
I3
sg8
I1
sg9
I0
sg10
I4
sg11
I1
sg12
I0
sg14
F1.6125
ssI1035
(dp157
g2
F26.0
sg3
I244358
sg4
I0
sg5
F28.0
sg6
I2
sg7
I0
sg8
I2
sg9
I0
sg10
I0
sg11
I0
sg12
g13
sg14
g13
ssI1036
(dp158
g2
F26.55
sg3
I17475
sg4
I0
sg5
F42.0
sg6
I2
sg7
I0
sg8
I1
sg9
I0
sg10
I0
sg11
I0
sg12
g13
sg14
g13
ssI1037
(dp159
g2
F18.0
sg3
I345763
sg4
I4
sg5
F31.0
sg6
I2
sg7
I0
sg8
I3
sg9
I0
sg10
I3
sg11
I3
sg12
g13
sg14
g13
ssI1038
(dp160
g2
F51.8625
sg3
I17463
sg4
I0
sg5
g13
sg6
I2
sg7
I0
sg8
I1
sg9
I0
sg10
I0
sg11
I0
sg12
g13
sg14
F4.46
ssI1039
(dp161
g2
F8.05
sg3
I23568
sg4
I0
sg5
F22.0
sg6
I2
sg7
I0
sg8
I3
sg9
I0
sg10
I0
sg11
I0
sg12
I6
sg14
g13
ssI1040
(dp162
g2
F26.55
sg3
I113791
sg4
I0
sg5
g13
sg6
I2
sg7
I0
sg8
I1
sg9
I0
sg10
I0
sg11
I0
sg12
g13
sg14
g13
ssI1041
(dp163
g2
F26.0
sg3
I250651
sg4
I4
sg5
F30.0
sg6
I2
sg7
I1
sg8
I2
sg9
I0
sg10
I2
sg11
I1
sg12
g13
sg14
g13
ssI1042
(dp164
g2
F83.1583
sg3
I11767
sg4
I1
sg5
F23.0
sg6
I0
sg7
I1
sg8
I1
sg9
I1
sg10
I1
sg11
I0
sg12
g13
sg14
F2.54
ssI1043
(dp165
g2
F7.8958
sg3
I349255
sg4
I0
sg5
g13
sg6
I0
sg7
I0
sg8
I3
sg9
I0
sg10
I0
sg11
I0
sg12
g13
sg14
g13
ssI1044
(dp166
g2
g13
sg3
I3701
sg4
I0
sg5
F60.5
sg6
I2
sg7
I0
sg8
I3
sg9
I0
sg10
I0
sg11
I0
sg12
g13
sg14
g13
ssI1045
(dp167
g2
F12.1833
sg3
I350405
sg4
I1
sg5
F36.0
sg6
I2
sg7
I2
sg8
I3
sg9
I1
sg10
I2
sg11
I0
sg12
g13
sg14
g13
ssI1046
(dp168
g2
F31.3875
sg3
I347077
sg4
I2
sg5
F13.0
sg6
I2
sg7
I2
sg8
I3
sg9
I0
sg10
I6
sg11
I4
sg12
g13
sg14
g13
ssI1047
(dp169
g2
F7.55
sg3
I752
sg4
I0
sg5
F24.0
sg6
I2
sg7
I0
sg8
I3
sg9
I0
sg10
I0
sg11
I0
sg12
I6
sg14
g13
ssI1048
(dp170
g2
F221.7792
sg3
I17483
sg4
I3
sg5
F29.0
sg6
I2
sg7
I0
sg8
I1
sg9
I1
sg10
I0
sg11
I0
sg12
I0
sg14
F2.97
ssI1049
(dp171
g2
F7.8542
sg3
I347469
sg4
I3
sg5
F23.0
sg6
I2
sg7
I0
sg8
I3
sg9
I1
sg10
I0
sg11
I0
sg12
g13
sg14
g13
ssI1050
(dp172
g2
F26.55
sg3
I110489
sg4
I0
sg5
F42.0
sg6
I2
sg7
I0
sg8
I1
sg9
I0
sg10
I0
sg11
I0
sg12
g13
sg14
F3.22
ssI1051
(dp173
g2
F13.775
sg3
I3101315
sg4
I1
sg5
F26.0
sg6
I2
sg7
I2
sg8
I3
sg9
I1
sg10
I2
sg11
I0
sg12
I3
sg14
g13
ssI1052
(dp174
g2
F7.7333
sg3
I335432
sg4
I3
sg5
g13
sg6
I1
sg7
I0
sg8
I3
sg9
I1
sg10
I0
sg11
I0
sg12
g13
sg14
g13
ssI1053
(dp175
g2
F15.2458
sg3
I2650
sg4
I2
sg5
F7.0
sg6
I0
sg7
I1
sg8
I3
sg9
I0
sg10
I2
sg11
I1
sg12
g13
sg14
g13
ssI1054
(dp176
g2
F13.5
sg3
I220844
sg4
I3
sg5
F26.0
sg6
I2
sg7
I0
sg8
I2
sg9
I1
sg10
I0
sg11
I0
sg12
g13
sg14
g13
ssI1055
(dp177
g2
F7.0
sg3
I343271
sg4
I0
sg5
g13
sg6
I2
sg7
I0
sg8
I3
sg9
I0
sg10
I0
sg11
I0
sg12
g13
sg14
g13
ssI1056
(dp178
g2
F13.0
sg3
I237393
sg4
I4
sg5
F41.0
sg6
I2
sg7
I0
sg8
I2
sg9
I0
sg10
I0
sg11
I0
sg12
g13
sg14
g13
ssI1057
(dp179
g2
F22.025
sg3
I315153
sg4
I1
sg5
F26.0
sg6
I2
sg7
I1
sg8
I3
sg9
I1
sg10
I2
sg11
I1
sg12
g13
sg14
g13
ssI1058
(dp180
g2
F50.4958
sg3
I17591
sg4
I0
sg5
F48.0
sg6
I0
sg7
I0
sg8
I1
sg9
I0
sg10
I0
sg11
I0
sg12
I0
sg14
F1.1
ssI1059
(dp181
g2
F34.375
sg3
I6608
sg4
I0
sg5
F18.0
sg6
I2
sg7
I2
sg8
I3
sg9
I0
sg10
I4
sg11
I2
sg12
I5
sg14
g13
ssI1060
(dp182
g2
F27.7208
sg3
I17770
sg4
I1
sg5
g13
sg6
I0
sg7
I0
sg8
I1
sg9
I1
sg10
I0
sg11
I0
sg12
g13
sg14
g13
ssI1061
(dp183
g2
F8.9625
sg3
I7548
sg4
I3
sg5
F22.0
sg6
I2
sg7
I0
sg8
I3
sg9
I1
sg10
I0
sg11
I0
sg12
g13
sg14
g13
ssI1062
(dp184
g2
F7.55
sg3
I251
sg4
I0
sg5
g13
sg6
I2
sg7
I0
sg8
I3
sg9
I0
sg10
I0
sg11
I0
sg12
I6
sg14
g13
ssI1063
(dp185
g2
F7.225
sg3
I2670
sg4
I0
sg5
F27.0
sg6
I0
sg7
I0
sg8
I3
sg9
I0
sg10
I0
sg11
I0
sg12
g13
sg14
g13
ssI1064
(dp186
g2
F13.9
sg3
I347072
sg4
I0
sg5
F23.0
sg6
I2
sg7
I0
sg8
I3
sg9
I0
sg10
I1
sg11
I1
sg12
g13
sg14
g13
ssI1065
(dp187
g2
F7.2292
sg3
I2673
sg4
I0
sg5
g13
sg6
I0
sg7
I0
sg8
I3
sg9
I0
sg10
I0
sg11
I0
sg12
g13
sg14
g13
ssI1066
(dp188
g2
F31.3875
sg3
I347077
sg4
I0
sg5
F40.0
sg6
I2
sg7
I5
sg8
I3
sg9
I0
sg10
I6
sg11
I1
sg12
g13
sg14
g13
ssI1067
(dp189
g2
F39.0
sg3
I29750
sg4
I3
sg5
F15.0
sg6
I2
sg7
I2
sg8
I2
sg9
I1
sg10
I2
sg11
I0
sg12
g13
sg14
g13
ssI1068
(dp190
g2
F36.75
sg3
I33112
sg4
I3
sg5
F20.0
sg6
I2
sg7
I0
sg8
I2
sg9
I1
sg10
I0
sg11
I0
sg12
I1
sg14
g13
ssI1069
(dp191
g2
F55.4417
sg3
I11778
sg4
I0
sg5
F54.0
sg6
I0
sg7
I0
sg8
I1
sg9
I0
sg10
I1
sg11
I1
sg12
g13
sg14
F2.116
ssI1070
(dp192
g2
F39.0
sg3
I230136
sg4
I1
sg5
F36.0
sg6
I2
sg7
I3
sg8
I2
sg9
I1
sg10
I3
sg11
I0
sg12
g13
sg14
F5.4
ssI1071
(dp193
g2
F83.1583
sg3
I17756
sg4
I1
sg5
F64.0
sg6
I0
sg7
I2
sg8
I1
sg9
I1
sg10
I2
sg11
I0
sg12
I0
sg14
F4.45
ssI1072
(dp194
g2
F13.0
sg3
I233478
sg4
I0
sg5
F30.0
sg6
I2
sg7
I0
sg8
I2
sg9
I0
sg10
I0
sg11
I0
sg12
g13
sg14
g13
ssI1073
(dp195
g2
F83.1583
sg3
I17756
sg4
I0
sg5
F37.0
sg6
I0
sg7
I1
sg8
I1
sg9
I0
sg10
I2
sg11
I1
sg12
I0
sg14
F4.52
ssI1074
(dp196
g2
F53.1
sg3
I113773
sg4
I1
sg5
F18.0
sg6
I2
sg7
I0
sg8
I1
sg9
I1
sg10
I1
sg11
I1
sg12
g13
sg14
F3.3
ssI1075
(dp197
g2
F7.75
sg3
I7935
sg4
I0
sg5
g13
sg6
I1
sg7
I0
sg8
I3
sg9
I0
sg10
I0
sg11
I0
sg12
g13
sg14
g13
ssI1076
(dp198
g2
F247.5208
sg3
I17558
sg4
I1
sg5
F27.0
sg6
I0
sg7
I1
sg8
I1
sg9
I1
sg10
I2
sg11
I1
sg12
I0
sg14
F1.59
ssI1077
(dp199
g2
F16.0
sg3
I239059
sg4
I0
sg5
F40.0
sg6
I2
sg7
I0
sg8
I2
sg9
I0
sg10
I0
sg11
I0
sg12
g13
sg14
g13
ssI1078
(dp200
g2
F21.0
sg3
I2
sg4
I3
sg5
F21.0
sg6
I2
sg7
I1
sg8
I2
sg9
I1
sg10
I1
sg11
I0
sg12
I6
sg14
g13
ssI1079
(dp201
g2
F8.05
sg3
I48873
sg4
I0
sg5
F17.0
sg6
I2
sg7
I0
sg8
I3
sg9
I0
sg10
I2
sg11
I2
sg12
I6
sg14
g13
ssI1080
(dp202
g2
F69.55
sg3
I2343
sg4
I3
sg5
g13
sg6
I2
sg7
I2
sg8
I3
sg9
I1
sg10
I10
sg11
I8
sg12
I1
sg14
g13
ssI1081
(dp203
g2
F13.0
sg3
I28221
sg4
I0
sg5
F40.0
sg6
I2
sg7
I0
sg8
I2
sg9
I0
sg10
I0
sg11
I0
sg12
g13
sg14
g13
ssI1082
(dp204
g2
F26.0
sg3
I226875
sg4
I0
sg5
F34.0
sg6
I2
sg7
I0
sg8
I2
sg9
I0
sg10
I1
sg11
I1
sg12
g13
sg14
g13
ssI1083
(dp205
g2
F26.0
sg3
I111163
sg4
I0
sg5
g13
sg6
I2
sg7
I0
sg8
I1
sg9
I0
sg10
I0
sg11
I0
sg12
g13
sg14
g13
ssI1084
(dp206
g2
F14.5
sg3
I851
sg4
I4
sg5
F11.5
sg6
I2
sg7
I1
sg8
I3
sg9
I0
sg10
I2
sg11
I1
sg12
I2
sg14
g13
ssI1085
(dp207
g2
F12.35
sg3
I235509
sg4
I0
sg5
F61.0
sg6
I1
sg7
I0
sg8
I2
sg9
I0
sg10
I0
sg11
I0
sg12
g13
sg14
g13
ssI1086
(dp208
g2
F32.5
sg3
I28220
sg4
I2
sg5
F8.0
sg6
I2
sg7
I2
sg8
I2
sg9
I0
sg10
I2
sg11
I0
sg12
g13
sg14
g13
ssI1087
(dp209
g2
F7.8542
sg3
I347465
sg4
I0
sg5
F33.0
sg6
I2
sg7
I0
sg8
I3
sg9
I0
sg10
I0
sg11
I0
sg12
g13
sg14
g13
ssI1088
(dp210
g2
F134.5
sg3
I16966
sg4
I2
sg5
F6.0
sg6
I0
sg7
I2
sg8
I1
sg9
I0
sg10
I2
sg11
I0
sg12
g13
sg14
F4.34
ssI1089
(dp211
g2
F7.775
sg3
I347066
sg4
I3
sg5
F18.0
sg6
I2
sg7
I0
sg8
I3
sg9
I1
sg10
I0
sg11
I0
sg12
g13
sg14
g13
ssI1090
(dp212
g2
F10.5
sg3
I31030
sg4
I0
sg5
F23.0
sg6
I2
sg7
I0
sg8
I2
sg9
I0
sg10
I0
sg11
I0
sg12
I1
sg14
g13
ssI1091
(dp213
g2
F8.1125
sg3
I65305
sg4
I1
sg5
g13
sg6
I2
sg7
I0
sg8
I3
sg9
I1
sg10
I0
sg11
I0
sg12
g13
sg14
g13
ssI1092
(dp214
g2
F15.5
sg3
I36568
sg4
I3
sg5
g13
sg6
I1
sg7
I0
sg8
I3
sg9
I1
sg10
I0
sg11
I0
sg12
g13
sg14
g13
ssI1093
(dp215
g2
F14.4
sg3
I347080
sg4
I2
sg5
F0.33
sg6
I2
sg7
I2
sg8
I3
sg9
I0
sg10
I2
sg11
I0
sg12
g13
sg14
g13
ssI1094
(dp216
g2
F227.525
sg3
I17757
sg4
I4
sg5
F47.0
sg6
I0
sg7
I0
sg8
I1
sg9
I0
sg10
I1
sg11
I1
sg12
I0
sg14
F2.63
ssI1095
(dp217
g2
F26.0
sg3
I26360
sg4
I3
sg5
F8.0
sg6
I2
sg7
I1
sg8
I2
sg9
I1
sg10
I2
sg11
I1
sg12
g13
sg14
g13
ssI1096
(dp218
g2
F10.5
sg3
I34050
sg4
I0
sg5
F25.0
sg6
I2
sg7
I0
sg8
I2
sg9
I0
sg10
I0
sg11
I0
sg12
I1
sg14
g13
ssI1097
(dp219
g2
F25.7417
sg3
I12998
sg4
I0
sg5
g13
sg6
I0
sg7
I0
sg8
I1
sg9
I0
sg10
I0
sg11
I0
sg12
I6
sg14
g13
ssI1098
(dp220
g2
F7.75
sg3
I9232
sg4
I3
sg5
F35.0
sg6
I1
sg7
I0
sg8
I3
sg9
I1
sg10
I0
sg11
I0
sg12
g13
sg14
g13
ssI1099
(dp221
g2
F10.5
sg3
I28034
sg4
I0
sg5
F24.0
sg6
I2
sg7
I0
sg8
I2
sg9
I0
sg10
I0
sg11
I0
sg12
g13
sg14
g13
ssI1100
(dp222
g2
F27.7208
sg3
I17613
sg4
I3
sg5
F33.0
sg6
I0
sg7
I0
sg8
I1
sg9
I1
sg10
I0
sg11
I0
sg12
I0
sg14
F0.11
ssI1101
(dp223
g2
F7.8958
sg3
I349250
sg4
I0
sg5
F25.0
sg6
I2
sg7
I0
sg8
I3
sg9
I0
sg10
I0
sg11
I0
sg12
g13
sg14
g13
ssI1102
(dp224
g2
F22.525
sg3
I4001
sg4
I0
sg5
F32.0
sg6
I2
sg7
I0
sg8
I3
sg9
I0
sg10
I0
sg11
I0
sg12
I6
sg14
g13
ssI1103
(dp225
g2
F7.05
sg3
I3101308
sg4
I0
sg5
g13
sg6
I2
sg7
I0
sg8
I3
sg9
I0
sg10
I0
sg11
I0
sg12
I3
sg14
g13
ssI1104
(dp226
g2
F73.5
sg3
I14879
sg4
I0
sg5
F17.0
sg6
I2
sg7
I0
sg8
I2
sg9
I0
sg10
I0
sg11
I0
sg12
I6
sg14
g13
ssI1105
(dp227
g2
F26.0
sg3
I24065
sg4
I1
sg5
F60.0
sg6
I2
sg7
I0
sg8
I2
sg9
I1
sg10
I1
sg11
I1
sg12
g13
sg14
g13
ssI1106
(dp228
g2
F7.775
sg3
I347091
sg4
I3
sg5
F38.0
sg6
I2
sg7
I2
sg8
I3
sg9
I1
sg10
I6
sg11
I4
sg12
g13
sg14
g13
ssI1107
(dp229
g2
F42.5
sg3
I113038
sg4
I0
sg5
F42.0
sg6
I2
sg7
I0
sg8
I1
sg9
I0
sg10
I0
sg11
I0
sg12
g13
sg14
F1.11
ssI1108
(dp230
g2
F7.8792
sg3
I330924
sg4
I3
sg5
g13
sg6
I1
sg7
I0
sg8
I3
sg9
I1
sg10
I0
sg11
I0
sg12
g13
sg14
g13
ssI1109
(dp231
g2
F164.8667
sg3
I36928
sg4
I0
sg5
F57.0
sg6
I2
sg7
I1
sg8
I1
sg9
I0
sg10
I2
sg11
I1
sg12
g13
sg14
g13
ssI1110
(dp232
g2
F211.5
sg3
I113503
sg4
I1
sg5
F50.0
sg6
I0
sg7
I1
sg8
I1
sg9
I1
sg10
I2
sg11
I1
sg12
g13
sg14
F2.8
ssI1111
(dp233
g2
F8.05
sg3
I32302
sg4
I0
sg5
g13
sg6
I2
sg7
I0
sg8
I3
sg9
I0
sg10
I0
sg11
I0
sg12
g13
sg14
g13
ssI1112
(dp234
g2
F13.8583
sg3
I2148
sg4
I4
sg5
F30.0
sg6
I0
sg7
I0
sg8
I2
sg9
I1
sg10
I1
sg11
I1
sg12
I6
sg14
g13
ssI1113
(dp235
g2
F8.05
sg3
I342684
sg4
I0
sg5
F21.0
sg6
I2
sg7
I0
sg8
I3
sg9
I0
sg10
I0
sg11
I0
sg12
g13
sg14
g13
ssI1114
(dp236
g2
F10.5
sg3
I14266
sg4
I1
sg5
F22.0
sg6
I2
sg7
I0
sg8
I2
sg9
I1
sg10
I0
sg11
I0
sg12
I5
sg14
F5.33
ssI1115
(dp237
g2
F7.7958
sg3
I350053
sg4
I0
sg5
F21.0
sg6
I2
sg7
I0
sg8
I3
sg9
I0
sg10
I0
sg11
I0
sg12
g13
sg14
g13
ssI1116
(dp238
g2
F27.4458
sg3
I17606
sg4
I1
sg5
F53.0
sg6
I0
sg7
I0
sg8
I1
sg9
I1
sg10
I0
sg11
I0
sg12
I0
sg14
g13
ssI1117
(dp239
g2
F15.2458
sg3
I2661
sg4
I1
sg5
g13
sg6
I0
sg7
I2
sg8
I3
sg9
I1
sg10
I2
sg11
I0
sg12
g13
sg14
g13
ssI1118
(dp240
g2
F7.7958
sg3
I350054
sg4
I0
sg5
F23.0
sg6
I2
sg7
I0
sg8
I3
sg9
I0
sg10
I0
sg11
I0
sg12
g13
sg14
g13
ssI1119
(dp241
g2
F7.75
sg3
I370368
sg4
I3
sg5
g13
sg6
I1
sg7
I0
sg8
I3
sg9
I1
sg10
I0
sg11
I0
sg12
g13
sg14
g13
ssI1120
(dp242
g2
F15.1
sg3
I6212
sg4
I0
sg5
F40.5
sg6
I2
sg7
I0
sg8
I3
sg9
I0
sg10
I0
sg11
I0
sg12
I1
sg14
g13
ssI1121
(dp243
g2
F13.0
sg3
I242963
sg4
I0
sg5
F36.0
sg6
I2
sg7
I0
sg8
I2
sg9
I0
sg10
I0
sg11
I0
sg12
g13
sg14
g13
ssI1122
(dp244
g2
F65.0
sg3
I220845
sg4
I0
sg5
F14.0
sg6
I2
sg7
I0
sg8
I2
sg9
I0
sg10
I0
sg11
I0
sg12
g13
sg14
g13
ssI1123
(dp245
g2
F26.55
sg3
I113795
sg4
I3
sg5
F21.0
sg6
I2
sg7
I0
sg8
I1
sg9
I1
sg10
I0
sg11
I0
sg12
g13
sg14
g13
ssI1124
(dp246
g2
F6.4958
sg3
I3101266
sg4
I0
sg5
F21.0
sg6
I2
sg7
I0
sg8
I3
sg9
I0
sg10
I1
sg11
I1
sg12
g13
sg14
g13
ssI1125
(dp247
g2
F7.8792
sg3
I330971
sg4
I0
sg5
g13
sg6
I1
sg7
I0
sg8
I3
sg9
I0
sg10
I0
sg11
I0
sg12
g13
sg14
g13
ssI1126
(dp248
g2
F71.2833
sg3
I17599
sg4
I0
sg5
F39.0
sg6
I0
sg7
I0
sg8
I1
sg9
I0
sg10
I1
sg11
I1
sg12
I0
sg14
F2.85
ssI1127
(dp249
g2
F7.8542
sg3
I350416
sg4
I0
sg5
F20.0
sg6
I2
sg7
I0
sg8
I3
sg9
I0
sg10
I0
sg11
I0
sg12
g13
sg14
g13
ssI1128
(dp250
g2
F75.25
sg3
I110813
sg4
I0
sg5
F64.0
sg6
I0
sg7
I0
sg8
I1
sg9
I0
sg10
I1
sg11
I1
sg12
g13
sg14
F3.37
ssI1129
(dp251
g2
F7.225
sg3
I2679
sg4
I0
sg5
F20.0
sg6
I0
sg7
I0
sg8
I3
sg9
I0
sg10
I0
sg11
I0
sg12
g13
sg14
g13
ssI1130
(dp252
g2
F13.0
sg3
I250650
sg4
I3
sg5
F18.0
sg6
I2
sg7
I1
sg8
I2
sg9
I1
sg10
I2
sg11
I1
sg12
g13
sg14
g13
ssI1131
(dp253
g2
F106.425
sg3
I17761
sg4
I1
sg5
F48.0
sg6
I0
sg7
I0
sg8
I1
sg9
I1
sg10
I1
sg11
I1
sg12
I0
sg14
F2.86
ssI1132
(dp254
g2
F27.7208
sg3
I112377
sg4
I1
sg5
F55.0
sg6
I0
sg7
I0
sg8
I1
sg9
I1
sg10
I0
sg11
I0
sg12
g13
sg14
g13
ssI1133
(dp255
g2
F30.0
sg3
I237789
sg4
I1
sg5
F45.0
sg6
I2
sg7
I2
sg8
I2
sg9
I1
sg10
I2
sg11
I0
sg12
g13
sg14
g13
ssI1134
(dp256
g2
F134.5
sg3
I16966
sg4
I0
sg5
F45.0
sg6
I0
sg7
I1
sg8
I1
sg9
I0
sg10
I2
sg11
I1
sg12
g13
sg14
F4.34
ssI1135
(dp257
g2
F7.8875
sg3
I3470
sg4
I0
sg5
g13
sg6
I2
sg7
I0
sg8
I3
sg9
I0
sg10
I0
sg11
I0
sg12
g13
sg14
g13
ssI1136
(dp258
g2
F23.45
sg3
I6607
sg4
I2
sg5
g13
sg6
I2
sg7
I2
sg8
I3
sg9
I0
sg10
I3
sg11
I1
sg12
I5
sg14
g13
ssI1137
(dp259
g2
F51.8625
sg3
I17464
sg4
I0
sg5
F41.0
sg6
I2
sg7
I0
sg8
I1
sg9
I0
sg10
I1
sg11
I1
sg12
g13
sg14
F3.21
ssI1138
(dp260
g2
F21.0
sg3
I13534
sg4
I1
sg5
F22.0
sg6
I2
sg7
I0
sg8
I2
sg9
I1
sg10
I0
sg11
I0
sg12
I6
sg14
g13
ssI1139
(dp261
g2
F32.5
sg3
I28220
sg4
I0
sg5
F42.0
sg6
I2
sg7
I1
sg8
I2
sg9
I0
sg10
I2
sg11
I1
sg12
g13
sg14
g13
ssI1140
(dp262
g2
F26.0
sg3
I26707
sg4
I1
sg5
F29.0
sg6
I2
sg7
I0
sg8
I2
sg9
I1
sg10
I1
sg11
I1
sg12
g13
sg14
g13
ssI1141
(dp263
g2
F14.4542
sg3
I2660
sg4
I1
sg5
g13
sg6
I0
sg7
I0
sg8
I3
sg9
I1
sg10
I1
sg11
I1
sg12
g13
sg14
g13
ssI1142
(dp264
g2
F27.75
sg3
I34651
sg4
I3
sg5
F0.92
sg6
I2
sg7
I2
sg8
I2
sg9
I1
sg10
I3
sg11
I1
sg12
I1
sg14
g13
ssI1143
(dp265
g2
F7.925
sg3
I3101284
sg4
I0
sg5
F20.0
sg6
I2
sg7
I0
sg8
I3
sg9
I0
sg10
I0
sg11
I0
sg12
I6
sg14
g13
ssI1144
(dp266
g2
F136.7792
sg3
I13508
sg4
I0
sg5
F27.0
sg6
I0
sg7
I0
sg8
I1
sg9
I0
sg10
I1
sg11
I1
sg12
g13
sg14
F2.89
ssI1145
(dp267
g2
F9.325
sg3
I7266
sg4
I0
sg5
F24.0
sg6
I2
sg7
I0
sg8
I3
sg9
I0
sg10
I0
sg11
I0
sg12
g13
sg14
g13
ssI1146
(dp268
g2
F9.5
sg3
I345775
sg4
I0
sg5
F32.5
sg6
I2
sg7
I0
sg8
I3
sg9
I0
sg10
I0
sg11
I0
sg12
g13
sg14
g13
ssI1147
(dp269
g2
F7.55
sg3
I42795
sg4
I0
sg5
g13
sg6
I2
sg7
I0
sg8
I3
sg9
I0
sg10
I0
sg11
I0
sg12
I1
sg14
g13
ssI1148
(dp270
g2
F7.75
sg3
I3130
sg4
I0
sg5
g13
sg6
I1
sg7
I0
sg8
I3
sg9
I0
sg10
I0
sg11
I0
sg12
I6
sg14
g13
ssI1149
(dp271
g2
F8.05
sg3
I363611
sg4
I0
sg5
F28.0
sg6
I2
sg7
I0
sg8
I3
sg9
I0
sg10
I0
sg11
I0
sg12
g13
sg14
g13
ssI1150
(dp272
g2
F13.0
sg3
I28404
sg4
I3
sg5
F19.0
sg6
I2
sg7
I0
sg8
I2
sg9
I1
sg10
I0
sg11
I0
sg12
g13
sg14
g13
ssI1151
(dp273
g2
F7.775
sg3
I345501
sg4
I0
sg5
F21.0
sg6
I2
sg7
I0
sg8
I3
sg9
I0
sg10
I0
sg11
I0
sg12
g13
sg14
g13
ssI1152
(dp274
g2
F17.4
sg3
I345572
sg4
I4
sg5
F36.5
sg6
I2
sg7
I0
sg8
I3
sg9
I0
sg10
I1
sg11
I1
sg12
g13
sg14
g13
ssI1153
(dp275
g2
F7.8542
sg3
I350410
sg4
I0
sg5
F21.0
sg6
I2
sg7
I0
sg8
I3
sg9
I0
sg10
I0
sg11
I0
sg12
g13
sg14
g13
ssI1154
(dp276
g2
F23.0
sg3
I29103
sg4
I1
sg5
F29.0
sg6
I2
sg7
I2
sg8
I2
sg9
I1
sg10
I2
sg11
I0
sg12
g13
sg14
g13
ssI1155
(dp277
g2
F12.1833
sg3
I350405
sg4
I3
sg5
F1.0
sg6
I2
sg7
I1
sg8
I3
sg9
I1
sg10
I2
sg11
I1
sg12
g13
sg14
g13
ssI1156
(dp278
g2
F12.7375
sg3
I34644
sg4
I0
sg5
F30.0
sg6
I0
sg7
I0
sg8
I2
sg9
I0
sg10
I0
sg11
I0
sg12
I1
sg14
g13
ssI1157
(dp279
g2
F7.8958
sg3
I349235
sg4
I0
sg5
g13
sg6
I2
sg7
I0
sg8
I3
sg9
I0
sg10
I0
sg11
I0
sg12
g13
sg14
g13
ssI1158
(dp280
g2
F0.0
sg3
I112051
sg4
I0
sg5
g13
sg6
I2
sg7
I0
sg8
I1
sg9
I0
sg10
I0
sg11
I0
sg12
g13
sg14
g13
ssI1159
(dp281
g2
F7.55
sg3
I49867
sg4
I0
sg5
g13
sg6
I2
sg7
I0
sg8
I3
sg9
I0
sg10
I0
sg11
I0
sg12
I1
sg14
g13
ssI1160
(dp282
g2
F8.05
sg3
I39186
sg4
I3
sg5
g13
sg6
I2
sg7
I0
sg8
I3
sg9
I1
sg10
I0
sg11
I0
sg12
I6
sg14
g13
ssI1161
(dp283
g2
F8.6625
sg3
I315095
sg4
I0
sg5
F17.0
sg6
I2
sg7
I0
sg8
I3
sg9
I0
sg10
I0
sg11
I0
sg12
g13
sg14
g13
ssI1162
(dp284
g2
F75.2417
sg3
I13050
sg4
I0
sg5
F46.0
sg6
I0
sg7
I0
sg8
I1
sg9
I0
sg10
I0
sg11
I0
sg12
g13
sg14
F2.6
ssI1163
(dp285
g2
F7.75
sg3
I368573
sg4
I0
sg5
g13
sg6
I1
sg7
I0
sg8
I3
sg9
I0
sg10
I0
sg11
I0
sg12
g13
sg14
g13
ssI1164
(dp286
g2
F136.7792
sg3
I13508
sg4
I1
sg5
F26.0
sg6
I0
sg7
I0
sg8
I1
sg9
I1
sg10
I1
sg11
I1
sg12
g13
sg14
F2.89
ssI1165
(dp287
g2
F15.5
sg3
I370371
sg4
I3
sg5
g13
sg6
I1
sg7
I0
sg8
I3
sg9
I1
sg10
I1
sg11
I1
sg12
g13
sg14
g13
ssI1166
(dp288
g2
F7.225
sg3
I2676
sg4
I0
sg5
g13
sg6
I0
sg7
I0
sg8
I3
sg9
I0
sg10
I0
sg11
I0
sg12
g13
sg14
g13
ssI1167
(dp289
g2
F26.0
sg3
I236853
sg4
I3
sg5
F20.0
sg6
I2
sg7
I0
sg8
I2
sg9
I1
sg10
I1
sg11
I1
sg12
g13
sg14
g13
ssI1168
(dp290
g2
F10.5
sg3
I14888
sg4
I0
sg5
F28.0
sg6
I2
sg7
I0
sg8
I2
sg9
I0
sg10
I0
sg11
I0
sg12
I6
sg14
g13
ssI1169
(dp291
g2
F26.0
sg3
I2926
sg4
I0
sg5
F40.0
sg6
I2
sg7
I0
sg8
I2
sg9
I0
sg10
I1
sg11
I1
sg12
g13
sg14
g13
ssI1170
(dp292
g2
F21.0
sg3
I31352
sg4
I0
sg5
F30.0
sg6
I2
sg7
I0
sg8
I2
sg9
I0
sg10
I1
sg11
I1
sg12
I1
sg14
g13
ssI1171
(dp293
g2
F10.5
sg3
I14260
sg4
I0
sg5
F22.0
sg6
I2
sg7
I0
sg8
I2
sg9
I0
sg10
I0
sg11
I0
sg12
I5
sg14
g13
ssI1172
(dp294
g2
F8.6625
sg3
I315085
sg4
I3
sg5
F23.0
sg6
I2
sg7
I0
sg8
I3
sg9
I1
sg10
I0
sg11
I0
sg12
g13
sg14
g13
ssI1173
(dp295
g2
F13.775
sg3
I3101315
sg4
I2
sg5
F0.75
sg6
I2
sg7
I1
sg8
I3
sg9
I0
sg10
I2
sg11
I1
sg12
I3
sg14
g13
ssI1174
(dp296
g2
F7.75
sg3
I364859
sg4
I3
sg5
g13
sg6
I1
sg7
I0
sg8
I3
sg9
I1
sg10
I0
sg11
I0
sg12
g13
sg14
g13
ssI1175
(dp297
g2
F15.2458
sg3
I2650
sg4
I3
sg5
F9.0
sg6
I0
sg7
I1
sg8
I3
sg9
I1
sg10
I2
sg11
I1
sg12
g13
sg14
g13
ssI1176
(dp298
g2
F20.2125
sg3
I370129
sg4
I3
sg5
F2.0
sg6
I2
sg7
I1
sg8
I3
sg9
I1
sg10
I2
sg11
I1
sg12
g13
sg14
g13
ssI1177
(dp299
g2
F7.25
sg3
I21175
sg4
I0
sg5
F36.0
sg6
I2
sg7
I0
sg8
I3
sg9
I0
sg10
I0
sg11
I0
sg12
I2
sg14
g13
ssI1178
(dp300
g2
F7.25
sg3
I3101314
sg4
I0
sg5
g13
sg6
I2
sg7
I0
sg8
I3
sg9
I0
sg10
I0
sg11
I0
sg12
I3
sg14
g13
ssI1179
(dp301
g2
F82.2667
sg3
I21228
sg4
I0
sg5
F24.0
sg6
I2
sg7
I0
sg8
I1
sg9
I0
sg10
I1
sg11
I1
sg12
g13
sg14
F1.45
ssI1180
(dp302
g2
F7.2292
sg3
I2655
sg4
I0
sg5
g13
sg6
I0
sg7
I0
sg8
I3
sg9
I0
sg10
I0
sg11
I0
sg12
g13
sg14
F4.73
ssI1181
(dp303
g2
F8.05
sg3
I1478
sg4
I0
sg5
g13
sg6
I2
sg7
I0
sg8
I3
sg9
I0
sg10
I0
sg11
I0
sg12
I2
sg14
g13
ssI1182
(dp304
g2
F39.6
sg3
I17607
sg4
I0
sg5
g13
sg6
I2
sg7
I0
sg8
I1
sg9
I0
sg10
I0
sg11
I0
sg12
I0
sg14
g13
ssI1183
(dp305
g2
F6.95
sg3
I382650
sg4
I3
sg5
F30.0
sg6
I1
sg7
I0
sg8
I3
sg9
I1
sg10
I0
sg11
I0
sg12
g13
sg14
g13
ssI1184
(dp306
g2
F7.2292
sg3
I2652
sg4
I0
sg5
g13
sg6
I0
sg7
I0
sg8
I3
sg9
I0
sg10
I0
sg11
I0
sg12
g13
sg14
g13
ssI1185
(dp307
g2
F81.8583
sg3
I33638
sg4
I4
sg5
F53.0
sg6
I2
sg7
I1
sg8
I1
sg9
I0
sg10
I2
sg11
I1
sg12
g13
sg14
F0.34
ssI1186
(dp308
g2
F9.5
sg3
I345771
sg4
I0
sg5
F36.0
sg6
I2
sg7
I0
sg8
I3
sg9
I0
sg10
I0
sg11
I0
sg12
g13
sg14
g13
ssI1187
(dp309
g2
F7.8958
sg3
I349202
sg4
I0
sg5
F26.0
sg6
I2
sg7
I0
sg8
I3
sg9
I0
sg10
I0
sg11
I0
sg12
g13
sg14
g13
ssI1188
(dp310
g2
F41.5792
sg3
I2123
sg4
I3
sg5
F1.0
sg6
I0
sg7
I2
sg8
I2
sg9
I1
sg10
I3
sg11
I1
sg12
I6
sg14
g13
ssI1189
(dp311
g2
F21.6792
sg3
I2662
sg4
I0
sg5
g13
sg6
I0
sg7
I0
sg8
I3
sg9
I0
sg10
I2
sg11
I2
sg12
g13
sg14
g13
ssI1190
(dp312
g2
F45.5
sg3
I113801
sg4
I0
sg5
F30.0
sg6
I2
sg7
I0
sg8
I1
sg9
I0
sg10
I0
sg11
I0
sg12
g13
sg14
g13
ssI1191
(dp313
g2
F7.8542
sg3
I347467
sg4
I0
sg5
F29.0
sg6
I2
sg7
I0
sg8
I3
sg9
I0
sg10
I0
sg11
I0
sg12
g13
sg14
g13
ssI1192
(dp314
g2
F7.775
sg3
I347079
sg4
I0
sg5
F32.0
sg6
I2
sg7
I0
sg8
I3
sg9
I0
sg10
I0
sg11
I0
sg12
g13
sg14
g13
ssI1193
(dp315
g2
F15.0458
sg3
I237735
sg4
I0
sg5
g13
sg6
I0
sg7
I0
sg8
I2
sg9
I0
sg10
I0
sg11
I0
sg12
g13
sg14
F3.0
ssI1194
(dp316
g2
F21.0
sg3
I2
sg4
I0
sg5
F43.0
sg6
I2
sg7
I1
sg8
I2
sg9
I0
sg10
I1
sg11
I0
sg12
I6
sg14
g13
ssI1195
(dp317
g2
F8.6625
sg3
I315092
sg4
I0
sg5
F24.0
sg6
I2
sg7
I0
sg8
I3
sg9
I0
sg10
I0
sg11
I0
sg12
g13
sg14
g13
ssI1196
(dp318
g2
F7.75
sg3
I383123
sg4
I3
sg5
g13
sg6
I1
sg7
I0
sg8
I3
sg9
I1
sg10
I0
sg11
I0
sg12
g13
sg14
g13
ssI1197
(dp319
g2
F26.55
sg3
I112901
sg4
I1
sg5
F64.0
sg6
I2
sg7
I1
sg8
I1
sg9
I1
sg10
I2
sg11
I1
sg12
g13
sg14
F1.26
ssI1198
(dp320
g2
F151.55
sg3
I113781
sg4
I0
sg5
F30.0
sg6
I2
sg7
I2
sg8
I1
sg9
I0
sg10
I3
sg11
I1
sg12
g13
sg14
F2.24
ssI1199
(dp321
g2
F9.35
sg3
I392091
sg4
I2
sg5
F0.83
sg6
I2
sg7
I1
sg8
I3
sg9
I0
sg10
I1
sg11
I0
sg12
g13
sg14
g13
ssI1200
(dp322
g2
F93.5
sg3
I12749
sg4
I0
sg5
F55.0
sg6
I2
sg7
I1
sg8
I1
sg9
I0
sg10
I2
sg11
I1
sg12
g13
sg14
F1.69
ssI1201
(dp323
g2
F14.1083
sg3
I350026
sg4
I1
sg5
F45.0
sg6
I2
sg7
I0
sg8
I3
sg9
I1
sg10
I1
sg11
I1
sg12
g13
sg14
g13
ssI1202
(dp324
g2
F8.6625
sg3
I315091
sg4
I0
sg5
F18.0
sg6
I2
sg7
I0
sg8
I3
sg9
I0
sg10
I0
sg11
I0
sg12
g13
sg14
g13
ssI1203
(dp325
g2
F7.225
sg3
I2658
sg4
I0
sg5
F22.0
sg6
I0
sg7
I0
sg8
I3
sg9
I0
sg10
I0
sg11
I0
sg12
g13
sg14
g13
ssI1204
(dp326
g2
F7.575
sg3
I1588
sg4
I0
sg5
g13
sg6
I2
sg7
I0
sg8
I3
sg9
I0
sg10
I0
sg11
I0
sg12
I6
sg14
g13
ssI1205
(dp327
g2
F7.75
sg3
I368364
sg4
I3
sg5
F37.0
sg6
I1
sg7
I0
sg8
I3
sg9
I1
sg10
I0
sg11
I0
sg12
g13
sg14
g13
ssI1206
(dp328
g2
F135.6333
sg3
I17760
sg4
I1
sg5
F55.0
sg6
I0
sg7
I0
sg8
I1
sg9
I1
sg10
I0
sg11
I0
sg12
I0
sg14
F2.32
ssI1207
(dp329
g2
F7.7333
sg3
I30631
sg4
I3
sg5
F17.0
sg6
I1
sg7
I0
sg8
I3
sg9
I1
sg10
I0
sg11
I0
sg12
I6
sg14
g13
ssI1208
(dp330
g2
F146.5208
sg3
I17569
sg4
I0
sg5
F57.0
sg6
I0
sg7
I0
sg8
I1
sg9
I0
sg10
I1
sg11
I1
sg12
I0
sg14
F1.78
ssI1209
(dp331
g2
F10.5
sg3
I28004
sg4
I0
sg5
F19.0
sg6
I2
sg7
I0
sg8
I2
sg9
I0
sg10
I0
sg11
I0
sg12
g13
sg14
g13
ssI1210
(dp332
g2
F7.8542
sg3
I350408
sg4
I0
sg5
F27.0
sg6
I2
sg7
I0
sg8
I3
sg9
I0
sg10
I0
sg11
I0
sg12
g13
sg14
g13
ssI1211
(dp333
g2
F31.5
sg3
I31029
sg4
I0
sg5
F22.0
sg6
I2
sg7
I0
sg8
I2
sg9
I0
sg10
I2
sg11
I2
sg12
I1
sg14
g13
ssI1212
(dp334
g2
F7.775
sg3
I347075
sg4
I0
sg5
F26.0
sg6
I2
sg7
I0
sg8
I3
sg9
I0
sg10
I0
sg11
I0
sg12
g13
sg14
g13
ssI1213
(dp335
g2
F7.2292
sg3
I2654
sg4
I0
sg5
F25.0
sg6
I0
sg7
I0
sg8
I3
sg9
I0
sg10
I0
sg11
I0
sg12
g13
sg14
F4.785
ssI1214
(dp336
g2
F13.0
sg3
I244368
sg4
I0
sg5
F26.0
sg6
I2
sg7
I0
sg8
I2
sg9
I0
sg10
I0
sg11
I0
sg12
g13
sg14
F5.2
ssI1215
(dp337
g2
F26.55
sg3
I113790
sg4
I0
sg5
F33.0
sg6
I2
sg7
I0
sg8
I1
sg9
I0
sg10
I0
sg11
I0
sg12
g13
sg14
g13
ssI1216
(dp338
g2
F211.3375
sg3
I24160
sg4
I3
sg5
F39.0
sg6
I2
sg7
I0
sg8
I1
sg9
I1
sg10
I0
sg11
I0
sg12
g13
sg14
g13
ssI1217
(dp339
g2
F7.05
sg3
I3101309
sg4
I0
sg5
F23.0
sg6
I2
sg7
I0
sg8
I3
sg9
I0
sg10
I0
sg11
I0
sg12
I3
sg14
g13
ssI1218
(dp340
g2
F39.0
sg3
I230136
sg4
I3
sg5
F12.0
sg6
I2
sg7
I1
sg8
I2
sg9
I1
sg10
I3
sg11
I2
sg12
g13
sg14
F5.4
ssI1219
(dp341
g2
F79.2
sg3
I17585
sg4
I0
sg5
F46.0
sg6
I0
sg7
I0
sg8
I1
sg9
I0
sg10
I0
sg11
I0
sg12
I0
sg14
g13
ssI1220
(dp342
g2
F26.0
sg3
I2003
sg4
I0
sg5
F29.0
sg6
I2
sg7
I0
sg8
I2
sg9
I0
sg10
I1
sg11
I1
sg12
g13
sg14
g13
ssI1221
(dp343
g2
F13.0
sg3
I236854
sg4
I0
sg5
F21.0
sg6
I2
sg7
I0
sg8
I2
sg9
I0
sg10
I0
sg11
I0
sg12
g13
sg14
g13
ssI1222
(dp344
g2
F36.75
sg3
I33112
sg4
I1
sg5
F48.0
sg6
I2
sg7
I2
sg8
I2
sg9
I1
sg10
I2
sg11
I0
sg12
I1
sg14
g13
ssI1223
(dp345
g2
F29.7
sg3
I17580
sg4
I0
sg5
F39.0
sg6
I0
sg7
I0
sg8
I1
sg9
I0
sg10
I0
sg11
I0
sg12
I0
sg14
F0.18
ssI1224
(dp346
g2
F7.225
sg3
I2684
sg4
I0
sg5
g13
sg6
I0
sg7
I0
sg8
I3
sg9
I0
sg10
I0
sg11
I0
sg12
g13
sg14
g13
ssI1225
(dp347
g2
F15.7417
sg3
I2653
sg4
I1
sg5
F19.0
sg6
I0
sg7
I1
sg8
I3
sg9
I1
sg10
I2
sg11
I1
sg12
g13
sg14
g13
ssI1226
(dp348
g2
F7.8958
sg3
I349229
sg4
I0
sg5
F27.0
sg6
I2
sg7
I0
sg8
I3
sg9
I0
sg10
I0
sg11
I0
sg12
g13
sg14
g13
ssI1227
(dp349
g2
F26.0
sg3
I110469
sg4
I0
sg5
F30.0
sg6
I2
sg7
I0
sg8
I1
sg9
I0
sg10
I0
sg11
I0
sg12
g13
sg14
F2.106
ssI1228
(dp350
g2
F13.0
sg3
I244360
sg4
I4
sg5
F32.0
sg6
I2
sg7
I0
sg8
I2
sg9
I0
sg10
I0
sg11
I0
sg12
g13
sg14
g13
ssI1229
(dp351
g2
F7.2292
sg3
I2675
sg4
I0
sg5
F39.0
sg6
I0
sg7
I2
sg8
I3
sg9
I0
sg10
I2
sg11
I0
sg12
g13
sg14
g13
ssI1230
(dp352
g2
F31.5
sg3
I31029
sg4
I0
sg5
F25.0
sg6
I2
sg7
I0
sg8
I2
sg9
I0
sg10
I0
sg11
I0
sg12
I1
sg14
g13
ssI1231
(dp353
g2
F7.2292
sg3
I2622
sg4
I2
sg5
g13
sg6
I0
sg7
I0
sg8
I3
sg9
I0
sg10
I0
sg11
I0
sg12
g13
sg14
g13
ssI1232
(dp354
g2
F10.5
sg3
I15185
sg4
I0
sg5
F18.0
sg6
I2
sg7
I0
sg8
I2
sg9
I0
sg10
I0
sg11
I0
sg12
I1
sg14
g13
ssI1233
(dp355
g2
F7.5792
sg3
I350403
sg4
I0
sg5
F32.0
sg6
I2
sg7
I0
sg8
I3
sg9
I0
sg10
I0
sg11
I0
sg12
g13
sg14
g13
ssI1234
(dp356
g2
F69.55
sg3
I2343
sg4
I0
sg5
g13
sg6
I2
sg7
I9
sg8
I3
sg9
I0
sg10
I10
sg11
I1
sg12
I1
sg14
g13
ssI1235
(dp357
g2
F512.3292
sg3
I17755
sg4
I1
sg5
F58.0
sg6
I0
sg7
I1
sg8
I1
sg9
I1
sg10
I1
sg11
I0
sg12
I0
sg14
F1.53
ssI1236
(dp358
g2
F14.5
sg3
I851
sg4
I4
sg5
g13
sg6
I2
sg7
I1
sg8
I3
sg9
I0
sg10
I2
sg11
I1
sg12
I2
sg14
g13
ssI1237
(dp359
g2
F7.65
sg3
I348125
sg4
I3
sg5
F16.0
sg6
I2
sg7
I0
sg8
I3
sg9
I1
sg10
I0
sg11
I0
sg12
g13
sg14
g13
ssI1238
(dp360
g2
F13.0
sg3
I237670
sg4
I0
sg5
F26.0
sg6
I2
sg7
I0
sg8
I2
sg9
I0
sg10
I0
sg11
I0
sg12
g13
sg14
g13
ssI1239
(dp361
g2
F7.2292
sg3
I2688
sg4
I1
sg5
F38.0
sg6
I0
sg7
I0
sg8
I3
sg9
I1
sg10
I0
sg11
I0
sg12
g13
sg14
g13
ssI1240
(dp362
g2
F13.5
sg3
I248726
sg4
I0
sg5
F24.0
sg6
I2
sg7
I0
sg8
I2
sg9
I0
sg10
I0
sg11
I0
sg12
g13
sg14
g13
ssI1241
(dp363
g2
F21.0
sg3
I13528
sg4
I3
sg5
F31.0
sg6
I2
sg7
I0
sg8
I2
sg9
I1
sg10
I0
sg11
I0
sg12
I6
sg14
g13
ssI1242
(dp364
g2
F63.3583
sg3
I17759
sg4
I1
sg5
F45.0
sg6
I0
sg7
I1
sg8
I1
sg9
I1
sg10
I1
sg11
I0
sg12
I0
sg14
F3.1100000000000003
ssI1243
(dp365
g2
F10.5
sg3
I13540
sg4
I0
sg5
F25.0
sg6
I2
sg7
I0
sg8
I2
sg9
I0
sg10
I0
sg11
I0
sg12
I6
sg14
g13
ssI1244
(dp366
g2
F73.5
sg3
I14879
sg4
I0
sg5
F18.0
sg6
I2
sg7
I0
sg8
I2
sg9
I0
sg10
I0
sg11
I0
sg12
I6
sg14
g13
ssI1245
(dp367
g2
F65.0
sg3
I220845
sg4
I0
sg5
F49.0
sg6
I2
sg7
I2
sg8
I2
sg9
I0
sg10
I3
sg11
I1
sg12
g13
sg14
g13
ssI1246
(dp368
g2
F20.575
sg3
I2315
sg4
I3
sg5
F0.17
sg6
I2
sg7
I2
sg8
I3
sg9
I1
sg10
I3
sg11
I1
sg12
I1
sg14
g13
ssI1247
(dp369
g2
F26.0
sg3
I113044
sg4
I0
sg5
F50.0
sg6
I2
sg7
I0
sg8
I1
sg9
I0
sg10
I0
sg11
I0
sg12
g13
sg14
F4.6
ssI1248
(dp370
g2
F51.4792
sg3
I11769
sg4
I1
sg5
F59.0
sg6
I2
sg7
I0
sg8
I1
sg9
I1
sg10
I2
sg11
I2
sg12
g13
sg14
F2.101
ssI1249
(dp371
g2
F7.8792
sg3
I1222
sg4
I0
sg5
g13
sg6
I2
sg7
I0
sg8
I3
sg9
I0
sg10
I0
sg11
I0
sg12
g13
sg14
g13
ssI1250
(dp372
g2
F7.75
sg3
I368402
sg4
I0
sg5
g13
sg6
I1
sg7
I0
sg8
I3
sg9
I0
sg10
I0
sg11
I0
sg12
g13
sg14
g13
ssI1251
(dp373
g2
F15.55
sg3
I349910
sg4
I1
sg5
F30.0
sg6
I2
sg7
I0
sg8
I3
sg9
I1
sg10
I1
sg11
I1
sg12
g13
sg14
g13
ssI1252
(dp374
g2
F69.55
sg3
I2343
sg4
I2
sg5
F14.5
sg6
I2
sg7
I2
sg8
I3
sg9
I0
sg10
I10
sg11
I8
sg12
I1
sg14
g13
ssI1253
(dp375
g2
F37.0042
sg3
I2079
sg4
I1
sg5
F24.0
sg6
I0
sg7
I1
sg8
I2
sg9
I1
sg10
I2
sg11
I1
sg12
I6
sg14
g13
ssI1254
(dp376
g2
F21.0
sg3
I31352
sg4
I1
sg5
F31.0
sg6
I2
sg7
I0
sg8
I2
sg9
I1
sg10
I0
sg11
I0
sg12
I1
sg14
g13
ssI1255
(dp377
g2
F8.6625
sg3
I315083
sg4
I0
sg5
F27.0
sg6
I2
sg7
I0
sg8
I3
sg9
I0
sg10
I0
sg11
I0
sg12
g13
sg14
g13
ssI1256
(dp378
g2
F55.4417
sg3
I11765
sg4
I1
sg5
F25.0
sg6
I0
sg7
I0
sg8
I1
sg9
I1
sg10
I1
sg11
I1
sg12
g13
sg14
F4.5
ssI1257
(dp379
g2
F69.55
sg3
I2343
sg4
I1
sg5
g13
sg6
I2
sg7
I9
sg8
I3
sg9
I1
sg10
I10
sg11
I1
sg12
I1
sg14
g13
ssI1258
(dp380
g2
F14.4583
sg3
I2689
sg4
I0
sg5
g13
sg6
I0
sg7
I0
sg8
I3
sg9
I0
sg10
I1
sg11
I1
sg12
g13
sg14
g13
ssI1259
(dp381
g2
F39.6875
sg3
I3101295
sg4
I3
sg5
F22.0
sg6
I2
sg7
I0
sg8
I3
sg9
I1
sg10
I0
sg11
I0
sg12
g13
sg14
g13
ssI1260
(dp382
g2
F59.4
sg3
I112378
sg4
I1
sg5
F45.0
sg6
I0
sg7
I1
sg8
I1
sg9
I1
sg10
I1
sg11
I0
sg12
g13
sg14
g13
ssI1261
(dp383
g2
F13.8583
sg3
I2147
sg4
I4
sg5
F29.0
sg6
I0
sg7
I0
sg8
I2
sg9
I0
sg10
I0
sg11
I0
sg12
I6
sg14
g13
ssI1262
(dp384
g2
F11.5
sg3
I28133
sg4
I0
sg5
F21.0
sg6
I2
sg7
I0
sg8
I2
sg9
I0
sg10
I1
sg11
I1
sg12
g13
sg14
g13
ssI1263
(dp385
g2
F134.5
sg3
I16966
sg4
I3
sg5
F31.0
sg6
I0
sg7
I0
sg8
I1
sg9
I1
sg10
I0
sg11
I0
sg12
g13
sg14
F4.4
ssI1264
(dp386
g2
F0.0
sg3
I112058
sg4
I0
sg5
F49.0
sg6
I2
sg7
I0
sg8
I1
sg9
I0
sg10
I0
sg11
I0
sg12
g13
sg14
F1.54
ssI1265
(dp387
g2
F13.0
sg3
I248746
sg4
I0
sg5
F44.0
sg6
I2
sg7
I0
sg8
I2
sg9
I0
sg10
I0
sg11
I0
sg12
g13
sg14
g13
ssI1266
(dp388
g2
F81.8583
sg3
I33638
sg4
I1
sg5
F54.0
sg6
I2
sg7
I1
sg8
I1
sg9
I1
sg10
I2
sg11
I1
sg12
g13
sg14
F0.34
ssI1267
(dp389
g2
F262.375
sg3
I17608
sg4
I3
sg5
F45.0
sg6
I0
sg7
I0
sg8
I1
sg9
I1
sg10
I0
sg11
I0
sg12
I0
sg14
g13
ssI1268
(dp390
g2
F8.6625
sg3
I315152
sg4
I3
sg5
F22.0
sg6
I2
sg7
I0
sg8
I3
sg9
I1
sg10
I2
sg11
I2
sg12
g13
sg14
g13
ssI1269
(dp391
g2
F11.5
sg3
I29107
sg4
I0
sg5
F21.0
sg6
I2
sg7
I0
sg8
I2
sg9
I0
sg10
I0
sg11
I0
sg12
g13
sg14
g13
ssI1270
(dp392
g2
F50.0
sg3
I680
sg4
I0
sg5
F55.0
sg6
I2
sg7
I0
sg8
I1
sg9
I0
sg10
I0
sg11
I0
sg12
g13
sg14
F2.39
ssI1271
(dp393
g2
F31.3875
sg3
I347077
sg4
I2
sg5
F5.0
sg6
I2
sg7
I2
sg8
I3
sg9
I0
sg10
I6
sg11
I4
sg12
g13
sg14
g13
ssI1272
(dp394
g2
F7.75
sg3
I366713
sg4
I0
sg5
g13
sg6
I1
sg7
I0
sg8
I3
sg9
I0
sg10
I0
sg11
I0
sg12
g13
sg14
g13
ssI1273
(dp395
g2
F7.8792
sg3
I330910
sg4
I0
sg5
F26.0
sg6
I1
sg7
I0
sg8
I3
sg9
I0
sg10
I0
sg11
I0
sg12
g13
sg14
g13
ssI1274
(dp396
g2
F14.5
sg3
I364498
sg4
I1
sg5
g13
sg6
I2
sg7
I0
sg8
I3
sg9
I1
sg10
I0
sg11
I0
sg12
g13
sg14
g13
ssI1275
(dp397
g2
F16.1
sg3
I376566
sg4
I1
sg5
F19.0
sg6
I2
sg7
I0
sg8
I3
sg9
I1
sg10
I1
sg11
I1
sg12
g13
sg14
g13
ssI1276
(dp398
g2
F12.875
sg3
I2159
sg4
I0
sg5
g13
sg6
I2
sg7
I0
sg8
I2
sg9
I0
sg10
I0
sg11
I0
sg12
I6
sg14
g13
ssI1277
(dp399
g2
F65.0
sg3
I220845
sg4
I3
sg5
F24.0
sg6
I2
sg7
I2
sg8
I2
sg9
I1
sg10
I3
sg11
I1
sg12
g13
sg14
g13
ssI1278
(dp400
g2
F7.775
sg3
I349911
sg4
I0
sg5
F24.0
sg6
I2
sg7
I0
sg8
I3
sg9
I0
sg10
I0
sg11
I0
sg12
g13
sg14
g13
ssI1279
(dp401
g2
F13.0
sg3
I244346
sg4
I0
sg5
F57.0
sg6
I2
sg7
I0
sg8
I2
sg9
I0
sg10
I0
sg11
I0
sg12
g13
sg14
g13
ssI1280
(dp402
g2
F7.75
sg3
I364858
sg4
I0
sg5
F21.0
sg6
I1
sg7
I0
sg8
I3
sg9
I0
sg10
I0
sg11
I0
sg12
g13
sg14
g13
ssI1281
(dp403
g2
F21.075
sg3
I349909
sg4
I2
sg5
F6.0
sg6
I2
sg7
I1
sg8
I3
sg9
I0
sg10
I4
sg11
I3
sg12
g13
sg14
g13
ssI1282
(dp404
g2
F93.5
sg3
I12749
sg4
I0
sg5
F23.0
sg6
I2
sg7
I0
sg8
I1
sg9
I0
sg10
I0
sg11
I0
sg12
g13
sg14
F1.24
ssI1283
(dp405
g2
F39.4
sg3
I17592
sg4
I1
sg5
F51.0
sg6
I2
sg7
I1
sg8
I1
sg9
I1
sg10
I1
sg11
I0
sg12
I0
sg14
F3.28
ssI1284
(dp406
g2
F20.25
sg3
I2673
sg4
I2
sg5
F13.0
sg6
I2
sg7
I2
sg8
I3
sg9
I0
sg10
I2
sg11
I0
sg12
I1
sg14
g13
ssI1285
(dp407
g2
F10.5
sg3
I30769
sg4
I0
sg5
F47.0
sg6
I2
sg7
I0
sg8
I2
sg9
I0
sg10
I0
sg11
I0
sg12
I1
sg14
g13
ssI1286
(dp408
g2
F22.025
sg3
I315153
sg4
I0
sg5
F29.0
sg6
I2
sg7
I1
sg8
I3
sg9
I0
sg10
I4
sg11
I3
sg12
g13
sg14
g13
ssI1287
(dp409
g2
F60.0
sg3
I13695
sg4
I1
sg5
F18.0
sg6
I2
sg7
I0
sg8
I1
sg9
I1
sg10
I1
sg11
I1
sg12
g13
sg14
F2.31
ssI1288
(dp410
g2
F7.25
sg3
I371109
sg4
I0
sg5
F24.0
sg6
I1
sg7
I0
sg8
I3
sg9
I0
sg10
I0
sg11
I0
sg12
g13
sg14
g13
ssI1289
(dp411
g2
F79.2
sg3
I13567
sg4
I1
sg5
F48.0
sg6
I0
sg7
I1
sg8
I1
sg9
I1
sg10
I2
sg11
I1
sg12
g13
sg14
F1.41
ssI1290
(dp412
g2
F7.775
sg3
I347065
sg4
I0
sg5
F22.0
sg6
I2
sg7
I0
sg8
I3
sg9
I0
sg10
I0
sg11
I0
sg12
g13
sg14
g13
ssI1291
(dp413
g2
F7.7333
sg3
I21332
sg4
I0
sg5
F31.0
sg6
I1
sg7
I0
sg8
I3
sg9
I0
sg10
I0
sg11
I0
sg12
g13
sg14
g13
ssI1292
(dp414
g2
F164.8667
sg3
I36928
sg4
I3
sg5
F30.0
sg6
I2
sg7
I0
sg8
I1
sg9
I1
sg10
I0
sg11
I0
sg12
g13
sg14
F2.7
ssI1293
(dp415
g2
F21.0
sg3
I28664
sg4
I0
sg5
F38.0
sg6
I2
sg7
I0
sg8
I2
sg9
I0
sg10
I1
sg11
I1
sg12
g13
sg14
g13
ssI1294
(dp416
g2
F59.4
sg3
I112378
sg4
I3
sg5
F22.0
sg6
I0
sg7
I1
sg8
I1
sg9
I1
sg10
I1
sg11
I0
sg12
g13
sg14
g13
ssI1295
(dp417
g2
F47.1
sg3
I113059
sg4
I0
sg5
F17.0
sg6
I2
sg7
I0
sg8
I1
sg9
I0
sg10
I0
sg11
I0
sg12
g13
sg14
g13
ssI1296
(dp418
g2
F27.7208
sg3
I17765
sg4
I0
sg5
F43.0
sg6
I0
sg7
I0
sg8
I1
sg9
I0
sg10
I1
sg11
I1
sg12
g13
sg14
F3.4
ssI1297
(dp419
g2
F13.8625
sg3
I2166
sg4
I0
sg5
F20.0
sg6
I0
sg7
I0
sg8
I2
sg9
I0
sg10
I0
sg11
I0
sg12
I6
sg14
F3.38
ssI1298
(dp420
g2
F10.5
sg3
I28666
sg4
I0
sg5
F23.0
sg6
I2
sg7
I0
sg8
I2
sg9
I0
sg10
I1
sg11
I1
sg12
g13
sg14
g13
ssI1299
(dp421
g2
F211.5
sg3
I113503
sg4
I0
sg5
F50.0
sg6
I0
sg7
I1
sg8
I1
sg9
I0
sg10
I2
sg11
I1
sg12
g13
sg14
F2.8
ssI1300
(dp422
g2
F7.7208
sg3
I334915
sg4
I3
sg5
g13
sg6
I1
sg7
I0
sg8
I3
sg9
I1
sg10
I0
sg11
I0
sg12
g13
sg14
g13
ssI1301
(dp423
g2
F13.775
sg3
I3101315
sg4
I3
sg5
F3.0
sg6
I2
sg7
I1
sg8
I3
sg9
I1
sg10
I2
sg11
I1
sg12
I3
sg14
g13
ssI1302
(dp424
g2
F7.75
sg3
I365237
sg4
I3
sg5
g13
sg6
I1
sg7
I0
sg8
I3
sg9
I1
sg10
I0
sg11
I0
sg12
g13
sg14
g13
ssI1303
(dp425
g2
F90.0
sg3
I19928
sg4
I1
sg5
F37.0
sg6
I1
sg7
I0
sg8
I1
sg9
I1
sg10
I1
sg11
I1
sg12
g13
sg14
F2.78
ssI1304
(dp426
g2
F7.775
sg3
I347086
sg4
I3
sg5
F28.0
sg6
I2
sg7
I0
sg8
I3
sg9
I1
sg10
I0
sg11
I0
sg12
g13
sg14
g13
ssI1305
(dp427
g2
F8.05
sg3
I3236
sg4
I0
sg5
g13
sg6
I2
sg7
I0
sg8
I3
sg9
I0
sg10
I0
sg11
I0
sg12
I6
sg14
g13
ssI1306
(dp428
g2
F108.9
sg3
I17758
sg4
I4
sg5
F39.0
sg6
I0
sg7
I0
sg8
I1
sg9
I1
sg10
I0
sg11
I0
sg12
I0
sg14
F2.105
ssI1307
(dp429
g2
F7.25
sg3
I3101262
sg4
I0
sg5
F38.5
sg6
I2
sg7
I0
sg8
I3
sg9
I0
sg10
I0
sg11
I0
sg12
I3
sg14
g13
ssI1308
(dp430
g2
F8.05
sg3
I359309
sg4
I0
sg5
g13
sg6
I2
sg7
I0
sg8
I3
sg9
I0
sg10
I0
sg11
I0
sg12
g13
sg14
g13
ssI1309
(dp431
g2
F22.3583
sg3
I2668
sg4
I2
sg5
g13
sg6
I0
sg7
I1
sg8
I3
sg9
I0
sg10
I2
sg11
I1
sg12
g13
sg14
g13
ss.