(dp0
I1
(dp1
S'Fare'
p2
F7.25
sS'Title'
p3
I0
sS'Age'
p4
F22.0
sS'Embarked'
p5
I2
sS'Parch'
p6
I0
sS'Pclass'
p7
I2
sS'Sex'
p8
I0
sS'Survived'
p9
I0
sS'Family_size'
p10
I1
sS'SibSp'
p11
I1
sS'Ticket'
p12
S'A/5 21171'
p13
sS'Cabin'
p14
S'NaN'
p15
ssI2
(dp16
g2
F71.2833
sg3
F0.333333
sg4
F38.0
sg5
I0
sg6
I0
sg7
I0
sg8
I1
sg9
I1
sg10
I1
sg11
I1
sg12
S'PC 17599'
p17
sg14
S'C85'
p18
ssI3
(dp19
g2
F7.925
sg3
I1
sg4
F26.0
sg5
I2
sg6
I0
sg7
I2
sg8
I1
sg9
I1
sg10
I0
sg11
I0
sg12
S'STON/O2. 3101282'
p20
sg14
g15
ssI4
(dp21
g2
F53.1
sg3
F0.333333
sg4
F35.0
sg5
I2
sg6
I0
sg7
I0
sg8
I1
sg9
I1
sg10
I1
sg11
I1
sg12
S'113803'
p22
sg14
S'C123'
p23
ssI5
(dp24
g2
F8.05
sg3
I0
sg4
F35.0
sg5
I2
sg6
I0
sg7
I2
sg8
I0
sg9
I0
sg10
I0
sg11
I0
sg12
S'373450'
p25
sg14
g15
ssI6
(dp26
g2
F8.4583
sg3
I0
sg4
g15
sg5
I1
sg6
I0
sg7
I2
sg8
I0
sg9
I0
sg10
I0
sg11
I0
sg12
S'330877'
p27
sg14
g15
ssI7
(dp28
g2
F51.8625
sg3
I0
sg4
F54.0
sg5
I2
sg6
I0
sg7
I0
sg8
I0
sg9
I0
sg10
I0
sg11
I0
sg12
S'17463'
p29
sg14
S'E46'
p30
ssI8
(dp31
g2
F21.075
sg3
F0.666666
sg4
F2.0
sg5
I2
sg6
I1
sg7
I2
sg8
I0
sg9
I0
sg10
I4
sg11
I3
sg12
S'349909'
p32
sg14
g15
ssI9
(dp33
g2
F11.1333
sg3
F0.333333
sg4
F27.0
sg5
I2
sg6
I2
sg7
I2
sg8
I1
sg9
I1
sg10
I2
sg11
I0
sg12
S'347742'
p34
sg14
g15
ssI10
(dp35
g2
F30.0708
sg3
F0.333333
sg4
F14.0
sg5
I0
sg6
I0
sg7
I1
sg8
I1
sg9
I1
sg10
I1
sg11
I1
sg12
S'237736'
p36
sg14
g15
ssI11
(dp37
g2
F16.7
sg3
I1
sg4
F4.0
sg5
I2
sg6
I1
sg7
I2
sg8
I1
sg9
I1
sg10
I2
sg11
I1
sg12
S'PP 9549'
p38
sg14
S'G6'
p39
ssI12
(dp40
g2
F26.55
sg3
I1
sg4
F58.0
sg5
I2
sg6
I0
sg7
I0
sg8
I1
sg9
I1
sg10
I0
sg11
I0
sg12
S'113783'
p41
sg14
S'C103'
p42
ssI13
(dp43
g2
F8.05
sg3
I0
sg4
F20.0
sg5
I2
sg6
I0
sg7
I2
sg8
I0
sg9
I0
sg10
I0
sg11
I0
sg12
S'A/5. 2151'
p44
sg14
g15
ssI14
(dp45
g2
F31.275
sg3
I0
sg4
F39.0
sg5
I2
sg6
I5
sg7
I2
sg8
I0
sg9
I0
sg10
I6
sg11
I1
sg12
S'347082'
p46
sg14
g15
ssI15
(dp47
g2
F7.8542
sg3
I1
sg4
F14.0
sg5
I2
sg6
I0
sg7
I2
sg8
I1
sg9
I0
sg10
I0
sg11
I0
sg12
S'350406'
p48
sg14
g15
ssI16
(dp49
g2
F16.0
sg3
F0.333333
sg4
F55.0
sg5
I2
sg6
I0
sg7
I1
sg8
I1
sg9
I1
sg10
I0
sg11
I0
sg12
S'248706'
p50
sg14
g15
ssI17
(dp51
g2
F29.125
sg3
F0.666666
sg4
F2.0
sg5
I1
sg6
I1
sg7
I2
sg8
I0
sg9
I0
sg10
I5
sg11
I4
sg12
S'382652'
p52
sg14
g15
ssI18
(dp53
g2
F13.0
sg3
I0
sg4
g15
sg5
I2
sg6
I0
sg7
I1
sg8
I0
sg9
I1
sg10
I0
sg11
I0
sg12
S'244373'
p54
sg14
g15
ssI19
(dp55
g2
F18.0
sg3
I4
sg4
F31.0
sg5
I2
sg6
I0
sg7
I2
sg8
I1
sg9
I0
sg10
I1
sg11
I1
sg12
S'345763'
p56
sg14
g15
ssI20
(dp57
g2
F7.225
sg3
F0.333333
sg4
g15
sg5
I0
sg6
I0
sg7
I2
sg8
I1
sg9
I1
sg10
I0
sg11
I0
sg12
S'2649'
p58
sg14
g15
ssI21
(dp59
g2
F26.0
sg3
I0
sg4
F35.0
sg5
I2
sg6
I0
sg7
I1
sg8
I0
sg9
I0
sg10
I0
sg11
I0
sg12
S'239865'
p60
sg14
g15
ssI22
(dp61
g2
F13.0
sg3
I0
sg4
F34.0
sg5
I2
sg6
I0
sg7
I1
sg8
I0
sg9
I1
sg10
I0
sg11
I0
sg12
S'248698'
p62
sg14
S'D56'
p63
ssI23
(dp64
g2
F8.0292
sg3
I1
sg4
F15.0
sg5
I1
sg6
I0
sg7
I2
sg8
I1
sg9
I1
sg10
I0
sg11
I0
sg12
S'330923'
p65
sg14
g15
ssI24
(dp66
g2
F35.5
sg3
I0
sg4
F28.0
sg5
I2
sg6
I0
sg7
I0
sg8
I0
sg9
I1
sg10
I0
sg11
I0
sg12
S'113788'
p67
sg14
S'A6'
p68
ssI25
(dp69
g2
F21.075
sg3
I1
sg4
F8.0
sg5
I2
sg6
I1
sg7
I2
sg8
I1
sg9
I0
sg10
I4
sg11
I3
sg12
S'349909'
p70
sg14
g15
ssI26
(dp71
g2
F31.3875
sg3
F0.333333
sg4
F38.0
sg5
I2
sg6
I5
sg7
I2
sg8
I1
sg9
I1
sg10
I6
sg11
I1
sg12
S'347077'
p72
sg14
g15
ssI27
(dp73
g2
F7.225
sg3
I0
sg4
g15
sg5
I0
sg6
I0
sg7
I2
sg8
I0
sg9
I0
sg10
I0
sg11
I0
sg12
S'2631'
p74
sg14
g15
ssI28
(dp75
g2
F263.0
sg3
I0
sg4
F19.0
sg5
I2
sg6
I2
sg7
I0
sg8
I0
sg9
I0
sg10
I5
sg11
I3
sg12
S'19950'
p76
sg14
S'C23 C25 C27'
p77
ssI29
(dp78
g2
F7.8792
sg3
I1
sg4
g15
sg5
I1
sg6
I0
sg7
I2
sg8
I1
sg9
I1
sg10
I0
sg11
I0
sg12
S'330959'
p79
sg14
g15
ssI30
(dp80
g2
F7.8958
sg3
I0
sg4
g15
sg5
I2
sg6
I0
sg7
I2
sg8
I0
sg9
I0
sg10
I0
sg11
I0
sg12
S'349216'
p81
sg14
g15
ssI31
(dp82
g2
F27.7208
sg3
I4
sg4
F40.0
sg5
I0
sg6
I0
sg7
I0
sg8
I0
sg9
I0
sg10
I0
sg11
I0
sg12
S'PC 17601'
p83
sg14
g15
ssI32
(dp84
g2
F146.5208
sg3
F0.333333
sg4
g15
sg5
I0
sg6
I0
sg7
I0
sg8
I1
sg9
I1
sg10
I1
sg11
I1
sg12
S'PC 17569'
p85
sg14
S'B78'
p86
ssI33
(dp87
g2
F7.75
sg3
I1
sg4
g15
sg5
I1
sg6
I0
sg7
I2
sg8
I1
sg9
I1
sg10
I0
sg11
I0
sg12
S'335677'
p88
sg14
g15
ssI34
(dp89
g2
F10.5
sg3
I0
sg4
F66.0
sg5
I2
sg6
I0
sg7
I1
sg8
I0
sg9
I0
sg10
I0
sg11
I0
sg12
S'C.A. 24579'
p90
sg14
g15
ssI35
(dp91
g2
F82.1708
sg3
I0
sg4
F28.0
sg5
I0
sg6
I0
sg7
I0
sg8
I0
sg9
I0
sg10
I1
sg11
I1
sg12
S'PC 17604'
p92
sg14
g15
ssI36
(dp93
g2
F52.0
sg3
I0
sg4
F42.0
sg5
I2
sg6
I0
sg7
I0
sg8
I0
sg9
I0
sg10
I1
sg11
I1
sg12
S'113789'
p94
sg14
g15
ssI37
(dp95
g2
F7.2292
sg3
I0
sg4
g15
sg5
I0
sg6
I0
sg7
I2
sg8
I0
sg9
I1
sg10
I0
sg11
I0
sg12
S'2677'
p96
sg14
g15
ssI38
(dp97
g2
F8.05
sg3
I0
sg4
F21.0
sg5
I2
sg6
I0
sg7
I2
sg8
I0
sg9
I0
sg10
I0
sg11
I0
sg12
S'A./5. 2152'
p98
sg14
g15
ssI39
(dp99
g2
F18.0
sg3
I4
sg4
F18.0
sg5
I2
sg6
I0
sg7
I2
sg8
I1
sg9
I0
sg10
I2
sg11
I2
sg12
S'345764'
p100
sg14
g15
ssI40
(dp101
g2
F11.2417
sg3
I1
sg4
F14.0
sg5
I0
sg6
I0
sg7
I2
sg8
I1
sg9
I1
sg10
I1
sg11
I1
sg12
S'2651'
p102
sg14
g15
ssI41
(dp103
g2
F9.475
sg3
F0.333333
sg4
F40.0
sg5
I2
sg6
I0
sg7
I2
sg8
I1
sg9
I0
sg10
I1
sg11
I1
sg12
S'7546'
p104
sg14
g15
ssI42
(dp105
g2
F21.0
sg3
F0.333333
sg4
F27.0
sg5
I2
sg6
I0
sg7
I1
sg8
I1
sg9
I0
sg10
I1
sg11
I1
sg12
S'11668'
p106
sg14
g15
ssI43
(dp107
g2
F7.8958
sg3
I0
sg4
g15
sg5
I0
sg6
I0
sg7
I2
sg8
I0
sg9
I0
sg10
I0
sg11
I0
sg12
S'349253'
p108
sg14
g15
ssI44
(dp109
g2
F41.5792
sg3
I1
sg4
F3.0
sg5
I0
sg6
I2
sg7
I1
sg8
I1
sg9
I1
sg10
I3
sg11
I1
sg12
S'SC/Paris 2123'
p110
sg14
g15
ssI45
(dp111
g2
F7.8792
sg3
I1
sg4
F19.0
sg5
I1
sg6
I0
sg7
I2
sg8
I1
sg9
I1
sg10
I0
sg11
I0
sg12
S'330958'
p112
sg14
g15
ssI46
(dp113
g2
F8.05
sg3
I0
sg4
g15
sg5
I2
sg6
I0
sg7
I2
sg8
I0
sg9
I0
sg10
I0
sg11
I0
sg12
S'S.C./A.4. 23567'
p114
sg14
g15
ssI47
(dp115
g2
F15.5
sg3
I0
sg4
g15
sg5
I1
sg6
I0
sg7
I2
sg8
I0
sg9
I0
sg10
I1
sg11
I1
sg12
S'370371'
p116
sg14
g15
ssI48
(dp117
g2
F7.75
sg3
I1
sg4
g15
sg5
I1
sg6
I0
sg7
I2
sg8
I1
sg9
I1
sg10
I0
sg11
I0
sg12
S'14311'
p118
sg14
g15
ssI49
(dp119
g2
F21.6792
sg3
I0
sg4
g15
sg5
I0
sg6
I0
sg7
I2
sg8
I0
sg9
I0
sg10
I2
sg11
I2
sg12
S'2662'
p120
sg14
g15
ssI50
(dp121
g2
F17.8
sg3
F0.333333
sg4
F18.0
sg5
I2
sg6
I0
sg7
I2
sg8
I1
sg9
I0
sg10
I1
sg11
I1
sg12
S'349237'
p122
sg14
g15
ssI51
(dp123
g2
F39.6875
sg3
F0.666666
sg4
F7.0
sg5
I2
sg6
I1
sg7
I2
sg8
I0
sg9
I0
sg10
I5
sg11
I4
sg12
S'3101295'
p124
sg14
g15
ssI52
(dp125
g2
F7.8
sg3
I0
sg4
F21.0
sg5
I2
sg6
I0
sg7
I2
sg8
I0
sg9
I0
sg10
I0
sg11
I0
sg12
S'A/4. 39886'
p126
sg14
g15
ssI53
(dp127
g2
F76.7292
sg3
F0.333333
sg4
F49.0
sg5
I0
sg6
I0
sg7
I0
sg8
I1
sg9
I1
sg10
I1
sg11
I1
sg12
S'PC 17572'
p128
sg14
S'D33'
p129
ssI54
(dp130
g2
F26.0
sg3
F0.333333
sg4
F29.0
sg5
I2
sg6
I0
sg7
I1
sg8
I1
sg9
I1
sg10
I1
sg11
I1
sg12
S'2926'
p131
sg14
g15
ssI55
(dp132
g2
F61.9792
sg3
I0
sg4
F65.0
sg5
I0
sg6
I1
sg7
I0
sg8
I0
sg9
I0
sg10
I1
sg11
I0
sg12
S'113509'
p133
sg14
S'B30'
p134
ssI56
(dp135
g2
F35.5
sg3
I0
sg4
g15
sg5
I2
sg6
I0
sg7
I0
sg8
I0
sg9
I1
sg10
I0
sg11
I0
sg12
S'19947'
p136
sg14
S'C52'
p137
ssI57
(dp138
g2
F10.5
sg3
I1
sg4
F21.0
sg5
I2
sg6
I0
sg7
I1
sg8
I1
sg9
I1
sg10
I0
sg11
I0
sg12
S'C.A. 31026'
p139
sg14
g15
ssI58
(dp140
g2
F7.2292
sg3
I0
sg4
F28.5
sg5
I0
sg6
I0
sg7
I2
sg8
I0
sg9
I0
sg10
I0
sg11
I0
sg12
S'2697'
p141
sg14
g15
ssI59
(dp142
g2
F27.75
sg3
I1
sg4
F5.0
sg5
I2
sg6
I2
sg7
I1
sg8
I1
sg9
I1
sg10
I3
sg11
I1
sg12
S'C.A. 34651'
p143
sg14
g15
ssI60
(dp144
g2
F46.9
sg3
F0.666666
sg4
F11.0
sg5
I2
sg6
I2
sg7
I2
sg8
I0
sg9
I0
sg10
I7
sg11
I5
sg12
S'CA 2144'
p145
sg14
g15
ssI61
(dp146
g2
F7.2292
sg3
I0
sg4
F22.0
sg5
I0
sg6
I0
sg7
I2
sg8
I0
sg9
I0
sg10
I0
sg11
I0
sg12
S'2669'
p147
sg14
g15
ssI62
(dp148
g2
F80.0
sg3
I1
sg4
F38.0
sg5
g15
sg6
I0
sg7
I0
sg8
I1
sg9
I1
sg10
I0
sg11
I0
sg12
S'113572'
p149
sg14
S'B28'
p150
ssI63
(dp151
g2
F83.475
sg3
I0
sg4
F45.0
sg5
I2
sg6
I0
sg7
I0
sg8
I0
sg9
I0
sg10
I1
sg11
I1
sg12
S'36973'
p152
sg14
S'C83'
p153
ssI64
(dp154
g2
F27.9
sg3
F0.666666
sg4
F4.0
sg5
I2
sg6
I2
sg7
I2
sg8
I0
sg9
I0
sg10
I5
sg11
I3
sg12
S'347088'
p155
sg14
g15
ssI65
(dp156
g2
F27.7208
sg3
I0
sg4
g15
sg5
I0
sg6
I0
sg7
I0
sg8
I0
sg9
I0
sg10
I0
sg11
I0
sg12
S'PC 17605'
p157
sg14
g15
ssI66
(dp158
g2
F15.2458
sg3
F0.666666
sg4
g15
sg5
I0
sg6
I1
sg7
I2
sg8
I0
sg9
I1
sg10
I2
sg11
I1
sg12
S'2661'
p159
sg14
g15
ssI67
(dp160
g2
F10.5
sg3
F0.333333
sg4
F29.0
sg5
I2
sg6
I0
sg7
I1
sg8
I1
sg9
I1
sg10
I0
sg11
I0
sg12
S'C.A. 29395'
p161
sg14
S'F33'
p162
ssI68
(dp163
g2
F8.1583
sg3
I0
sg4
F19.0
sg5
I2
sg6
I0
sg7
I2
sg8
I0
sg9
I0
sg10
I0
sg11
I0
sg12
S'S.P. 3464'
p164
sg14
g15
ssI69
(dp165
g2
F7.925
sg3
I1
sg4
F17.0
sg5
I2
sg6
I2
sg7
I2
sg8
I1
sg9
I1
sg10
I6
sg11
I4
sg12
S'3101281'
p166
sg14
g15
ssI70
(dp167
g2
F8.6625
sg3
I0
sg4
F26.0
sg5
I2
sg6
I0
sg7
I2
sg8
I0
sg9
I0
sg10
I2
sg11
I2
sg12
S'315151'
p168
sg14
g15
ssI71
(dp169
g2
F10.5
sg3
I0
sg4
F32.0
sg5
I2
sg6
I0
sg7
I1
sg8
I0
sg9
I0
sg10
I0
sg11
I0
sg12
S'C.A. 33111'
p170
sg14
g15
ssI72
(dp171
g2
F46.9
sg3
I1
sg4
F16.0
sg5
I2
sg6
I2
sg7
I2
sg8
I1
sg9
I0
sg10
I7
sg11
I5
sg12
S'CA 2144'
p172
sg14
g15
ssI73
(dp173
g2
F73.5
sg3
I0
sg4
F21.0
sg5
I2
sg6
I0
sg7
I1
sg8
I0
sg9
I0
sg10
I0
sg11
I0
sg12
S'S.O.C. 14879'
p174
sg14
g15
ssI74
(dp175
g2
F14.4542
sg3
I0
sg4
F26.0
sg5
I0
sg6
I0
sg7
I2
sg8
I0
sg9
I0
sg10
I1
sg11
I1
sg12
S'2680'
p176
sg14
g15
ssI75
(dp177
g2
F56.4958
sg3
I0
sg4
F32.0
sg5
I2
sg6
I0
sg7
I2
sg8
I0
sg9
I1
sg10
I0
sg11
I0
sg12
S'1601'
p178
sg14
g15
ssI76
(dp179
g2
F7.65
sg3
I0
sg4
F25.0
sg5
I2
sg6
I0
sg7
I2
sg8
I0
sg9
I0
sg10
I0
sg11
I0
sg12
S'348123'
p180
sg14
S'F G73'
p181
ssI77
(dp182
g2
F7.8958
sg3
I0
sg4
g15
sg5
I2
sg6
I0
sg7
I2
sg8
I0
sg9
I0
sg10
I0
sg11
I0
sg12
S'349208'
p183
sg14
g15
ssI78
(dp184
g2
F8.05
sg3
I0
sg4
g15
sg5
I2
sg6
I0
sg7
I2
sg8
I0
sg9
I0
sg10
I0
sg11
I0
sg12
S'374746'
p185
sg14
g15
ssI79
(dp186
g2
F29.0
sg3
F0.666666
sg4
F0.83
sg5
I2
sg6
I2
sg7
I1
sg8
I0
sg9
I1
sg10
I2
sg11
I0
sg12
S'248738'
p187
sg14
g15
ssI80
(dp188
g2
F12.475
sg3
I1
sg4
F30.0
sg5
I2
sg6
I0
sg7
I2
sg8
I1
sg9
I1
sg10
I0
sg11
I0
sg12
S'364516'
p189
sg14
g15
ssI81
(dp190
g2
F9.0
sg3
I0
sg4
F22.0
sg5
I2
sg6
I0
sg7
I2
sg8
I0
sg9
I0
sg10
I0
sg11
I0
sg12
S'345767'
p191
sg14
g15
ssI82
(dp192
g2
F9.5
sg3
I0
sg4
F29.0
sg5
I2
sg6
I0
sg7
I2
sg8
I0
sg9
I1
sg10
I0
sg11
I0
sg12
S'345779'
p193
sg14
g15
ssI83
(dp194
g2
F7.7875
sg3
I1
sg4
g15
sg5
I1
sg6
I0
sg7
I2
sg8
I1
sg9
I1
sg10
I0
sg11
I0
sg12
S'330932'
p195
sg14
g15
ssI84
(dp196
g2
F47.1
sg3
I0
sg4
F28.0
sg5
I2
sg6
I0
sg7
I0
sg8
I0
sg9
I0
sg10
I0
sg11
I0
sg12
S'113059'
p197
sg14
g15
ssI85
(dp198
g2
F10.5
sg3
I1
sg4
F17.0
sg5
I2
sg6
I0
sg7
I1
sg8
I1
sg9
I1
sg10
I0
sg11
I0
sg12
S'SO/C 14885'
p199
sg14
g15
ssI86
(dp200
g2
F15.85
sg3
F0.333333
sg4
F33.0
sg5
I2
sg6
I0
sg7
I2
sg8
I1
sg9
I1
sg10
I3
sg11
I3
sg12
S'3101278'
p201
sg14
g15
ssI87
(dp202
g2
F34.375
sg3
I0
sg4
F16.0
sg5
I2
sg6
I3
sg7
I2
sg8
I0
sg9
I0
sg10
I4
sg11
I1
sg12
S'W./C. 6608'
p203
sg14
g15
ssI88
(dp204
g2
F8.05
sg3
I0
sg4
g15
sg5
I2
sg6
I0
sg7
I2
sg8
I0
sg9
I0
sg10
I0
sg11
I0
sg12
S'SOTON/OQ 392086'
p205
sg14
g15
ssI89
(dp206
g2
F263.0
sg3
I1
sg4
F23.0
sg5
I2
sg6
I2
sg7
I0
sg8
I1
sg9
I1
sg10
I5
sg11
I3
sg12
S'19950'
p207
sg14
S'C23 C25 C27'
p208
ssI90
(dp209
g2
F8.05
sg3
I0
sg4
F24.0
sg5
I2
sg6
I0
sg7
I2
sg8
I0
sg9
I0
sg10
I0
sg11
I0
sg12
S'343275'
p210
sg14
g15
ssI91
(dp211
g2
F8.05
sg3
I0
sg4
F29.0
sg5
I2
sg6
I0
sg7
I2
sg8
I0
sg9
I0
sg10
I0
sg11
I0
sg12
S'343276'
p212
sg14
g15
ssI92
(dp213
g2
F7.8542
sg3
I0
sg4
F20.0
sg5
I2
sg6
I0
sg7
I2
sg8
I0
sg9
I0
sg10
I0
sg11
I0
sg12
S'347466'
p214
sg14
g15
ssI93
(dp215
g2
F61.175
sg3
I0
sg4
F46.0
sg5
I2
sg6
I0
sg7
I0
sg8
I0
sg9
I0
sg10
I1
sg11
I1
sg12
S'W.E.P. 5734'
p216
sg14
S'E31'
p217
ssI94
(dp218
g2
F20.575
sg3
I0
sg4
F26.0
sg5
I2
sg6
I2
sg7
I2
sg8
I0
sg9
I0
sg10
I3
sg11
I1
sg12
S'C.A. 2315'
p219
sg14
g15
ssI95
(dp220
g2
F7.25
sg3
I0
sg4
F59.0
sg5
I2
sg6
I0
sg7
I2
sg8
I0
sg9
I0
sg10
I0
sg11
I0
sg12
S'364500'
p221
sg14
g15
ssI96
(dp222
g2
F8.05
sg3
I0
sg4
g15
sg5
I2
sg6
I0
sg7
I2
sg8
I0
sg9
I0
sg10
I0
sg11
I0
sg12
S'374910'
p223
sg14
g15
ssI97
(dp224
g2
F34.6542
sg3
I0
sg4
F71.0
sg5
I0
sg6
I0
sg7
I0
sg8
I0
sg9
I0
sg10
I0
sg11
I0
sg12
S'PC 17754'
p225
sg14
S'A5'
p226
ssI98
(dp227
g2
F63.3583
sg3
I0
sg4
F23.0
sg5
I0
sg6
I1
sg7
I0
sg8
I0
sg9
I1
sg10
I1
sg11
I0
sg12
S'PC 17759'
p228
sg14
S'D10 D12'
p229
ssI99
(dp230
g2
F23.0
sg3
F0.333333
sg4
F34.0
sg5
I2
sg6
I1
sg7
I1
sg8
I1
sg9
I1
sg10
I1
sg11
I0
sg12
S'231919'
p231
sg14
g15
ssI100
(dp232
g2
F26.0
sg3
I0
sg4
F34.0
sg5
I2
sg6
I0
sg7
I1
sg8
I0
sg9
I0
sg10
I1
sg11
I1
sg12
S'244367'
p233
sg14
g15
ssI101
(dp234
g2
F7.8958
sg3
I1
sg4
F28.0
sg5
I2
sg6
I0
sg7
I2
sg8
I1
sg9
I0
sg10
I0
sg11
I0
sg12
S'349245'
p235
sg14
g15
ssI102
(dp236
g2
F7.8958
sg3
I0
sg4
g15
sg5
I2
sg6
I0
sg7
I2
sg8
I0
sg9
I0
sg10
I0
sg11
I0
sg12
S'349215'
p237
sg14
g15
ssI103
(dp238
g2
F77.2875
sg3
I0
sg4
F21.0
sg5
I2
sg6
I1
sg7
I0
sg8
I0
sg9
I0
sg10
I1
sg11
I0
sg12
S'35281'
p239
sg14
S'D26'
p240
ssI104
(dp241
g2
F8.6542
sg3
I0
sg4
F33.0
sg5
I2
sg6
I0
sg7
I2
sg8
I0
sg9
I0
sg10
I0
sg11
I0
sg12
S'7540'
p242
sg14
g15
ssI105
(dp243
g2
F7.925
sg3
I0
sg4
F37.0
sg5
I2
sg6
I0
sg7
I2
sg8
I0
sg9
I0
sg10
I2
sg11
I2
sg12
S'3101276'
p244
sg14
g15
ssI106
(dp245
g2
F7.8958
sg3
I0
sg4
F28.0
sg5
I2
sg6
I0
sg7
I2
sg8
I0
sg9
I0
sg10
I0
sg11
I0
sg12
S'349207'
p246
sg14
g15
ssI107
(dp247
g2
F7.65
sg3
I1
sg4
F21.0
sg5
I2
sg6
I0
sg7
I2
sg8
I1
sg9
I1
sg10
I0
sg11
I0
sg12
S'343120'
p248
sg14
g15
ssI108
(dp249
g2
F7.775
sg3
I0
sg4
g15
sg5
I2
sg6
I0
sg7
I2
sg8
I0
sg9
I1
sg10
I0
sg11
I0
sg12
S'312991'
p250
sg14
g15
ssI109
(dp251
g2
F7.8958
sg3
I0
sg4
F38.0
sg5
I2
sg6
I0
sg7
I2
sg8
I0
sg9
I0
sg10
I0
sg11
I0
sg12
S'349249'
p252
sg14
g15
ssI110
(dp253
g2
F24.15
sg3
I1
sg4
g15
sg5
I1
sg6
I0
sg7
I2
sg8
I1
sg9
I1
sg10
I1
sg11
I1
sg12
S'371110'
p254
sg14
g15
ssI111
(dp255
g2
F52.0
sg3
I0
sg4
F47.0
sg5
I2
sg6
I0
sg7
I0
sg8
I0
sg9
I0
sg10
I0
sg11
I0
sg12
S'110465'
p256
sg14
S'C110'
p257
ssI112
(dp258
g2
F14.4542
sg3
I1
sg4
F14.5
sg5
I0
sg6
I0
sg7
I2
sg8
I1
sg9
I0
sg10
I1
sg11
I1
sg12
S'2665'
p259
sg14
g15
ssI113
(dp260
g2
F8.05
sg3
I0
sg4
F22.0
sg5
I2
sg6
I0
sg7
I2
sg8
I0
sg9
I0
sg10
I0
sg11
I0
sg12
S'324669'
p261
sg14
g15
ssI114
(dp262
g2
F9.825
sg3
I1
sg4
F20.0
sg5
I2
sg6
I0
sg7
I2
sg8
I1
sg9
I0
sg10
I1
sg11
I1
sg12
S'4136'
p263
sg14
g15
ssI115
(dp264
g2
F14.4583
sg3
I1
sg4
F17.0
sg5
I0
sg6
I0
sg7
I2
sg8
I1
sg9
I0
sg10
I0
sg11
I0
sg12
S'2627'
p265
sg14
g15
ssI116
(dp266
g2
F7.925
sg3
I0
sg4
F21.0
sg5
I2
sg6
I0
sg7
I2
sg8
I0
sg9
I0
sg10
I0
sg11
I0
sg12
S'STON/O 2. 3101294'
p267
sg14
g15
ssI117
(dp268
g2
F7.75
sg3
I0
sg4
F70.5
sg5
I1
sg6
I0
sg7
I2
sg8
I0
sg9
I0
sg10
I0
sg11
I0
sg12
S'370369'
p269
sg14
g15
ssI118
(dp270
g2
F21.0
sg3
I0
sg4
F29.0
sg5
I2
sg6
I0
sg7
I1
sg8
I0
sg9
I0
sg10
I1
sg11
I1
sg12
S'11668'
p271
sg14
g15
ssI119
(dp272
g2
F247.5208
sg3
I0
sg4
F24.0
sg5
I0
sg6
I1
sg7
I0
sg8
I0
sg9
I0
sg10
I1
sg11
I0
sg12
S'PC 17558'
p273
sg14
S'B58 B60'
p274
ssI120
(dp275
g2
F31.275
sg3
I1
sg4
F2.0
sg5
I2
sg6
I2
sg7
I2
sg8
I1
sg9
I0
sg10
I6
sg11
I4
sg12
S'347082'
p276
sg14
g15
ssI121
(dp277
g2
F73.5
sg3
I0
sg4
F21.0
sg5
I2
sg6
I0
sg7
I1
sg8
I0
sg9
I0
sg10
I2
sg11
I2
sg12
S'S.O.C. 14879'
p278
sg14
g15
ssI122
(dp279
g2
F8.05
sg3
I0
sg4
g15
sg5
I2
sg6
I0
sg7
I2
sg8
I0
sg9
I0
sg10
I0
sg11
I0
sg12
S'A4. 54510'
p280
sg14
g15
ssI123
(dp281
g2
F30.0708
sg3
I0
sg4
F32.5
sg5
I0
sg6
I0
sg7
I1
sg8
I0
sg9
I0
sg10
I1
sg11
I1
sg12
S'237736'
p282
sg14
g15
ssI124
(dp283
g2
F13.0
sg3
I1
sg4
F32.5
sg5
I2
sg6
I0
sg7
I1
sg8
I1
sg9
I1
sg10
I0
sg11
I0
sg12
S'27267'
p284
sg14
S'E101'
p285
ssI125
(dp286
g2
F77.2875
sg3
I0
sg4
F54.0
sg5
I2
sg6
I1
sg7
I0
sg8
I0
sg9
I0
sg10
I1
sg11
I0
sg12
S'35281'
p287
sg14
S'D26'
p288
ssI126
(dp289
g2
F11.2417
sg3
F0.666666
sg4
F12.0
sg5
I0
sg6
I0
sg7
I2
sg8
I0
sg9
I1
sg10
I1
sg11
I1
sg12
S'2651'
p290
sg14
g15
ssI127
(dp291
g2
F7.75
sg3
I0
sg4
g15
sg5
I1
sg6
I0
sg7
I2
sg8
I0
sg9
I0
sg10
I0
sg11
I0
sg12
S'370372'
p292
sg14
g15
ssI128
(dp293
g2
F7.1417
sg3
I0
sg4
F24.0
sg5
I2
sg6
I0
sg7
I2
sg8
I0
sg9
I1
sg10
I0
sg11
I0
sg12
S'C 17369'
p294
sg14
g15
ssI129
(dp295
g2
F22.3583
sg3
I1
sg4
g15
sg5
I0
sg6
I1
sg7
I2
sg8
I1
sg9
I1
sg10
I2
sg11
I1
sg12
S'2668'
p296
sg14
S'F E69'
p297
ssI130
(dp298
g2
F6.975
sg3
I0
sg4
F45.0
sg5
I2
sg6
I0
sg7
I2
sg8
I0
sg9
I0
sg10
I0
sg11
I0
sg12
S'347061'
p299
sg14
g15
ssI131
(dp300
g2
F7.8958
sg3
I0
sg4
F33.0
sg5
I0
sg6
I0
sg7
I2
sg8
I0
sg9
I0
sg10
I0
sg11
I0
sg12
S'349241'
p301
sg14
g15
ssI132
(dp302
g2
F7.05
sg3
I0
sg4
F20.0
sg5
I2
sg6
I0
sg7
I2
sg8
I0
sg9
I0
sg10
I0
sg11
I0
sg12
S'SOTON/O.Q. 3101307'
p303
sg14
g15
ssI133
(dp304
g2
F14.5
sg3
F0.333333
sg4
F47.0
sg5
I2
sg6
I0
sg7
I2
sg8
I1
sg9
I0
sg10
I1
sg11
I1
sg12
S'A/5. 3337'
p305
sg14
g15
ssI134
(dp306
g2
F26.0
sg3
F0.333333
sg4
F29.0
sg5
I2
sg6
I0
sg7
I1
sg8
I1
sg9
I1
sg10
I1
sg11
I1
sg12
S'228414'
p307
sg14
g15
ssI135
(dp308
g2
F13.0
sg3
I0
sg4
F25.0
sg5
I2
sg6
I0
sg7
I1
sg8
I0
sg9
I0
sg10
I0
sg11
I0
sg12
S'C.A. 29178'
p309
sg14
g15
ssI136
(dp310
g2
F15.0458
sg3
I0
sg4
F23.0
sg5
I0
sg6
I0
sg7
I1
sg8
I0
sg9
I0
sg10
I0
sg11
I0
sg12
S'SC/PARIS 2133'
p311
sg14
g15
ssI137
(dp312
g2
F26.2833
sg3
I1
sg4
F19.0
sg5
I2
sg6
I2
sg7
I0
sg8
I1
sg9
I1
sg10
I2
sg11
I0
sg12
S'11752'
p313
sg14
S'D47'
p314
ssI138
(dp315
g2
F53.1
sg3
I0
sg4
F37.0
sg5
I2
sg6
I0
sg7
I0
sg8
I0
sg9
I0
sg10
I1
sg11
I1
sg12
S'113803'
p316
sg14
S'C123'
p317
ssI139
(dp318
g2
F9.2167
sg3
I0
sg4
F16.0
sg5
I2
sg6
I0
sg7
I2
sg8
I0
sg9
I0
sg10
I0
sg11
I0
sg12
S'7534'
p319
sg14
g15
ssI140
(dp320
g2
F79.2
sg3
I0
sg4
F24.0
sg5
I0
sg6
I0
sg7
I0
sg8
I0
sg9
I0
sg10
I0
sg11
I0
sg12
S'PC 17593'
p321
sg14
S'B86'
p322
ssI141
(dp323
g2
F15.2458
sg3
F0.333333
sg4
g15
sg5
I0
sg6
I2
sg7
I2
sg8
I1
sg9
I0
sg10
I2
sg11
I0
sg12
S'2678'
p324
sg14
g15
ssI142
(dp325
g2
F7.75
sg3
I1
sg4
F22.0
sg5
I2
sg6
I0
sg7
I2
sg8
I1
sg9
I1
sg10
I0
sg11
I0
sg12
S'347081'
p326
sg14
g15
ssI143
(dp327
g2
F15.85
sg3
F0.333333
sg4
F24.0
sg5
I2
sg6
I0
sg7
I2
sg8
I1
sg9
I1
sg10
I1
sg11
I1
sg12
S'STON/O2. 3101279'
p328
sg14
g15
ssI144
(dp329
g2
F6.75
sg3
I0
sg4
F19.0
sg5
I1
sg6
I0
sg7
I2
sg8
I0
sg9
I0
sg10
I0
sg11
I0
sg12
S'365222'
p330
sg14
g15
ssI145
(dp331
g2
F11.5
sg3
I0
sg4
F18.0
sg5
I2
sg6
I0
sg7
I1
sg8
I0
sg9
I0
sg10
I0
sg11
I0
sg12
S'231945'
p332
sg14
g15
ssI146
(dp333
g2
F36.75
sg3
I0
sg4
F19.0
sg5
I2
sg6
I1
sg7
I1
sg8
I0
sg9
I0
sg10
I2
sg11
I1
sg12
S'C.A. 33112'
p334
sg14
g15
ssI147
(dp335
g2
F7.7958
sg3
I0
sg4
F27.0
sg5
I2
sg6
I0
sg7
I2
sg8
I0
sg9
I1
sg10
I0
sg11
I0
sg12
S'350043'
p336
sg14
g15
ssI148
(dp337
g2
F34.375
sg3
I1
sg4
F9.0
sg5
I2
sg6
I2
sg7
I2
sg8
I1
sg9
I0
sg10
I4
sg11
I2
sg12
S'W./C. 6608'
p338
sg14
g15
ssI149
(dp339
g2
F26.0
sg3
I0
sg4
F36.5
sg5
I2
sg6
I2
sg7
I1
sg8
I0
sg9
I0
sg10
I2
sg11
I0
sg12
S'230080'
p340
sg14
S'F2'
p341
ssI150
(dp342
g2
F13.0
sg3
I4
sg4
F42.0
sg5
I2
sg6
I0
sg7
I1
sg8
I0
sg9
I0
sg10
I0
sg11
I0
sg12
S'244310'
p343
sg14
g15
ssI151
(dp344
g2
F12.525
sg3
I4
sg4
F51.0
sg5
I2
sg6
I0
sg7
I1
sg8
I0
sg9
I0
sg10
I0
sg11
I0
sg12
S'S.O.P. 1166'
p345
sg14
g15
ssI152
(dp346
g2
F66.6
sg3
F0.333333
sg4
F22.0
sg5
I2
sg6
I0
sg7
I0
sg8
I1
sg9
I1
sg10
I1
sg11
I1
sg12
S'113776'
p347
sg14
S'C2'
p348
ssI153
(dp349
g2
F8.05
sg3
I0
sg4
F55.5
sg5
I2
sg6
I0
sg7
I2
sg8
I0
sg9
I0
sg10
I0
sg11
I0
sg12
S'A.5. 11206'
p350
sg14
g15
ssI154
(dp351
g2
F14.5
sg3
I4
sg4
F40.5
sg5
I2
sg6
I2
sg7
I2
sg8
I0
sg9
I0
sg10
I2
sg11
I0
sg12
S'A/5. 851'
p352
sg14
g15
ssI155
(dp353
g2
F7.3125
sg3
I0
sg4
g15
sg5
I2
sg6
I0
sg7
I2
sg8
I0
sg9
I0
sg10
I0
sg11
I0
sg12
S'Fa 265302'
p354
sg14
g15
ssI156
(dp355
g2
F61.3792
sg3
I0
sg4
F51.0
sg5
I0
sg6
I1
sg7
I0
sg8
I0
sg9
I0
sg10
I1
sg11
I0
sg12
S'PC 17597'
p356
sg14
g15
ssI157
(dp357
g2
F7.7333
sg3
I1
sg4
F16.0
sg5
I1
sg6
I0
sg7
I2
sg8
I1
sg9
I1
sg10
I0
sg11
I0
sg12
S'35851'
p358
sg14
g15
ssI158
(dp359
g2
F8.05
sg3
I0
sg4
F30.0
sg5
I2
sg6
I0
sg7
I2
sg8
I0
sg9
I0
sg10
I0
sg11
I0
sg12
S'SOTON/OQ 392090'
p360
sg14
g15
ssI159
(dp361
g2
F8.6625
sg3
I0
sg4
g15
sg5
I2
sg6
I0
sg7
I2
sg8
I0
sg9
I0
sg10
I0
sg11
I0
sg12
S'315037'
p362
sg14
g15
ssI160
(dp363
g2
F69.55
sg3
F0.666666
sg4
g15
sg5
I2
sg6
I2
sg7
I2
sg8
I0
sg9
I0
sg10
I10
sg11
I8
sg12
S'CA. 2343'
p364
sg14
g15
ssI161
(dp365
g2
F16.1
sg3
I0
sg4
F44.0
sg5
I2
sg6
I1
sg7
I2
sg8
I0
sg9
I0
sg10
I1
sg11
I0
sg12
S'371362'
p366
sg14
g15
ssI162
(dp367
g2
F15.75
sg3
F0.333333
sg4
F40.0
sg5
I2
sg6
I0
sg7
I1
sg8
I1
sg9
I1
sg10
I0
sg11
I0
sg12
S'C.A. 33595'
p368
sg14
g15
ssI163
(dp369
g2
F7.775
sg3
I0
sg4
F26.0
sg5
I2
sg6
I0
sg7
I2
sg8
I0
sg9
I0
sg10
I0
sg11
I0
sg12
S'347068'
p370
sg14
g15
ssI164
(dp371
g2
F8.6625
sg3
I0
sg4
F17.0
sg5
I2
sg6
I0
sg7
I2
sg8
I0
sg9
I0
sg10
I0
sg11
I0
sg12
S'315093'
p372
sg14
g15
ssI165
(dp373
g2
F39.6875
sg3
F0.666666
sg4
F1.0
sg5
I2
sg6
I1
sg7
I2
sg8
I0
sg9
I0
sg10
I5
sg11
I4
sg12
S'3101295'
p374
sg14
g15
ssI166
(dp375
g2
F20.525
sg3
F0.666666
sg4
F9.0
sg5
I2
sg6
I2
sg7
I2
sg8
I0
sg9
I1
sg10
I2
sg11
I0
sg12
S'363291'
p376
sg14
g15
ssI167
(dp377
g2
F55.0
sg3
F0.333333
sg4
g15
sg5
I2
sg6
I1
sg7
I0
sg8
I1
sg9
I1
sg10
I1
sg11
I0
sg12
S'113505'
p378
sg14
S'E33'
p379
ssI168
(dp380
g2
F27.9
sg3
F0.333333
sg4
F45.0
sg5
I2
sg6
I4
sg7
I2
sg8
I1
sg9
I0
sg10
I5
sg11
I1
sg12
S'347088'
p381
sg14
g15
ssI169
(dp382
g2
F25.925
sg3
I0
sg4
g15
sg5
I2
sg6
I0
sg7
I0
sg8
I0
sg9
I0
sg10
I0
sg11
I0
sg12
S'PC 17318'
p383
sg14
g15
ssI170
(dp384
g2
F56.4958
sg3
I0
sg4
F28.0
sg5
I2
sg6
I0
sg7
I2
sg8
I0
sg9
I0
sg10
I0
sg11
I0
sg12
S'1601'
p385
sg14
g15
ssI171
(dp386
g2
F33.5
sg3
I4
sg4
F61.0
sg5
I2
sg6
I0
sg7
I0
sg8
I0
sg9
I0
sg10
I0
sg11
I0
sg12
S'111240'
p387
sg14
S'B19'
p388
ssI172
(dp389
g2
F29.125
sg3
F0.666666
sg4
F4.0
sg5
I1
sg6
I1
sg7
I2
sg8
I0
sg9
I0
sg10
I5
sg11
I4
sg12
S'382652'
p390
sg14
g15
ssI173
(dp391
g2
F11.1333
sg3
I1
sg4
F1.0
sg5
I2
sg6
I1
sg7
I2
sg8
I1
sg9
I1
sg10
I2
sg11
I1
sg12
S'347742'
p392
sg14
g15
ssI174
(dp393
g2
F7.925
sg3
I0
sg4
F21.0
sg5
I2
sg6
I0
sg7
I2
sg8
I0
sg9
I0
sg10
I0
sg11
I0
sg12
S'STON/O 2. 3101280'
p394
sg14
g15
ssI175
(dp395
g2
F30.6958
sg3
I0
sg4
F56.0
sg5
I0
sg6
I0
sg7
I0
sg8
I0
sg9
I0
sg10
I0
sg11
I0
sg12
S'17764'
p396
sg14
S'A7'
p397
ssI176
(dp398
g2
F7.8542
sg3
I0
sg4
F18.0
sg5
I2
sg6
I1
sg7
I2
sg8
I0
sg9
I0
sg10
I2
sg11
I1
sg12
S'350404'
p399
sg14
g15
ssI177
(dp400
g2
F25.4667
sg3
F0.666666
sg4
g15
sg5
I2
sg6
I1
sg7
I2
sg8
I0
sg9
I0
sg10
I4
sg11
I3
sg12
S'4133'
p401
sg14
g15
ssI178
(dp402
g2
F28.7125
sg3
I1
sg4
F50.0
sg5
I0
sg6
I0
sg7
I0
sg8
I1
sg9
I0
sg10
I0
sg11
I0
sg12
S'PC 17595'
p403
sg14
S'C49'
p404
ssI179
(dp405
g2
F13.0
sg3
I0
sg4
F30.0
sg5
I2
sg6
I0
sg7
I1
sg8
I0
sg9
I0
sg10
I0
sg11
I0
sg12
S'250653'
p406
sg14
g15
ssI180
(dp407
g2
F0.0
sg3
I0
sg4
F36.0
sg5
I2
sg6
I0
sg7
I2
sg8
I0
sg9
I0
sg10
I0
sg11
I0
sg12
S'LINE'
p408
sg14
g15
ssI181
(dp409
g2
F69.55
sg3
I1
sg4
g15
sg5
I2
sg6
I2
sg7
I2
sg8
I1
sg9
I0
sg10
I10
sg11
I8
sg12
S'CA. 2343'
p410
sg14
g15
ssI182
(dp411
g2
F15.05
sg3
I0
sg4
g15
sg5
I0
sg6
I0
sg7
I1
sg8
I0
sg9
I0
sg10
I0
sg11
I0
sg12
S'SC/PARIS 2131'
p412
sg14
g15
ssI183
(dp413
g2
F31.3875
sg3
F0.666666
sg4
F9.0
sg5
I2
sg6
I2
sg7
I2
sg8
I0
sg9
I0
sg10
I6
sg11
I4
sg12
S'347077'
p414
sg14
g15
ssI184
(dp415
g2
F39.0
sg3
F0.666666
sg4
F1.0
sg5
I2
sg6
I1
sg7
I1
sg8
I0
sg9
I1
sg10
I3
sg11
I2
sg12
S'230136'
p416
sg14
S'F4'
p417
ssI185
(dp418
g2
F22.025
sg3
I1
sg4
F4.0
sg5
I2
sg6
I2
sg7
I2
sg8
I1
sg9
I1
sg10
I2
sg11
I0
sg12
S'315153'
p419
sg14
g15
ssI186
(dp420
g2
F50.0
sg3
I0
sg4
g15
sg5
I2
sg6
I0
sg7
I0
sg8
I0
sg9
I0
sg10
I0
sg11
I0
sg12
S'113767'
p421
sg14
S'A32'
p422
ssI187
(dp423
g2
F15.5
sg3
F0.333333
sg4
g15
sg5
I1
sg6
I0
sg7
I2
sg8
I1
sg9
I1
sg10
I1
sg11
I1
sg12
S'370365'
p424
sg14
g15
ssI188
(dp425
g2
F26.55
sg3
I0
sg4
F45.0
sg5
I2
sg6
I0
sg7
I0
sg8
I0
sg9
I1
sg10
I0
sg11
I0
sg12
S'111428'
p426
sg14
g15
ssI189
(dp427
g2
F15.5
sg3
I0
sg4
F40.0
sg5
I1
sg6
I1
sg7
I2
sg8
I0
sg9
I0
sg10
I2
sg11
I1
sg12
S'364849'
p428
sg14
g15
ssI190
(dp429
g2
F7.8958
sg3
I0
sg4
F36.0
sg5
I2
sg6
I0
sg7
I2
sg8
I0
sg9
I0
sg10
I0
sg11
I0
sg12
S'349247'
p430
sg14
g15
ssI191
(dp431
g2
F13.0
sg3
F0.333333
sg4
F32.0
sg5
I2
sg6
I0
sg7
I1
sg8
I1
sg9
I1
sg10
I0
sg11
I0
sg12
S'234604'
p432
sg14
g15
ssI192
(dp433
g2
F13.0
sg3
I0
sg4
F19.0
sg5
I2
sg6
I0
sg7
I1
sg8
I0
sg9
I0
sg10
I0
sg11
I0
sg12
S'28424'
p434
sg14
g15
ssI193
(dp435
g2
F7.8542
sg3
I1
sg4
F19.0
sg5
I2
sg6
I0
sg7
I2
sg8
I1
sg9
I1
sg10
I1
sg11
I1
sg12
S'350046'
p436
sg14
g15
ssI194
(dp437
g2
F26.0
sg3
F0.666666
sg4
F3.0
sg5
I2
sg6
I1
sg7
I1
sg8
I0
sg9
I1
sg10
I2
sg11
I1
sg12
S'230080'
p438
sg14
S'F2'
p439
ssI195
(dp440
g2
F27.7208
sg3
F0.333333
sg4
F44.0
sg5
I0
sg6
I0
sg7
I0
sg8
I1
sg9
I1
sg10
I0
sg11
I0
sg12
S'PC 17610'
p441
sg14
S'B4'
p442
ssI196
(dp443
g2
F146.5208
sg3
I1
sg4
F58.0
sg5
I0
sg6
I0
sg7
I0
sg8
I1
sg9
I1
sg10
I0
sg11
I0
sg12
S'PC 17569'
p444
sg14
S'B80'
p445
ssI197
(dp446
g2
F7.75
sg3
I0
sg4
g15
sg5
I1
sg6
I0
sg7
I2
sg8
I0
sg9
I0
sg10
I0
sg11
I0
sg12
S'368703'
p447
sg14
g15
ssI198
(dp448
g2
F8.4042
sg3
I0
sg4
F42.0
sg5
I2
sg6
I1
sg7
I2
sg8
I0
sg9
I0
sg10
I1
sg11
I0
sg12
S'4579'
p449
sg14
g15
ssI199
(dp450
g2
F7.75
sg3
I1
sg4
g15
sg5
I1
sg6
I0
sg7
I2
sg8
I1
sg9
I1
sg10
I0
sg11
I0
sg12
S'370370'
p451
sg14
g15
ssI200
(dp452
g2
F13.0
sg3
I1
sg4
F24.0
sg5
I2
sg6
I0
sg7
I1
sg8
I1
sg9
I0
sg10
I0
sg11
I0
sg12
S'248747'
p453
sg14
g15
ssI201
(dp454
g2
F9.5
sg3
I4
sg4
F28.0
sg5
I2
sg6
I0
sg7
I2
sg8
I0
sg9
I0
sg10
I0
sg11
I0
sg12
S'345770'
p455
sg14
g15
ssI202
(dp456
g2
F69.55
sg3
I0
sg4
g15
sg5
I2
sg6
I2
sg7
I2
sg8
I0
sg9
I0
sg10
I10
sg11
I8
sg12
S'CA. 2343'
p457
sg14
g15
ssI203
(dp458
g2
F6.4958
sg3
I0
sg4
F34.0
sg5
I2
sg6
I0
sg7
I2
sg8
I0
sg9
I0
sg10
I0
sg11
I0
sg12
S'3101264'
p459
sg14
g15
ssI204
(dp460
g2
F7.225
sg3
I0
sg4
F45.5
sg5
I0
sg6
I0
sg7
I2
sg8
I0
sg9
I0
sg10
I0
sg11
I0
sg12
S'2628'
p461
sg14
g15
ssI205
(dp462
g2
F8.05
sg3
I0
sg4
F18.0
sg5
I2
sg6
I0
sg7
I2
sg8
I0
sg9
I1
sg10
I0
sg11
I0
sg12
S'A/5 3540'
p463
sg14
g15
ssI206
(dp464
g2
F10.4625
sg3
I1
sg4
F2.0
sg5
I2
sg6
I1
sg7
I2
sg8
I1
sg9
I0
sg10
I1
sg11
I0
sg12
S'347054'
p465
sg14
S'G6'
p466
ssI207
(dp467
g2
F15.85
sg3
I0
sg4
F32.0
sg5
I2
sg6
I0
sg7
I2
sg8
I0
sg9
I0
sg10
I1
sg11
I1
sg12
S'3101278'
p468
sg14
g15
ssI208
(dp469
g2
F18.7875
sg3
I0
sg4
F26.0
sg5
I0
sg6
I0
sg7
I2
sg8
I0
sg9
I1
sg10
I0
sg11
I0
sg12
S'2699'
p470
sg14
g15
ssI209
(dp471
g2
F7.75
sg3
I1
sg4
F16.0
sg5
I1
sg6
I0
sg7
I2
sg8
I1
sg9
I1
sg10
I0
sg11
I0
sg12
S'367231'
p472
sg14
g15
ssI210
(dp473
g2
F31.0
sg3
I0
sg4
F40.0
sg5
I0
sg6
I0
sg7
I0
sg8
I0
sg9
I1
sg10
I0
sg11
I0
sg12
S'112277'
p474
sg14
S'A31'
p475
ssI211
(dp476
g2
F7.05
sg3
I0
sg4
F24.0
sg5
I2
sg6
I0
sg7
I2
sg8
I0
sg9
I0
sg10
I0
sg11
I0
sg12
S'SOTON/O.Q. 3101311'
p477
sg14
g15
ssI212
(dp478
g2
F21.0
sg3
I1
sg4
F35.0
sg5
I2
sg6
I0
sg7
I1
sg8
I1
sg9
I1
sg10
I0
sg11
I0
sg12
S'F.C.C. 13528'
p479
sg14
g15
ssI213
(dp480
g2
F7.25
sg3
I0
sg4
F22.0
sg5
I2
sg6
I0
sg7
I2
sg8
I0
sg9
I0
sg10
I0
sg11
I0
sg12
S'A/5 21174'
p481
sg14
g15
ssI214
(dp482
g2
F13.0
sg3
I0
sg4
F30.0
sg5
I2
sg6
I0
sg7
I1
sg8
I0
sg9
I0
sg10
I0
sg11
I0
sg12
S'250646'
p483
sg14
g15
ssI215
(dp484
g2
F7.75
sg3
I0
sg4
g15
sg5
I1
sg6
I0
sg7
I2
sg8
I0
sg9
I0
sg10
I1
sg11
I1
sg12
S'367229'
p485
sg14
g15
ssI216
(dp486
g2
F113.275
sg3
I1
sg4
F31.0
sg5
I0
sg6
I0
sg7
I0
sg8
I1
sg9
I1
sg10
I1
sg11
I1
sg12
S'35273'
p487
sg14
S'D36'
p488
ssI217
(dp489
g2
F7.925
sg3
I1
sg4
F27.0
sg5
I2
sg6
I0
sg7
I2
sg8
I1
sg9
I1
sg10
I0
sg11
I0
sg12
S'STON/O2. 3101283'
p490
sg14
g15
ssI218
(dp491
g2
F27.0
sg3
I0
sg4
F42.0
sg5
I2
sg6
I0
sg7
I1
sg8
I0
sg9
I0
sg10
I1
sg11
I1
sg12
S'243847'
p492
sg14
g15
ssI219
(dp493
g2
F76.2917
sg3
I1
sg4
F32.0
sg5
I0
sg6
I0
sg7
I0
sg8
I1
sg9
I1
sg10
I0
sg11
I0
sg12
S'11813'
p494
sg14
S'D15'
p495
ssI220
(dp496
g2
F10.5
sg3
I0
sg4
F30.0
sg5
I2
sg6
I0
sg7
I1
sg8
I0
sg9
I0
sg10
I0
sg11
I0
sg12
S'W/C 14208'
p497
sg14
g15
ssI221
(dp498
g2
F8.05
sg3
I0
sg4
F16.0
sg5
I2
sg6
I0
sg7
I2
sg8
I0
sg9
I1
sg10
I0
sg11
I0
sg12
S'SOTON/OQ 392089'
p499
sg14
g15
ssI222
(dp500
g2
F13.0
sg3
I0
sg4
F27.0
sg5
I2
sg6
I0
sg7
I1
sg8
I0
sg9
I0
sg10
I0
sg11
I0
sg12
S'220367'
p501
sg14
g15
ssI223
(dp502
g2
F8.05
sg3
I0
sg4
F51.0
sg5
I2
sg6
I0
sg7
I2
sg8
I0
sg9
I0
sg10
I0
sg11
I0
sg12
S'21440'
p503
sg14
g15
ssI224
(dp504
g2
F7.8958
sg3
I0
sg4
g15
sg5
I2
sg6
I0
sg7
I2
sg8
I0
sg9
I0
sg10
I0
sg11
I0
sg12
S'349234'
p505
sg14
g15
ssI225
(dp506
g2
F90.0
sg3
I0
sg4
F38.0
sg5
I2
sg6
I0
sg7
I0
sg8
I0
sg9
I1
sg10
I1
sg11
I1
sg12
S'19943'
p507
sg14
S'C93'
p508
ssI226
(dp509
g2
F9.35
sg3
I0
sg4
F22.0
sg5
I2
sg6
I0
sg7
I2
sg8
I0
sg9
I0
sg10
I0
sg11
I0
sg12
S'PP 4348'
p510
sg14
g15
ssI227
(dp511
g2
F10.5
sg3
I0
sg4
F19.0
sg5
I2
sg6
I0
sg7
I1
sg8
I0
sg9
I1
sg10
I0
sg11
I0
sg12
S'SW/PP 751'
p512
sg14
g15
ssI228
(dp513
g2
F7.25
sg3
I0
sg4
F20.5
sg5
I2
sg6
I0
sg7
I2
sg8
I0
sg9
I0
sg10
I0
sg11
I0
sg12
S'A/5 21173'
p514
sg14
g15
ssI229
(dp515
g2
F13.0
sg3
I0
sg4
F18.0
sg5
I2
sg6
I0
sg7
I1
sg8
I0
sg9
I0
sg10
I0
sg11
I0
sg12
S'236171'
p516
sg14
g15
ssI230
(dp517
g2
F25.4667
sg3
I1
sg4
g15
sg5
I2
sg6
I1
sg7
I2
sg8
I1
sg9
I0
sg10
I4
sg11
I3
sg12
S'4133'
p518
sg14
g15
ssI231
(dp519
g2
F83.475
sg3
F0.333333
sg4
F35.0
sg5
I2
sg6
I0
sg7
I0
sg8
I1
sg9
I1
sg10
I1
sg11
I1
sg12
S'36973'
p520
sg14
S'C83'
p521
ssI232
(dp522
g2
F7.775
sg3
I0
sg4
F29.0
sg5
I2
sg6
I0
sg7
I2
sg8
I0
sg9
I0
sg10
I0
sg11
I0
sg12
S'347067'
p523
sg14
g15
ssI233
(dp524
g2
F13.5
sg3
I0
sg4
F59.0
sg5
I2
sg6
I0
sg7
I1
sg8
I0
sg9
I0
sg10
I0
sg11
I0
sg12
S'237442'
p525
sg14
g15
ssI234
(dp526
g2
F31.3875
sg3
I1
sg4
F5.0
sg5
I2
sg6
I2
sg7
I2
sg8
I1
sg9
I1
sg10
I6
sg11
I4
sg12
S'347077'
p527
sg14
g15
ssI235
(dp528
g2
F10.5
sg3
I0
sg4
F24.0
sg5
I2
sg6
I0
sg7
I1
sg8
I0
sg9
I0
sg10
I0
sg11
I0
sg12
S'C.A. 29566'
p529
sg14
g15
ssI236
(dp530
g2
F7.55
sg3
I1
sg4
g15
sg5
I2
sg6
I0
sg7
I2
sg8
I1
sg9
I0
sg10
I0
sg11
I0
sg12
S'W./C. 6609'
p531
sg14
g15
ssI237
(dp532
g2
F26.0
sg3
I0
sg4
F44.0
sg5
I2
sg6
I0
sg7
I1
sg8
I0
sg9
I0
sg10
I1
sg11
I1
sg12
S'26707'
p533
sg14
g15
ssI238
(dp534
g2
F26.25
sg3
I1
sg4
F8.0
sg5
I2
sg6
I2
sg7
I1
sg8
I1
sg9
I1
sg10
I2
sg11
I0
sg12
S'C.A. 31921'
p535
sg14
g15
ssI239
(dp536
g2
F10.5
sg3
I0
sg4
F19.0
sg5
I2
sg6
I0
sg7
I1
sg8
I0
sg9
I0
sg10
I0
sg11
I0
sg12
S'28665'
p537
sg14
g15
ssI240
(dp538
g2
F12.275
sg3
I0
sg4
F33.0
sg5
I2
sg6
I0
sg7
I1
sg8
I0
sg9
I0
sg10
I0
sg11
I0
sg12
S'SCO/W 1585'
p539
sg14
g15
ssI241
(dp540
g2
F14.4542
sg3
I1
sg4
g15
sg5
I0
sg6
I0
sg7
I2
sg8
I1
sg9
I0
sg10
I1
sg11
I1
sg12
S'2665'
p541
sg14
g15
ssI242
(dp542
g2
F15.5
sg3
I1
sg4
g15
sg5
I1
sg6
I0
sg7
I2
sg8
I1
sg9
I1
sg10
I1
sg11
I1
sg12
S'367230'
p543
sg14
g15
ssI243
(dp544
g2
F10.5
sg3
I0
sg4
F29.0
sg5
I2
sg6
I0
sg7
I1
sg8
I0
sg9
I0
sg10
I0
sg11
I0
sg12
S'W./C. 14263'
p545
sg14
g15
ssI244
(dp546
g2
F7.125
sg3
I0
sg4
F22.0
sg5
I2
sg6
I0
sg7
I2
sg8
I0
sg9
I0
sg10
I0
sg11
I0
sg12
S'STON/O 2. 3101275'
p547
sg14
g15
ssI245
(dp548
g2
F7.225
sg3
I0
sg4
F30.0
sg5
I0
sg6
I0
sg7
I2
sg8
I0
sg9
I0
sg10
I0
sg11
I0
sg12
S'2694'
p549
sg14
g15
ssI246
(dp550
g2
F90.0
sg3
I4
sg4
F44.0
sg5
I1
sg6
I0
sg7
I0
sg8
I0
sg9
I0
sg10
I2
sg11
I2
sg12
S'19928'
p551
sg14
S'C78'
p552
ssI247
(dp553
g2
F7.775
sg3
I1
sg4
F25.0
sg5
I2
sg6
I0
sg7
I2
sg8
I1
sg9
I0
sg10
I0
sg11
I0
sg12
S'347071'
p554
sg14
g15
ssI248
(dp555
g2
F14.5
sg3
F0.333333
sg4
F24.0
sg5
I2
sg6
I2
sg7
I1
sg8
I1
sg9
I1
sg10
I2
sg11
I0
sg12
S'250649'
p556
sg14
g15
ssI249
(dp557
g2
F52.5542
sg3
I0
sg4
F37.0
sg5
I2
sg6
I1
sg7
I0
sg8
I0
sg9
I1
sg10
I2
sg11
I1
sg12
S'11751'
p558
sg14
S'D35'
p559
ssI250
(dp560
g2
F26.0
sg3
I4
sg4
F54.0
sg5
I2
sg6
I0
sg7
I1
sg8
I0
sg9
I0
sg10
I1
sg11
I1
sg12
S'244252'
p561
sg14
g15
ssI251
(dp562
g2
F7.25
sg3
I0
sg4
g15
sg5
I2
sg6
I0
sg7
I2
sg8
I0
sg9
I0
sg10
I0
sg11
I0
sg12
S'362316'
p563
sg14
g15
ssI252
(dp564
g2
F10.4625
sg3
F0.333333
sg4
F29.0
sg5
I2
sg6
I1
sg7
I2
sg8
I1
sg9
I0
sg10
I2
sg11
I1
sg12
S'347054'
p565
sg14
S'G6'
p566
ssI253
(dp567
g2
F26.55
sg3
I0
sg4
F62.0
sg5
I2
sg6
I0
sg7
I0
sg8
I0
sg9
I0
sg10
I0
sg11
I0
sg12
S'113514'
p568
sg14
S'C87'
p569
ssI254
(dp570
g2
F16.1
sg3
I0
sg4
F30.0
sg5
I2
sg6
I0
sg7
I2
sg8
I0
sg9
I0
sg10
I1
sg11
I1
sg12
S'A/5. 3336'
p571
sg14
g15
ssI255
(dp572
g2
F20.2125
sg3
F0.333333
sg4
F41.0
sg5
I2
sg6
I2
sg7
I2
sg8
I1
sg9
I0
sg10
I2
sg11
I0
sg12
S'370129'
p573
sg14
g15
ssI256
(dp574
g2
F15.2458
sg3
F0.333333
sg4
F29.0
sg5
I0
sg6
I2
sg7
I2
sg8
I1
sg9
I1
sg10
I2
sg11
I0
sg12
S'2650'
p575
sg14
g15
ssI257
(dp576
g2
F79.2
sg3
F0.333333
sg4
g15
sg5
I0
sg6
I0
sg7
I0
sg8
I1
sg9
I1
sg10
I0
sg11
I0
sg12
S'PC 17585'
p577
sg14
g15
ssI258
(dp578
g2
F86.5
sg3
I1
sg4
F30.0
sg5
I2
sg6
I0
sg7
I0
sg8
I1
sg9
I1
sg10
I0
sg11
I0
sg12
S'110152'
p579
sg14
S'B77'
p580
ssI259
(dp581
g2
F512.3292
sg3
I1
sg4
F35.0
sg5
I0
sg6
I0
sg7
I0
sg8
I1
sg9
I1
sg10
I0
sg11
I0
sg12
S'PC 17755'
p582
sg14
g15
ssI260
(dp583
g2
F26.0
sg3
F0.333333
sg4
F50.0
sg5
I2
sg6
I1
sg7
I1
sg8
I1
sg9
I1
sg10
I1
sg11
I0
sg12
S'230433'
p584
sg14
g15
ssI261
(dp585
g2
F7.75
sg3
I0
sg4
g15
sg5
I1
sg6
I0
sg7
I2
sg8
I0
sg9
I0
sg10
I0
sg11
I0
sg12
S'384461'
p586
sg14
g15
ssI262
(dp587
g2
F31.3875
sg3
F0.666666
sg4
F3.0
sg5
I2
sg6
I2
sg7
I2
sg8
I0
sg9
I1
sg10
I6
sg11
I4
sg12
S'347077'
p588
sg14
g15
ssI263
(dp589
g2
F79.65
sg3
I0
sg4
F52.0
sg5
I2
sg6
I1
sg7
I0
sg8
I0
sg9
I0
sg10
I2
sg11
I1
sg12
S'110413'
p590
sg14
S'E67'
p591
ssI264
(dp592
g2
F0.0
sg3
I0
sg4
F40.0
sg5
I2
sg6
I0
sg7
I0
sg8
I0
sg9
I0
sg10
I0
sg11
I0
sg12
S'112059'
p593
sg14
S'B94'
p594
ssI265
(dp595
g2
F7.75
sg3
I1
sg4
g15
sg5
I1
sg6
I0
sg7
I2
sg8
I1
sg9
I0
sg10
I0
sg11
I0
sg12
S'382649'
p596
sg14
g15
ssI266
(dp597
g2
F10.5
sg3
I0
sg4
F36.0
sg5
I2
sg6
I0
sg7
I1
sg8
I0
sg9
I0
sg10
I0
sg11
I0
sg12
S'C.A. 17248'
p598
sg14
g15
ssI267
(dp599
g2
F39.6875
sg3
I0
sg4
F16.0
sg5
I2
sg6
I1
sg7
I2
sg8
I0
sg9
I0
sg10
I5
sg11
I4
sg12
S'3101295'
p600
sg14
g15
ssI268
(dp601
g2
F7.775
sg3
I0
sg4
F25.0
sg5
I2
sg6
I0
sg7
I2
sg8
I0
sg9
I1
sg10
I1
sg11
I1
sg12
S'347083'
p602
sg14
g15
ssI269
(dp603
g2
F153.4625
sg3
F0.333333
sg4
F58.0
sg5
I2
sg6
I1
sg7
I0
sg8
I1
sg9
I1
sg10
I1
sg11
I0
sg12
S'PC 17582'
p604
sg14
S'C125'
p605
ssI270
(dp606
g2
F135.6333
sg3
I1
sg4
F35.0
sg5
I2
sg6
I0
sg7
I0
sg8
I1
sg9
I1
sg10
I0
sg11
I0
sg12
S'PC 17760'
p607
sg14
S'C99'
p608
ssI271
(dp609
g2
F31.0
sg3
I0
sg4
g15
sg5
I2
sg6
I0
sg7
I0
sg8
I0
sg9
I0
sg10
I0
sg11
I0
sg12
S'113798'
p610
sg14
g15
ssI272
(dp611
g2
F0.0
sg3
I0
sg4
F25.0
sg5
I2
sg6
I0
sg7
I2
sg8
I0
sg9
I1
sg10
I0
sg11
I0
sg12
S'LINE'
p612
sg14
g15
ssI273
(dp613
g2
F19.5
sg3
F0.333333
sg4
F41.0
sg5
I2
sg6
I1
sg7
I1
sg8
I1
sg9
I1
sg10
I1
sg11
I0
sg12
S'250644'
p614
sg14
g15
ssI274
(dp615
g2
F29.7
sg3
I0
sg4
F37.0
sg5
I0
sg6
I1
sg7
I0
sg8
I0
sg9
I0
sg10
I1
sg11
I0
sg12
S'PC 17596'
p616
sg14
S'C118'
p617
ssI275
(dp618
g2
F7.75
sg3
I1
sg4
g15
sg5
I1
sg6
I0
sg7
I2
sg8
I1
sg9
I1
sg10
I0
sg11
I0
sg12
S'370375'
p619
sg14
g15
ssI276
(dp620
g2
F77.9583
sg3
I1
sg4
F63.0
sg5
I2
sg6
I0
sg7
I0
sg8
I1
sg9
I1
sg10
I1
sg11
I1
sg12
S'13502'
p621
sg14
S'D7'
p622
ssI277
(dp623
g2
F7.75
sg3
I1
sg4
F45.0
sg5
I2
sg6
I0
sg7
I2
sg8
I1
sg9
I0
sg10
I0
sg11
I0
sg12
S'347073'
p624
sg14
g15
ssI278
(dp625
g2
F0.0
sg3
I0
sg4
g15
sg5
I2
sg6
I0
sg7
I1
sg8
I0
sg9
I0
sg10
I0
sg11
I0
sg12
S'239853'
p626
sg14
g15
ssI279
(dp627
g2
F29.125
sg3
F0.666666
sg4
F7.0
sg5
I1
sg6
I1
sg7
I2
sg8
I0
sg9
I0
sg10
I5
sg11
I4
sg12
S'382652'
p628
sg14
g15
ssI280
(dp629
g2
F20.25
sg3
F0.333333
sg4
F35.0
sg5
I2
sg6
I1
sg7
I2
sg8
I1
sg9
I1
sg10
I2
sg11
I1
sg12
S'C.A. 2673'
p630
sg14
g15
ssI281
(dp631
g2
F7.75
sg3
I0
sg4
F65.0
sg5
I1
sg6
I0
sg7
I2
sg8
I0
sg9
I0
sg10
I0
sg11
I0
sg12
S'336439'
p632
sg14
g15
ssI282
(dp633
g2
F7.8542
sg3
I0
sg4
F28.0
sg5
I2
sg6
I0
sg7
I2
sg8
I0
sg9
I0
sg10
I0
sg11
I0
sg12
S'347464'
p634
sg14
g15
ssI283
(dp635
g2
F9.5
sg3
I4
sg4
F16.0
sg5
I2
sg6
I0
sg7
I2
sg8
I0
sg9
I0
sg10
I0
sg11
I0
sg12
S'345778'
p636
sg14
g15
ssI284
(dp637
g2
F8.05
sg3
I0
sg4
F19.0
sg5
I2
sg6
I0
sg7
I2
sg8
I0
sg9
I1
sg10
I0
sg11
I0
sg12
S'A/5. 10482'
p638
sg14
g15
ssI285
(dp639
g2
F26.0
sg3
I0
sg4
g15
sg5
I2
sg6
I0
sg7
I0
sg8
I0
sg9
I0
sg10
I0
sg11
I0
sg12
S'113056'
p640
sg14
S'A19'
p641
ssI286
(dp642
g2
F8.6625
sg3
I0
sg4
F33.0
sg5
I0
sg6
I0
sg7
I2
sg8
I0
sg9
I0
sg10
I0
sg11
I0
sg12
S'349239'
p643
sg14
g15
ssI287
(dp644
g2
F9.5
sg3
I4
sg4
F30.0
sg5
I2
sg6
I0
sg7
I2
sg8
I0
sg9
I1
sg10
I0
sg11
I0
sg12
S'345774'
p645
sg14
g15
ssI288
(dp646
g2
F7.8958
sg3
I0
sg4
F22.0
sg5
I2
sg6
I0
sg7
I2
sg8
I0
sg9
I0
sg10
I0
sg11
I0
sg12
S'349206'
p647
sg14
g15
ssI289
(dp648
g2
F13.0
sg3
I0
sg4
F42.0
sg5
I2
sg6
I0
sg7
I1
sg8
I0
sg9
I1
sg10
I0
sg11
I0
sg12
S'237798'
p649
sg14
g15
ssI290
(dp650
g2
F7.75
sg3
I1
sg4
F22.0
sg5
I1
sg6
I0
sg7
I2
sg8
I1
sg9
I1
sg10
I0
sg11
I0
sg12
S'370373'
p651
sg14
g15
ssI291
(dp652
g2
F78.85
sg3
I1
sg4
F26.0
sg5
I2
sg6
I0
sg7
I0
sg8
I1
sg9
I1
sg10
I0
sg11
I0
sg12
S'19877'
p653
sg14
g15
ssI292
(dp654
g2
F91.0792
sg3
F0.333333
sg4
F19.0
sg5
I0
sg6
I0
sg7
I0
sg8
I1
sg9
I1
sg10
I1
sg11
I1
sg12
S'11967'
p655
sg14
S'B49'
p656
ssI293
(dp657
g2
F12.875
sg3
I0
sg4
F36.0
sg5
I0
sg6
I0
sg7
I1
sg8
I0
sg9
I0
sg10
I0
sg11
I0
sg12
S'SC/Paris 2163'
p658
sg14
S'D'
p659
ssI294
(dp660
g2
F8.85
sg3
I1
sg4
F24.0
sg5
I2
sg6
I0
sg7
I2
sg8
I1
sg9
I0
sg10
I0
sg11
I0
sg12
S'349236'
p661
sg14
g15
ssI295
(dp662
g2
F7.8958
sg3
I0
sg4
F24.0
sg5
I2
sg6
I0
sg7
I2
sg8
I0
sg9
I0
sg10
I0
sg11
I0
sg12
S'349233'
p663
sg14
g15
ssI296
(dp664
g2
F27.7208
sg3
I0
sg4
g15
sg5
I0
sg6
I0
sg7
I0
sg8
I0
sg9
I0
sg10
I0
sg11
I0
sg12
S'PC 17612'
p665
sg14
g15
ssI297
(dp666
g2
F7.2292
sg3
I0
sg4
F23.5
sg5
I0
sg6
I0
sg7
I2
sg8
I0
sg9
I0
sg10
I0
sg11
I0
sg12
S'2693'
p667
sg14
g15
ssI298
(dp668
g2
F151.55
sg3
I1
sg4
F2.0
sg5
I2
sg6
I2
sg7
I0
sg8
I1
sg9
I0
sg10
I3
sg11
I1
sg12
S'113781'
p669
sg14
S'C22 C26'
p670
ssI299
(dp671
g2
F30.5
sg3
I0
sg4
g15
sg5
I2
sg6
I0
sg7
I0
sg8
I0
sg9
I1
sg10
I0
sg11
I0
sg12
S'19988'
p672
sg14
S'C106'
p673
ssI300
(dp674
g2
F247.5208
sg3
F0.333333
sg4
F50.0
sg5
I0
sg6
I1
sg7
I0
sg8
I1
sg9
I1
sg10
I1
sg11
I0
sg12
S'PC 17558'
p675
sg14
S'B58 B60'
p676
ssI301
(dp677
g2
F7.75
sg3
I1
sg4
g15
sg5
I1
sg6
I0
sg7
I2
sg8
I1
sg9
I1
sg10
I0
sg11
I0
sg12
S'9234'
p678
sg14
g15
ssI302
(dp679
g2
F23.25
sg3
I0
sg4
g15
sg5
I1
sg6
I0
sg7
I2
sg8
I0
sg9
I1
sg10
I2
sg11
I2
sg12
S'367226'
p680
sg14
g15
ssI303
(dp681
g2
F0.0
sg3
I0
sg4
F19.0
sg5
I2
sg6
I0
sg7
I2
sg8
I0
sg9
I0
sg10
I0
sg11
I0
sg12
S'LINE'
p682
sg14
g15
ssI304
(dp683
g2
F12.35
sg3
I1
sg4
g15
sg5
I1
sg6
I0
sg7
I1
sg8
I1
sg9
I1
sg10
I0
sg11
I0
sg12
S'226593'
p684
sg14
S'E101'
p685
ssI305
(dp686
g2
F8.05
sg3
I0
sg4
g15
sg5
I2
sg6
I0
sg7
I2
sg8
I0
sg9
I0
sg10
I0
sg11
I0
sg12
S'A/5 2466'
p687
sg14
g15
ssI306
(dp688
g2
F151.55
sg3
F0.666666
sg4
F0.92
sg5
I2
sg6
I2
sg7
I0
sg8
I0
sg9
I1
sg10
I3
sg11
I1
sg12
S'113781'
p689
sg14
S'C22 C26'
p690
ssI307
(dp691
g2
F110.8833
sg3
I1
sg4
g15
sg5
I0
sg6
I0
sg7
I0
sg8
I1
sg9
I1
sg10
I0
sg11
I0
sg12
S'17421'
p692
sg14
g15
ssI308
(dp693
g2
F108.9
sg3
I4
sg4
F17.0
sg5
I0
sg6
I0
sg7
I0
sg8
I1
sg9
I1
sg10
I1
sg11
I1
sg12
S'PC 17758'
p694
sg14
S'C65'
p695
ssI309
(dp696
g2
F24.0
sg3
I0
sg4
F30.0
sg5
I0
sg6
I0
sg7
I1
sg8
I0
sg9
I0
sg10
I1
sg11
I1
sg12
S'P/PP 3381'
p697
sg14
g15
ssI310
(dp698
g2
F56.9292
sg3
I1
sg4
F30.0
sg5
I0
sg6
I0
sg7
I0
sg8
I1
sg9
I1
sg10
I0
sg11
I0
sg12
S'PC 17485'
p699
sg14
S'E36'
p700
ssI311
(dp701
g2
F83.1583
sg3
I1
sg4
F24.0
sg5
I0
sg6
I0
sg7
I0
sg8
I1
sg9
I1
sg10
I0
sg11
I0
sg12
S'11767'
p702
sg14
S'C54'
p703
ssI312
(dp704
g2
F262.375
sg3
I1
sg4
F18.0
sg5
I0
sg6
I2
sg7
I0
sg8
I1
sg9
I1
sg10
I4
sg11
I2
sg12
S'PC 17608'
p705
sg14
S'B57 B59 B63 B66'
p706
ssI313
(dp707
g2
F26.0
sg3
F0.333333
sg4
F26.0
sg5
I2
sg6
I1
sg7
I1
sg8
I1
sg9
I0
sg10
I2
sg11
I1
sg12
S'250651'
p708
sg14
g15
ssI314
(dp709
g2
F7.8958
sg3
I0
sg4
F28.0
sg5
I2
sg6
I0
sg7
I2
sg8
I0
sg9
I0
sg10
I0
sg11
I0
sg12
S'349243'
p710
sg14
g15
ssI315
(dp711
g2
F26.25
sg3
I0
sg4
F43.0
sg5
I2
sg6
I1
sg7
I1
sg8
I0
sg9
I0
sg10
I2
sg11
I1
sg12
S'F.C.C. 13529'
p712
sg14
g15
ssI316
(dp713
g2
F7.8542
sg3
I1
sg4
F26.0
sg5
I2
sg6
I0
sg7
I2
sg8
I1
sg9
I1
sg10
I0
sg11
I0
sg12
S'347470'
p714
sg14
g15
ssI317
(dp715
g2
F26.0
sg3
F0.333333
sg4
F24.0
sg5
I2
sg6
I0
sg7
I1
sg8
I1
sg9
I1
sg10
I1
sg11
I1
sg12
S'244367'
p716
sg14
g15
ssI318
(dp717
g2
F14.0
sg3
I4
sg4
F54.0
sg5
I2
sg6
I0
sg7
I1
sg8
I0
sg9
I0
sg10
I0
sg11
I0
sg12
S'29011'
p718
sg14
g15
ssI319
(dp719
g2
F164.8667
sg3
I1
sg4
F31.0
sg5
I2
sg6
I2
sg7
I0
sg8
I1
sg9
I1
sg10
I2
sg11
I0
sg12
S'36928'
p720
sg14
S'C7'
p721
ssI320
(dp722
g2
F134.5
sg3
F0.333333
sg4
F40.0
sg5
I0
sg6
I1
sg7
I0
sg8
I1
sg9
I1
sg10
I2
sg11
I1
sg12
S'16966'
p723
sg14
S'E34'
p724
ssI321
(dp725
g2
F7.25
sg3
I0
sg4
F22.0
sg5
I2
sg6
I0
sg7
I2
sg8
I0
sg9
I0
sg10
I0
sg11
I0
sg12
S'A/5 21172'
p726
sg14
g15
ssI322
(dp727
g2
F7.8958
sg3
I0
sg4
F27.0
sg5
I2
sg6
I0
sg7
I2
sg8
I0
sg9
I0
sg10
I0
sg11
I0
sg12
S'349219'
p728
sg14
g15
ssI323
(dp729
g2
F12.35
sg3
I1
sg4
F30.0
sg5
I1
sg6
I0
sg7
I1
sg8
I1
sg9
I1
sg10
I0
sg11
I0
sg12
S'234818'
p730
sg14
g15
ssI324
(dp731
g2
F29.0
sg3
F0.333333
sg4
F22.0
sg5
I2
sg6
I1
sg7
I1
sg8
I1
sg9
I1
sg10
I2
sg11
I1
sg12
S'248738'
p732
sg14
g15
ssI325
(dp733
g2
F69.55
sg3
I0
sg4
g15
sg5
I2
sg6
I2
sg7
I2
sg8
I0
sg9
I0
sg10
I10
sg11
I8
sg12
S'CA. 2343'
p734
sg14
g15
ssI326
(dp735
g2
F135.6333
sg3
I1
sg4
F36.0
sg5
I0
sg6
I0
sg7
I0
sg8
I1
sg9
I1
sg10
I0
sg11
I0
sg12
S'PC 17760'
p736
sg14
S'C32'
p737
ssI327
(dp738
g2
F6.2375
sg3
I0
sg4
F61.0
sg5
I2
sg6
I0
sg7
I2
sg8
I0
sg9
I0
sg10
I0
sg11
I0
sg12
S'345364'
p739
sg14
g15
ssI328
(dp740
g2
F13.0
sg3
F0.333333
sg4
F36.0
sg5
I2
sg6
I0
sg7
I1
sg8
I1
sg9
I1
sg10
I0
sg11
I0
sg12
S'28551'
p741
sg14
g659
ssI329
(dp742
g2
F20.525
sg3
F0.333333
sg4
F31.0
sg5
I2
sg6
I1
sg7
I2
sg8
I1
sg9
I1
sg10
I2
sg11
I1
sg12
S'363291'
p743
sg14
g15
ssI330
(dp744
g2
F57.9792
sg3
I1
sg4
F16.0
sg5
I0
sg6
I1
sg7
I0
sg8
I1
sg9
I1
sg10
I1
sg11
I0
sg12
S'111361'
p745
sg14
S'B18'
p746
ssI331
(dp747
g2
F23.25
sg3
I1
sg4
g15
sg5
I1
sg6
I0
sg7
I2
sg8
I1
sg9
I1
sg10
I2
sg11
I2
sg12
S'367226'
p748
sg14
g15
ssI332
(dp749
g2
F28.5
sg3
I0
sg4
F45.5
sg5
I2
sg6
I0
sg7
I0
sg8
I0
sg9
I0
sg10
I0
sg11
I0
sg12
S'113043'
p750
sg14
S'C124'
p751
ssI333
(dp752
g2
F153.4625
sg3
I0
sg4
F38.0
sg5
I2
sg6
I1
sg7
I0
sg8
I0
sg9
I0
sg10
I1
sg11
I0
sg12
S'PC 17582'
p753
sg14
S'C91'
p754
ssI334
(dp755
g2
F18.0
sg3
I4
sg4
F16.0
sg5
I2
sg6
I0
sg7
I2
sg8
I0
sg9
I0
sg10
I2
sg11
I2
sg12
S'345764'
p756
sg14
g15
ssI335
(dp757
g2
F133.65
sg3
F0.333333
sg4
g15
sg5
I2
sg6
I0
sg7
I0
sg8
I1
sg9
I1
sg10
I1
sg11
I1
sg12
S'PC 17611'
p758
sg14
g15
ssI336
(dp759
g2
F7.8958
sg3
I0
sg4
g15
sg5
I2
sg6
I0
sg7
I2
sg8
I0
sg9
I0
sg10
I0
sg11
I0
sg12
S'349225'
p760
sg14
g15
ssI337
(dp761
g2
F66.6
sg3
I0
sg4
F29.0
sg5
I2
sg6
I0
sg7
I0
sg8
I0
sg9
I0
sg10
I1
sg11
I1
sg12
S'113776'
p762
sg14
S'C2'
p763
ssI338
(dp764
g2
F134.5
sg3
I1
sg4
F41.0
sg5
I0
sg6
I0
sg7
I0
sg8
I1
sg9
I1
sg10
I0
sg11
I0
sg12
S'16966'
p765
sg14
S'E40'
p766
ssI339
(dp767
g2
F8.05
sg3
I0
sg4
F45.0
sg5
I2
sg6
I0
sg7
I2
sg8
I0
sg9
I1
sg10
I0
sg11
I0
sg12
S'7598'
p768
sg14
g15
ssI340
(dp769
g2
F35.5
sg3
I0
sg4
F45.0
sg5
I2
sg6
I0
sg7
I0
sg8
I0
sg9
I0
sg10
I0
sg11
I0
sg12
S'113784'
p770
sg14
S'T'
p771
ssI341
(dp772
g2
F26.0
sg3
F0.666666
sg4
F2.0
sg5
I2
sg6
I1
sg7
I1
sg8
I0
sg9
I1
sg10
I2
sg11
I1
sg12
S'230080'
p773
sg14
S'F2'
p774
ssI342
(dp775
g2
F263.0
sg3
I1
sg4
F24.0
sg5
I2
sg6
I2
sg7
I0
sg8
I1
sg9
I1
sg10
I5
sg11
I3
sg12
S'19950'
p776
sg14
S'C23 C25 C27'
p777
ssI343
(dp778
g2
F13.0
sg3
I0
sg4
F28.0
sg5
I2
sg6
I0
sg7
I1
sg8
I0
sg9
I0
sg10
I0
sg11
I0
sg12
S'248740'
p779
sg14
g15
ssI344
(dp780
g2
F13.0
sg3
I0
sg4
F25.0
sg5
I2
sg6
I0
sg7
I1
sg8
I0
sg9
I0
sg10
I0
sg11
I0
sg12
S'244361'
p781
sg14
g15
ssI345
(dp782
g2
F13.0
sg3
I0
sg4
F36.0
sg5
I2
sg6
I0
sg7
I1
sg8
I0
sg9
I0
sg10
I0
sg11
I0
sg12
S'229236'
p783
sg14
g15
ssI346
(dp784
g2
F13.0
sg3
I1
sg4
F24.0
sg5
I2
sg6
I0
sg7
I1
sg8
I1
sg9
I1
sg10
I0
sg11
I0
sg12
S'248733'
p785
sg14
S'F33'
p786
ssI347
(dp787
g2
F13.0
sg3
I1
sg4
F40.0
sg5
I2
sg6
I0
sg7
I1
sg8
I1
sg9
I1
sg10
I0
sg11
I0
sg12
S'31418'
p788
sg14
g15
ssI348
(dp789
g2
F16.1
sg3
F0.333333
sg4
g15
sg5
I2
sg6
I0
sg7
I2
sg8
I1
sg9
I1
sg10
I1
sg11
I1
sg12
S'386525'
p790
sg14
g15
ssI349
(dp791
g2
F15.9
sg3
F0.666666
sg4
F3.0
sg5
I2
sg6
I1
sg7
I2
sg8
I0
sg9
I1
sg10
I2
sg11
I1
sg12
S'C.A. 37671'
p792
sg14
g15
ssI350
(dp793
g2
F8.6625
sg3
I0
sg4
F42.0
sg5
I2
sg6
I0
sg7
I2
sg8
I0
sg9
I0
sg10
I0
sg11
I0
sg12
S'315088'
p794
sg14
g15
ssI351
(dp795
g2
F9.225
sg3
I0
sg4
F23.0
sg5
I2
sg6
I0
sg7
I2
sg8
I0
sg9
I0
sg10
I0
sg11
I0
sg12
S'7267'
p796
sg14
g15
ssI352
(dp797
g2
F35.0
sg3
I0
sg4
g15
sg5
I2
sg6
I0
sg7
I0
sg8
I0
sg9
I0
sg10
I0
sg11
I0
sg12
S'113510'
p798
sg14
S'C128'
p799
ssI353
(dp800
g2
F7.2292
sg3
I0
sg4
F15.0
sg5
I0
sg6
I1
sg7
I2
sg8
I0
sg9
I0
sg10
I2
sg11
I1
sg12
S'2695'
p801
sg14
g15
ssI354
(dp802
g2
F17.8
sg3
I0
sg4
F25.0
sg5
I2
sg6
I0
sg7
I2
sg8
I0
sg9
I0
sg10
I1
sg11
I1
sg12
S'349237'
p803
sg14
g15
ssI355
(dp804
g2
F7.225
sg3
I0
sg4
g15
sg5
I0
sg6
I0
sg7
I2
sg8
I0
sg9
I0
sg10
I0
sg11
I0
sg12
S'2647'
p805
sg14
g15
ssI356
(dp806
g2
F9.5
sg3
I4
sg4
F28.0
sg5
I2
sg6
I0
sg7
I2
sg8
I0
sg9
I0
sg10
I0
sg11
I0
sg12
S'345783'
p807
sg14
g15
ssI357
(dp808
g2
F55.0
sg3
I1
sg4
F22.0
sg5
I2
sg6
I1
sg7
I0
sg8
I1
sg9
I1
sg10
I1
sg11
I0
sg12
S'113505'
p809
sg14
S'E33'
p810
ssI358
(dp811
g2
F13.0
sg3
I1
sg4
F38.0
sg5
I2
sg6
I0
sg7
I1
sg8
I1
sg9
I0
sg10
I0
sg11
I0
sg12
S'237671'
p812
sg14
g15
ssI359
(dp813
g2
F7.8792
sg3
I1
sg4
g15
sg5
I1
sg6
I0
sg7
I2
sg8
I1
sg9
I1
sg10
I0
sg11
I0
sg12
S'330931'
p814
sg14
g15
ssI360
(dp815
g2
F7.8792
sg3
I1
sg4
g15
sg5
I1
sg6
I0
sg7
I2
sg8
I1
sg9
I1
sg10
I0
sg11
I0
sg12
S'330980'
p816
sg14
g15
ssI361
(dp817
g2
F27.9
sg3
I0
sg4
F40.0
sg5
I2
sg6
I4
sg7
I2
sg8
I0
sg9
I0
sg10
I5
sg11
I1
sg12
S'347088'
p818
sg14
g15
ssI362
(dp819
g2
F27.7208
sg3
I4
sg4
F29.0
sg5
I0
sg6
I0
sg7
I1
sg8
I0
sg9
I0
sg10
I1
sg11
I1
sg12
S'SC/PARIS 2167'
p820
sg14
g15
ssI363
(dp821
g2
F14.4542
sg3
F0.333333
sg4
F45.0
sg5
I0
sg6
I1
sg7
I2
sg8
I1
sg9
I0
sg10
I1
sg11
I0
sg12
S'2691'
p822
sg14
g15
ssI364
(dp823
g2
F7.05
sg3
I0
sg4
F35.0
sg5
I2
sg6
I0
sg7
I2
sg8
I0
sg9
I0
sg10
I0
sg11
I0
sg12
S'SOTON/O.Q. 3101310'
p824
sg14
g15
ssI365
(dp825
g2
F15.5
sg3
I0
sg4
g15
sg5
I1
sg6
I0
sg7
I2
sg8
I0
sg9
I0
sg10
I1
sg11
I1
sg12
S'370365'
p826
sg14
g15
ssI366
(dp827
g2
F7.25
sg3
I0
sg4
F30.0
sg5
I2
sg6
I0
sg7
I2
sg8
I0
sg9
I0
sg10
I0
sg11
I0
sg12
S'C 7076'
p828
sg14
g15
ssI367
(dp829
g2
F75.25
sg3
F0.333333
sg4
F60.0
sg5
I0
sg6
I0
sg7
I0
sg8
I1
sg9
I1
sg10
I1
sg11
I1
sg12
S'110813'
p830
sg14
S'D37'
p831
ssI368
(dp832
g2
F7.2292
sg3
F0.333333
sg4
g15
sg5
I0
sg6
I0
sg7
I2
sg8
I1
sg9
I1
sg10
I0
sg11
I0
sg12
S'2626'
p833
sg14
g15
ssI369
(dp834
g2
F7.75
sg3
I1
sg4
g15
sg5
I1
sg6
I0
sg7
I2
sg8
I1
sg9
I1
sg10
I0
sg11
I0
sg12
S'14313'
p835
sg14
g15
ssI370
(dp836
g2
F69.3
sg3
I4
sg4
F24.0
sg5
I0
sg6
I0
sg7
I0
sg8
I1
sg9
I1
sg10
I0
sg11
I0
sg12
S'PC 17477'
p837
sg14
S'B35'
p838
ssI371
(dp839
g2
F55.4417
sg3
I0
sg4
F25.0
sg5
I0
sg6
I0
sg7
I0
sg8
I0
sg9
I1
sg10
I1
sg11
I1
sg12
S'11765'
p840
sg14
S'E50'
p841
ssI372
(dp842
g2
F6.4958
sg3
I0
sg4
F18.0
sg5
I2
sg6
I0
sg7
I2
sg8
I0
sg9
I0
sg10
I1
sg11
I1
sg12
S'3101267'
p843
sg14
g15
ssI373
(dp844
g2
F8.05
sg3
I0
sg4
F19.0
sg5
I2
sg6
I0
sg7
I2
sg8
I0
sg9
I0
sg10
I0
sg11
I0
sg12
S'323951'
p845
sg14
g15
ssI374
(dp846
g2
F135.6333
sg3
I0
sg4
F22.0
sg5
I0
sg6
I0
sg7
I0
sg8
I0
sg9
I0
sg10
I0
sg11
I0
sg12
S'PC 17760'
p847
sg14
g15
ssI375
(dp848
g2
F21.075
sg3
I1
sg4
F3.0
sg5
I2
sg6
I1
sg7
I2
sg8
I1
sg9
I0
sg10
I4
sg11
I3
sg12
S'349909'
p849
sg14
g15
ssI376
(dp850
g2
F82.1708
sg3
F0.333333
sg4
g15
sg5
I0
sg6
I0
sg7
I0
sg8
I1
sg9
I1
sg10
I1
sg11
I1
sg12
S'PC 17604'
p851
sg14
g15
ssI377
(dp852
g2
F7.25
sg3
I1
sg4
F22.0
sg5
I2
sg6
I0
sg7
I2
sg8
I1
sg9
I1
sg10
I0
sg11
I0
sg12
S'C 7077'
p853
sg14
g15
ssI378
(dp854
g2
F211.5
sg3
I0
sg4
F27.0
sg5
I0
sg6
I2
sg7
I0
sg8
I0
sg9
I0
sg10
I2
sg11
I0
sg12
S'113503'
p855
sg14
S'C82'
p856
ssI379
(dp857
g2
F4.0125
sg3
I0
sg4
F20.0
sg5
I0
sg6
I0
sg7
I2
sg8
I0
sg9
I0
sg10
I0
sg11
I0
sg12
S'2648'
p858
sg14
g15
ssI380
(dp859
g2
F7.775
sg3
I0
sg4
F19.0
sg5
I2
sg6
I0
sg7
I2
sg8
I0
sg9
I0
sg10
I0
sg11
I0
sg12
S'347069'
p860
sg14
g15
ssI381
(dp861
g2
F227.525
sg3
I1
sg4
F42.0
sg5
I0
sg6
I0
sg7
I0
sg8
I1
sg9
I1
sg10
I0
sg11
I0
sg12
S'PC 17757'
p862
sg14
g15
ssI382
(dp863
g2
F15.7417
sg3
I1
sg4
F1.0
sg5
I0
sg6
I2
sg7
I2
sg8
I1
sg9
I1
sg10
I2
sg11
I0
sg12
S'2653'
p864
sg14
g15
ssI383
(dp865
g2
F7.925
sg3
I0
sg4
F32.0
sg5
I2
sg6
I0
sg7
I2
sg8
I0
sg9
I0
sg10
I0
sg11
I0
sg12
S'STON/O 2. 3101293'
p866
sg14
g15
ssI384
(dp867
g2
F52.0
sg3
F0.333333
sg4
F35.0
sg5
I2
sg6
I0
sg7
I0
sg8
I1
sg9
I1
sg10
I1
sg11
I1
sg12
S'113789'
p868
sg14
g15
ssI385
(dp869
g2
F7.8958
sg3
I0
sg4
g15
sg5
I2
sg6
I0
sg7
I2
sg8
I0
sg9
I0
sg10
I0
sg11
I0
sg12
S'349227'
p870
sg14
g15
ssI386
(dp871
g2
F73.5
sg3
I0
sg4
F18.0
sg5
I2
sg6
I0
sg7
I1
sg8
I0
sg9
I0
sg10
I0
sg11
I0
sg12
S'S.O.C. 14879'
p872
sg14
g15
ssI387
(dp873
g2
F46.9
sg3
F0.666666
sg4
F1.0
sg5
I2
sg6
I2
sg7
I2
sg8
I0
sg9
I0
sg10
I7
sg11
I5
sg12
S'CA 2144'
p874
sg14
g15
ssI388
(dp875
g2
F13.0
sg3
I1
sg4
F36.0
sg5
I2
sg6
I0
sg7
I1
sg8
I1
sg9
I1
sg10
I0
sg11
I0
sg12
S'27849'
p876
sg14
g15
ssI389
(dp877
g2
F7.7292
sg3
I0
sg4
g15
sg5
I1
sg6
I0
sg7
I2
sg8
I0
sg9
I0
sg10
I0
sg11
I0
sg12
S'367655'
p878
sg14
g15
ssI390
(dp879
g2
F12.0
sg3
I1
sg4
F17.0
sg5
I0
sg6
I0
sg7
I1
sg8
I1
sg9
I1
sg10
I0
sg11
I0
sg12
S'SC 1748'
p880
sg14
g15
ssI391
(dp881
g2
F120.0
sg3
I0
sg4
F36.0
sg5
I2
sg6
I2
sg7
I0
sg8
I0
sg9
I1
sg10
I3
sg11
I1
sg12
S'113760'
p882
sg14
S'B96 B98'
p883
ssI392
(dp884
g2
F7.7958
sg3
I0
sg4
F21.0
sg5
I2
sg6
I0
sg7
I2
sg8
I0
sg9
I1
sg10
I0
sg11
I0
sg12
S'350034'
p885
sg14
g15
ssI393
(dp886
g2
F7.925
sg3
I0
sg4
F28.0
sg5
I2
sg6
I0
sg7
I2
sg8
I0
sg9
I0
sg10
I2
sg11
I2
sg12
S'3101277'
p887
sg14
g15
ssI394
(dp888
g2
F113.275
sg3
I1
sg4
F23.0
sg5
I0
sg6
I0
sg7
I0
sg8
I1
sg9
I1
sg10
I1
sg11
I1
sg12
S'35273'
p889
sg14
S'D36'
p890
ssI395
(dp891
g2
F16.7
sg3
F0.333333
sg4
F24.0
sg5
I2
sg6
I2
sg7
I2
sg8
I1
sg9
I1
sg10
I2
sg11
I0
sg12
S'PP 9549'
p892
sg14
S'G6'
p893
ssI396
(dp894
g2
F7.7958
sg3
I0
sg4
F22.0
sg5
I2
sg6
I0
sg7
I2
sg8
I0
sg9
I0
sg10
I0
sg11
I0
sg12
S'350052'
p895
sg14
g15
ssI397
(dp896
g2
F7.8542
sg3
I1
sg4
F31.0
sg5
I2
sg6
I0
sg7
I2
sg8
I1
sg9
I0
sg10
I0
sg11
I0
sg12
S'350407'
p897
sg14
g15
ssI398
(dp898
g2
F26.0
sg3
I0
sg4
F46.0
sg5
I2
sg6
I0
sg7
I1
sg8
I0
sg9
I0
sg10
I0
sg11
I0
sg12
S'28403'
p899
sg14
g15
ssI399
(dp900
g2
F10.5
sg3
I4
sg4
F23.0
sg5
I2
sg6
I0
sg7
I1
sg8
I0
sg9
I0
sg10
I0
sg11
I0
sg12
S'244278'
p901
sg14
g15
ssI400
(dp902
g2
F12.65
sg3
F0.333333
sg4
F28.0
sg5
I2
sg6
I0
sg7
I1
sg8
I1
sg9
I1
sg10
I0
sg11
I0
sg12
S'240929'
p903
sg14
g15
ssI401
(dp904
g2
F7.925
sg3
I0
sg4
F39.0
sg5
I2
sg6
I0
sg7
I2
sg8
I0
sg9
I1
sg10
I0
sg11
I0
sg12
S'STON/O 2. 3101289'
p905
sg14
g15
ssI402
(dp906
g2
F8.05
sg3
I0
sg4
F26.0
sg5
I2
sg6
I0
sg7
I2
sg8
I0
sg9
I0
sg10
I0
sg11
I0
sg12
S'341826'
p907
sg14
g15
ssI403
(dp908
g2
F9.825
sg3
I1
sg4
F21.0
sg5
I2
sg6
I0
sg7
I2
sg8
I1
sg9
I0
sg10
I1
sg11
I1
sg12
S'4137'
p909
sg14
g15
ssI404
(dp910
g2
F15.85
sg3
I0
sg4
F28.0
sg5
I2
sg6
I0
sg7
I2
sg8
I0
sg9
I0
sg10
I1
sg11
I1
sg12
S'STON/O2. 3101279'
p911
sg14
g15
ssI405
(dp912
g2
F8.6625
sg3
I1
sg4
F20.0
sg5
I2
sg6
I0
sg7
I2
sg8
I1
sg9
I0
sg10
I0
sg11
I0
sg12
S'315096'
p913
sg14
g15
ssI406
(dp914
g2
F21.0
sg3
I0
sg4
F34.0
sg5
I2
sg6
I0
sg7
I1
sg8
I0
sg9
I0
sg10
I1
sg11
I1
sg12
S'28664'
p915
sg14
g15
ssI407
(dp916
g2
F7.75
sg3
I0
sg4
F51.0
sg5
I2
sg6
I0
sg7
I2
sg8
I0
sg9
I0
sg10
I0
sg11
I0
sg12
S'347064'
p917
sg14
g15
ssI408
(dp918
g2
F18.75
sg3
F0.666666
sg4
F3.0
sg5
I2
sg6
I1
sg7
I1
sg8
I0
sg9
I1
sg10
I2
sg11
I1
sg12
S'29106'
p919
sg14
g15
ssI409
(dp920
g2
F7.775
sg3
I0
sg4
F21.0
sg5
I2
sg6
I0
sg7
I2
sg8
I0
sg9
I0
sg10
I0
sg11
I0
sg12
S'312992'
p921
sg14
g15
ssI410
(dp922
g2
F25.4667
sg3
I1
sg4
g15
sg5
I2
sg6
I1
sg7
I2
sg8
I1
sg9
I0
sg10
I4
sg11
I3
sg12
S'4133'
p923
sg14
g15
ssI411
(dp924
g2
F7.8958
sg3
I0
sg4
g15
sg5
I2
sg6
I0
sg7
I2
sg8
I0
sg9
I0
sg10
I0
sg11
I0
sg12
S'349222'
p925
sg14
g15
ssI412
(dp926
g2
F6.8583
sg3
I0
sg4
g15
sg5
I1
sg6
I0
sg7
I2
sg8
I0
sg9
I0
sg10
I0
sg11
I0
sg12
S'394140'
p927
sg14
g15
ssI413
(dp928
g2
F90.0
sg3
I1
sg4
F33.0
sg5
I1
sg6
I0
sg7
I0
sg8
I1
sg9
I1
sg10
I1
sg11
I1
sg12
S'19928'
p929
sg14
S'C78'
p930
ssI414
(dp931
g2
F0.0
sg3
I0
sg4
g15
sg5
I2
sg6
I0
sg7
I1
sg8
I0
sg9
I0
sg10
I0
sg11
I0
sg12
S'239853'
p932
sg14
g15
ssI415
(dp933
g2
F7.925
sg3
I0
sg4
F44.0
sg5
I2
sg6
I0
sg7
I2
sg8
I0
sg9
I1
sg10
I0
sg11
I0
sg12
S'STON/O 2. 3101269'
p934
sg14
g15
ssI416
(dp935
g2
F8.05
sg3
F0.333333
sg4
g15
sg5
I2
sg6
I0
sg7
I2
sg8
I1
sg9
I0
sg10
I0
sg11
I0
sg12
S'343095'
p936
sg14
g15
ssI417
(dp937
g2
F32.5
sg3
F0.333333
sg4
F34.0
sg5
I2
sg6
I1
sg7
I1
sg8
I1
sg9
I1
sg10
I2
sg11
I1
sg12
S'28220'
p938
sg14
g15
ssI418
(dp939
g2
F13.0
sg3
I1
sg4
F18.0
sg5
I2
sg6
I2
sg7
I1
sg8
I1
sg9
I1
sg10
I2
sg11
I0
sg12
S'250652'
p940
sg14
g15
ssI419
(dp941
g2
F13.0
sg3
I0
sg4
F30.0
sg5
I2
sg6
I0
sg7
I1
sg8
I0
sg9
I0
sg10
I0
sg11
I0
sg12
S'28228'
p942
sg14
g15
ssI420
(dp943
g2
F24.15
sg3
I4
sg4
F10.0
sg5
I2
sg6
I2
sg7
I2
sg8
I1
sg9
I0
sg10
I2
sg11
I0
sg12
S'345773'
p944
sg14
g15
ssI421
(dp945
g2
F7.8958
sg3
I0
sg4
g15
sg5
I0
sg6
I0
sg7
I2
sg8
I0
sg9
I0
sg10
I0
sg11
I0
sg12
S'349254'
p946
sg14
g15
ssI422
(dp947
g2
F7.7333
sg3
I0
sg4
F21.0
sg5
I1
sg6
I0
sg7
I2
sg8
I0
sg9
I0
sg10
I0
sg11
I0
sg12
S'A/5. 13032'
p948
sg14
g15
ssI423
(dp949
g2
F7.875
sg3
I0
sg4
F29.0
sg5
I2
sg6
I0
sg7
I2
sg8
I0
sg9
I0
sg10
I0
sg11
I0
sg12
S'315082'
p950
sg14
g15
ssI424
(dp951
g2
F14.4
sg3
F0.333333
sg4
F28.0
sg5
I2
sg6
I1
sg7
I2
sg8
I1
sg9
I0
sg10
I2
sg11
I1
sg12
S'347080'
p952
sg14
g15
ssI425
(dp953
g2
F20.2125
sg3
I0
sg4
F18.0
sg5
I2
sg6
I1
sg7
I2
sg8
I0
sg9
I0
sg10
I2
sg11
I1
sg12
S'370129'
p954
sg14
g15
ssI426
(dp955
g2
F7.25
sg3
I0
sg4
g15
sg5
I2
sg6
I0
sg7
I2
sg8
I0
sg9
I0
sg10
I0
sg11
I0
sg12
S'A/4. 34244'
p956
sg14
g15
ssI427
(dp957
g2
F26.0
sg3
F0.333333
sg4
F28.0
sg5
I2
sg6
I0
sg7
I1
sg8
I1
sg9
I1
sg10
I1
sg11
I1
sg12
S'2003'
p958
sg14
g15
ssI428
(dp959
g2
F26.0
sg3
I1
sg4
F19.0
sg5
I2
sg6
I0
sg7
I1
sg8
I1
sg9
I1
sg10
I0
sg11
I0
sg12
S'250655'
p960
sg14
g15
ssI429
(dp961
g2
F7.75
sg3
I0
sg4
g15
sg5
I1
sg6
I0
sg7
I2
sg8
I0
sg9
I0
sg10
I0
sg11
I0
sg12
S'364851'
p962
sg14
g15
ssI430
(dp963
g2
F8.05
sg3
I0
sg4
F32.0
sg5
I2
sg6
I0
sg7
I2
sg8
I0
sg9
I1
sg10
I0
sg11
I0
sg12
S'SOTON/O.Q. 392078'
p964
sg14
S'E10'
p965
ssI431
(dp966
g2
F26.55
sg3
I0
sg4
F28.0
sg5
I2
sg6
I0
sg7
I0
sg8
I0
sg9
I1
sg10
I0
sg11
I0
sg12
S'110564'
p967
sg14
S'C52'
p968
ssI432
(dp969
g2
F16.1
sg3
F0.333333
sg4
g15
sg5
I2
sg6
I0
sg7
I2
sg8
I1
sg9
I1
sg10
I1
sg11
I1
sg12
S'376564'
p970
sg14
g15
ssI433
(dp971
g2
F26.0
sg3
F0.333333
sg4
F42.0
sg5
I2
sg6
I0
sg7
I1
sg8
I1
sg9
I1
sg10
I1
sg11
I1
sg12
S'SC/AH 3085'
p972
sg14
g15
ssI434
(dp973
g2
F7.125
sg3
I0
sg4
F17.0
sg5
I2
sg6
I0
sg7
I2
sg8
I0
sg9
I0
sg10
I0
sg11
I0
sg12
S'STON/O 2. 3101274'
p974
sg14
g15
ssI435
(dp975
g2
F55.9
sg3
I0
sg4
F50.0
sg5
I2
sg6
I0
sg7
I0
sg8
I0
sg9
I0
sg10
I1
sg11
I1
sg12
S'13507'
p976
sg14
S'E44'
p977
ssI436
(dp978
g2
F120.0
sg3
I1
sg4
F14.0
sg5
I2
sg6
I2
sg7
I0
sg8
I1
sg9
I1
sg10
I3
sg11
I1
sg12
S'113760'
p979
sg14
S'B96 B98'
p980
ssI437
(dp981
g2
F34.375
sg3
I1
sg4
F21.0
sg5
I2
sg6
I2
sg7
I2
sg8
I1
sg9
I0
sg10
I4
sg11
I2
sg12
S'W./C. 6608'
p982
sg14
g15
ssI438
(dp983
g2
F18.75
sg3
F0.333333
sg4
F24.0
sg5
I2
sg6
I3
sg7
I1
sg8
I1
sg9
I1
sg10
I5
sg11
I2
sg12
S'29106'
p984
sg14
g15
ssI439
(dp985
g2
F263.0
sg3
I0
sg4
F64.0
sg5
I2
sg6
I4
sg7
I0
sg8
I0
sg9
I0
sg10
I5
sg11
I1
sg12
S'19950'
p986
sg14
S'C23 C25 C27'
p987
ssI440
(dp988
g2
F10.5
sg3
I0
sg4
F31.0
sg5
I2
sg6
I0
sg7
I1
sg8
I0
sg9
I0
sg10
I0
sg11
I0
sg12
S'C.A. 18723'
p989
sg14
g15
ssI441
(dp990
g2
F26.25
sg3
F0.333333
sg4
F45.0
sg5
I2
sg6
I1
sg7
I1
sg8
I1
sg9
I1
sg10
I2
sg11
I1
sg12
S'F.C.C. 13529'
p991
sg14
g15
ssI442
(dp992
g2
F9.5
sg3
I0
sg4
F20.0
sg5
I2
sg6
I0
sg7
I2
sg8
I0
sg9
I0
sg10
I0
sg11
I0
sg12
S'345769'
p993
sg14
g15
ssI443
(dp994
g2
F7.775
sg3
I0
sg4
F25.0
sg5
I2
sg6
I0
sg7
I2
sg8
I0
sg9
I0
sg10
I1
sg11
I1
sg12
S'347076'
p995
sg14
g15
ssI444
(dp996
g2
F13.0
sg3
I4
sg4
F28.0
sg5
I2
sg6
I0
sg7
I1
sg8
I1
sg9
I1
sg10
I0
sg11
I0
sg12
S'230434'
p997
sg14
g15
ssI445
(dp998
g2
F8.1125
sg3
I0
sg4
g15
sg5
I2
sg6
I0
sg7
I2
sg8
I0
sg9
I1
sg10
I0
sg11
I0
sg12
S'65306'
p999
sg14
g15
ssI446
(dp1000
g2
F81.8583
sg3
F0.666666
sg4
F4.0
sg5
I2
sg6
I2
sg7
I0
sg8
I0
sg9
I1
sg10
I2
sg11
I0
sg12
S'33638'
p1001
sg14
S'A34'
p1002
ssI447
(dp1003
g2
F19.5
sg3
I1
sg4
F13.0
sg5
I2
sg6
I1
sg7
I1
sg8
I1
sg9
I1
sg10
I1
sg11
I0
sg12
S'250644'
p1004
sg14
g15
ssI448
(dp1005
g2
F26.55
sg3
I0
sg4
F34.0
sg5
I2
sg6
I0
sg7
I0
sg8
I0
sg9
I1
sg10
I0
sg11
I0
sg12
S'113794'
p1006
sg14
g15
ssI449
(dp1007
g2
F19.2583
sg3
I1
sg4
F5.0
sg5
I0
sg6
I1
sg7
I2
sg8
I1
sg9
I1
sg10
I3
sg11
I2
sg12
S'2666'
p1008
sg14
g15
ssI450
(dp1009
g2
F30.5
sg3
I4
sg4
F52.0
sg5
I2
sg6
I0
sg7
I0
sg8
I0
sg9
I1
sg10
I0
sg11
I0
sg12
S'113786'
p1010
sg14
S'C104'
p1011
ssI451
(dp1012
g2
F27.75
sg3
I0
sg4
F36.0
sg5
I2
sg6
I2
sg7
I1
sg8
I0
sg9
I0
sg10
I3
sg11
I1
sg12
S'C.A. 34651'
p1013
sg14
g15
ssI452
(dp1014
g2
F19.9667
sg3
I0
sg4
g15
sg5
I2
sg6
I0
sg7
I2
sg8
I0
sg9
I0
sg10
I1
sg11
I1
sg12
S'65303'
p1015
sg14
g15
ssI453
(dp1016
g2
F27.75
sg3
I0
sg4
F30.0
sg5
I0
sg6
I0
sg7
I0
sg8
I0
sg9
I0
sg10
I0
sg11
I0
sg12
S'113051'
p1017
sg14
S'C111'
p1018
ssI454
(dp1019
g2
F89.1042
sg3
I0
sg4
F49.0
sg5
I0
sg6
I0
sg7
I0
sg8
I0
sg9
I1
sg10
I1
sg11
I1
sg12
S'17453'
p1020
sg14
S'C92'
p1021
ssI455
(dp1022
g2
F8.05
sg3
I0
sg4
g15
sg5
I2
sg6
I0
sg7
I2
sg8
I0
sg9
I0
sg10
I0
sg11
I0
sg12
S'A/5 2817'
p1023
sg14
g15
ssI456
(dp1024
g2
F7.8958
sg3
I0
sg4
F29.0
sg5
I0
sg6
I0
sg7
I2
sg8
I0
sg9
I1
sg10
I0
sg11
I0
sg12
S'349240'
p1025
sg14
g15
ssI457
(dp1026
g2
F26.55
sg3
I0
sg4
F65.0
sg5
I2
sg6
I0
sg7
I0
sg8
I0
sg9
I0
sg10
I0
sg11
I0
sg12
S'13509'
p1027
sg14
S'E38'
p1028
ssI458
(dp1029
g2
F51.8625
sg3
F0.333333
sg4
g15
sg5
I2
sg6
I0
sg7
I0
sg8
I1
sg9
I1
sg10
I1
sg11
I1
sg12
S'17464'
p1030
sg14
S'D21'
p1031
ssI459
(dp1032
g2
F10.5
sg3
I1
sg4
F50.0
sg5
I2
sg6
I0
sg7
I1
sg8
I1
sg9
I1
sg10
I0
sg11
I0
sg12
S'F.C.C. 13531'
p1033
sg14
g15
ssI460
(dp1034
g2
F7.75
sg3
I0
sg4
g15
sg5
I1
sg6
I0
sg7
I2
sg8
I0
sg9
I0
sg10
I0
sg11
I0
sg12
S'371060'
p1035
sg14
g15
ssI461
(dp1036
g2
F26.55
sg3
I0
sg4
F48.0
sg5
I2
sg6
I0
sg7
I0
sg8
I0
sg9
I1
sg10
I0
sg11
I0
sg12
S'19952'
p1037
sg14
S'E12'
p1038
ssI462
(dp1039
g2
F8.05
sg3
I0
sg4
F34.0
sg5
I2
sg6
I0
sg7
I2
sg8
I0
sg9
I0
sg10
I0
sg11
I0
sg12
S'364506'
p1040
sg14
g15
ssI463
(dp1041
g2
F38.5
sg3
I0
sg4
F47.0
sg5
I2
sg6
I0
sg7
I0
sg8
I0
sg9
I0
sg10
I0
sg11
I0
sg12
S'111320'
p1042
sg14
S'E63'
p1043
ssI464
(dp1044
g2
F13.0
sg3
I0
sg4
F48.0
sg5
I2
sg6
I0
sg7
I1
sg8
I0
sg9
I0
sg10
I0
sg11
I0
sg12
S'234360'
p1045
sg14
g15
ssI465
(dp1046
g2
F8.05
sg3
I0
sg4
g15
sg5
I2
sg6
I0
sg7
I2
sg8
I0
sg9
I0
sg10
I0
sg11
I0
sg12
S'A/S 2816'
p1047
sg14
g15
ssI466
(dp1048
g2
F7.05
sg3
I0
sg4
F38.0
sg5
I2
sg6
I0
sg7
I2
sg8
I0
sg9
I0
sg10
I0
sg11
I0
sg12
S'SOTON/O.Q. 3101306'
p1049
sg14
g15
ssI467
(dp1050
g2
F0.0
sg3
I0
sg4
g15
sg5
I2
sg6
I0
sg7
I1
sg8
I0
sg9
I0
sg10
I0
sg11
I0
sg12
S'239853'
p1051
sg14
g15
ssI468
(dp1052
g2
F26.55
sg3
I0
sg4
F56.0
sg5
I2
sg6
I0
sg7
I0
sg8
I0
sg9
I0
sg10
I0
sg11
I0
sg12
S'113792'
p1053
sg14
g15
ssI469
(dp1054
g2
F7.725
sg3
I0
sg4
g15
sg5
I1
sg6
I0
sg7
I2
sg8
I0
sg9
I0
sg10
I0
sg11
I0
sg12
S'36209'
p1055
sg14
g15
ssI470
(dp1056
g2
F19.2583
sg3
I1
sg4
F0.75
sg5
I0
sg6
I1
sg7
I2
sg8
I1
sg9
I1
sg10
I3
sg11
I2
sg12
S'2666'
p1057
sg14
g15
ssI471
(dp1058
g2
F7.25
sg3
I0
sg4
g15
sg5
I2
sg6
I0
sg7
I2
sg8
I0
sg9
I0
sg10
I0
sg11
I0
sg12
S'323592'
p1059
sg14
g15
ssI472
(dp1060
g2
F8.6625
sg3
I0
sg4
F38.0
sg5
I2
sg6
I0
sg7
I2
sg8
I0
sg9
I0
sg10
I0
sg11
I0
sg12
S'315089'
p1061
sg14
g15
ssI473
(dp1062
g2
F27.75
sg3
F0.333333
sg4
F33.0
sg5
I2
sg6
I2
sg7
I1
sg8
I1
sg9
I1
sg10
I3
sg11
I1
sg12
S'C.A. 34651'
p1063
sg14
g15
ssI474
(dp1064
g2
F13.7917
sg3
F0.333333
sg4
F23.0
sg5
I0
sg6
I0
sg7
I1
sg8
I1
sg9
I1
sg10
I0
sg11
I0
sg12
S'SC/AH Basle 541'
p1065
sg14
g659
ssI475
(dp1066
g2
F9.8375
sg3
I1
sg4
F22.0
sg5
I2
sg6
I0
sg7
I2
sg8
I1
sg9
I0
sg10
I0
sg11
I0
sg12
S'7553'
p1067
sg14
g15
ssI476
(dp1068
g2
F52.0
sg3
I0
sg4
g15
sg5
I2
sg6
I0
sg7
I0
sg8
I0
sg9
I0
sg10
I0
sg11
I0
sg12
S'110465'
p1069
sg14
S'A14'
p1070
ssI477
(dp1071
g2
F21.0
sg3
I0
sg4
F34.0
sg5
I2
sg6
I0
sg7
I1
sg8
I0
sg9
I0
sg10
I1
sg11
I1
sg12
S'31027'
p1072
sg14
g15
ssI478
(dp1073
g2
F7.0458
sg3
I0
sg4
F29.0
sg5
I2
sg6
I0
sg7
I2
sg8
I0
sg9
I0
sg10
I1
sg11
I1
sg12
S'3460'
p1074
sg14
g15
ssI479
(dp1075
g2
F7.5208
sg3
I0
sg4
F22.0
sg5
I2
sg6
I0
sg7
I2
sg8
I0
sg9
I0
sg10
I0
sg11
I0
sg12
S'350060'
p1076
sg14
g15
ssI480
(dp1077
g2
F12.2875
sg3
I1
sg4
F2.0
sg5
I2
sg6
I1
sg7
I2
sg8
I1
sg9
I1
sg10
I1
sg11
I0
sg12
S'3101298'
p1078
sg14
g15
ssI481
(dp1079
g2
F46.9
sg3
F0.666666
sg4
F9.0
sg5
I2
sg6
I2
sg7
I2
sg8
I0
sg9
I0
sg10
I7
sg11
I5
sg12
S'CA 2144'
p1080
sg14
g15
ssI482
(dp1081
g2
F0.0
sg3
I0
sg4
g15
sg5
I2
sg6
I0
sg7
I1
sg8
I0
sg9
I0
sg10
I0
sg11
I0
sg12
S'239854'
p1082
sg14
g15
ssI483
(dp1083
g2
F8.05
sg3
I0
sg4
F50.0
sg5
I2
sg6
I0
sg7
I2
sg8
I0
sg9
I0
sg10
I0
sg11
I0
sg12
S'A/5 3594'
p1084
sg14
g15
ssI484
(dp1085
g2
F9.5875
sg3
F0.333333
sg4
F63.0
sg5
I2
sg6
I0
sg7
I2
sg8
I1
sg9
I1
sg10
I0
sg11
I0
sg12
S'4134'
p1086
sg14
g15
ssI485
(dp1087
g2
F91.0792
sg3
I0
sg4
F25.0
sg5
I0
sg6
I0
sg7
I0
sg8
I0
sg9
I1
sg10
I1
sg11
I1
sg12
S'11967'
p1088
sg14
S'B49'
p1089
ssI486
(dp1090
g2
F25.4667
sg3
I1
sg4
g15
sg5
I2
sg6
I1
sg7
I2
sg8
I1
sg9
I0
sg10
I4
sg11
I3
sg12
S'4133'
p1091
sg14
g15
ssI487
(dp1092
g2
F90.0
sg3
F0.333333
sg4
F35.0
sg5
I2
sg6
I0
sg7
I0
sg8
I1
sg9
I1
sg10
I1
sg11
I1
sg12
S'19943'
p1093
sg14
S'C93'
p1094
ssI488
(dp1095
g2
F29.7
sg3
I0
sg4
F58.0
sg5
I0
sg6
I0
sg7
I0
sg8
I0
sg9
I0
sg10
I0
sg11
I0
sg12
S'11771'
p1096
sg14
S'B37'
p1097
ssI489
(dp1098
g2
F8.05
sg3
I0
sg4
F30.0
sg5
I2
sg6
I0
sg7
I2
sg8
I0
sg9
I0
sg10
I0
sg11
I0
sg12
S'A.5. 18509'
p1099
sg14
g15
ssI490
(dp1100
g2
F15.9
sg3
F0.666666
sg4
F9.0
sg5
I2
sg6
I1
sg7
I2
sg8
I0
sg9
I1
sg10
I2
sg11
I1
sg12
S'C.A. 37671'
p1101
sg14
g15
ssI491
(dp1102
g2
F19.9667
sg3
I0
sg4
g15
sg5
I2
sg6
I0
sg7
I2
sg8
I0
sg9
I0
sg10
I1
sg11
I1
sg12
S'65304'
p1103
sg14
g15
ssI492
(dp1104
g2
F7.25
sg3
I0
sg4
F21.0
sg5
I2
sg6
I0
sg7
I2
sg8
I0
sg9
I0
sg10
I0
sg11
I0
sg12
S'SOTON/OQ 3101317'
p1105
sg14
g15
ssI493
(dp1106
g2
F30.5
sg3
I0
sg4
F55.0
sg5
I2
sg6
I0
sg7
I0
sg8
I0
sg9
I0
sg10
I0
sg11
I0
sg12
S'113787'
p1107
sg14
S'C30'
p1108
ssI494
(dp1109
g2
F49.5042
sg3
I0
sg4
F71.0
sg5
I0
sg6
I0
sg7
I0
sg8
I0
sg9
I0
sg10
I0
sg11
I0
sg12
S'PC 17609'
p1110
sg14
g15
ssI495
(dp1111
g2
F8.05
sg3
I0
sg4
F21.0
sg5
I2
sg6
I0
sg7
I2
sg8
I0
sg9
I0
sg10
I0
sg11
I0
sg12
S'A/4 45380'
p1112
sg14
g15
ssI496
(dp1113
g2
F14.4583
sg3
I0
sg4
g15
sg5
I0
sg6
I0
sg7
I2
sg8
I0
sg9
I0
sg10
I0
sg11
I0
sg12
S'2627'
p1114
sg14
g15
ssI497
(dp1115
g2
F78.2667
sg3
I1
sg4
F54.0
sg5
I0
sg6
I0
sg7
I0
sg8
I1
sg9
I1
sg10
I1
sg11
I1
sg12
S'36947'
p1116
sg14
S'D20'
p1117
ssI498
(dp1118
g2
F15.1
sg3
I0
sg4
g15
sg5
I2
sg6
I0
sg7
I2
sg8
I0
sg9
I0
sg10
I0
sg11
I0
sg12
S'C.A. 6212'
p1119
sg14
g15
ssI499
(dp1120
g2
F151.55
sg3
F0.333333
sg4
F25.0
sg5
I2
sg6
I2
sg7
I0
sg8
I1
sg9
I0
sg10
I3
sg11
I1
sg12
S'113781'
p1121
sg14
S'C22 C26'
p1122
ssI500
(dp1123
g2
F7.7958
sg3
I0
sg4
F24.0
sg5
I2
sg6
I0
sg7
I2
sg8
I0
sg9
I0
sg10
I0
sg11
I0
sg12
S'350035'
p1124
sg14
g15
ssI501
(dp1125
g2
F8.6625
sg3
I0
sg4
F17.0
sg5
I2
sg6
I0
sg7
I2
sg8
I0
sg9
I0
sg10
I0
sg11
I0
sg12
S'315086'
p1126
sg14
g15
ssI502
(dp1127
g2
F7.75
sg3
I1
sg4
F21.0
sg5
I1
sg6
I0
sg7
I2
sg8
I1
sg9
I0
sg10
I0
sg11
I0
sg12
S'364846'
p1128
sg14
g15
ssI503
(dp1129
g2
F7.6292
sg3
I1
sg4
g15
sg5
I1
sg6
I0
sg7
I2
sg8
I1
sg9
I0
sg10
I0
sg11
I0
sg12
S'330909'
p1130
sg14
g15
ssI504
(dp1131
g2
F9.5875
sg3
I1
sg4
F37.0
sg5
I2
sg6
I0
sg7
I2
sg8
I1
sg9
I0
sg10
I0
sg11
I0
sg12
S'4135'
p1132
sg14
g15
ssI505
(dp1133
g2
F86.5
sg3
I1
sg4
F16.0
sg5
I2
sg6
I0
sg7
I0
sg8
I1
sg9
I1
sg10
I0
sg11
I0
sg12
S'110152'
p1134
sg14
S'B79'
p1135
ssI506
(dp1136
g2
F108.9
sg3
I4
sg4
F18.0
sg5
I0
sg6
I0
sg7
I0
sg8
I0
sg9
I0
sg10
I1
sg11
I1
sg12
S'PC 17758'
p1137
sg14
S'C65'
p1138
ssI507
(dp1139
g2
F26.0
sg3
F0.333333
sg4
F33.0
sg5
I2
sg6
I2
sg7
I1
sg8
I1
sg9
I1
sg10
I2
sg11
I0
sg12
S'26360'
p1140
sg14
g15
ssI508
(dp1141
g2
F26.55
sg3
I0
sg4
g15
sg5
I2
sg6
I0
sg7
I0
sg8
I0
sg9
I1
sg10
I0
sg11
I0
sg12
S'111427'
p1142
sg14
g15
ssI509
(dp1143
g2
F22.525
sg3
I0
sg4
F28.0
sg5
I2
sg6
I0
sg7
I2
sg8
I0
sg9
I0
sg10
I0
sg11
I0
sg12
S'C 4001'
p1144
sg14
g15
ssI510
(dp1145
g2
F56.4958
sg3
I0
sg4
F26.0
sg5
I2
sg6
I0
sg7
I2
sg8
I0
sg9
I1
sg10
I0
sg11
I0
sg12
S'1601'
p1146
sg14
g15
ssI511
(dp1147
g2
F7.75
sg3
I0
sg4
F29.0
sg5
I1
sg6
I0
sg7
I2
sg8
I0
sg9
I1
sg10
I0
sg11
I0
sg12
S'382651'
p1148
sg14
g15
ssI512
(dp1149
g2
F8.05
sg3
I0
sg4
g15
sg5
I2
sg6
I0
sg7
I2
sg8
I0
sg9
I0
sg10
I0
sg11
I0
sg12
S'SOTON/OQ 3101316'
p1150
sg14
g15
ssI513
(dp1151
g2
F26.2875
sg3
I0
sg4
F36.0
sg5
I2
sg6
I0
sg7
I0
sg8
I0
sg9
I1
sg10
I0
sg11
I0
sg12
S'PC 17473'
p1152
sg14
S'E25'
p1153
ssI514
(dp1154
g2
F59.4
sg3
F0.333333
sg4
F54.0
sg5
I0
sg6
I0
sg7
I0
sg8
I1
sg9
I1
sg10
I1
sg11
I1
sg12
S'PC 17603'
p1155
sg14
g15
ssI515
(dp1156
g2
F7.4958
sg3
I0
sg4
F24.0
sg5
I2
sg6
I0
sg7
I2
sg8
I0
sg9
I0
sg10
I0
sg11
I0
sg12
S'349209'
p1157
sg14
g15
ssI516
(dp1158
g2
F34.0208
sg3
I0
sg4
F47.0
sg5
I2
sg6
I0
sg7
I0
sg8
I0
sg9
I0
sg10
I0
sg11
I0
sg12
S'36967'
p1159
sg14
S'D46'
p1160
ssI517
(dp1161
g2
F10.5
sg3
F0.333333
sg4
F34.0
sg5
I2
sg6
I0
sg7
I1
sg8
I1
sg9
I1
sg10
I0
sg11
I0
sg12
S'C.A. 34260'
p1162
sg14
S'F33'
p1163
ssI518
(dp1164
g2
F24.15
sg3
I0
sg4
g15
sg5
I1
sg6
I0
sg7
I2
sg8
I0
sg9
I0
sg10
I0
sg11
I0
sg12
S'371110'
p1165
sg14
g15
ssI519
(dp1166
g2
F26.0
sg3
F0.333333
sg4
F36.0
sg5
I2
sg6
I0
sg7
I1
sg8
I1
sg9
I1
sg10
I1
sg11
I1
sg12
S'226875'
p1167
sg14
g15
ssI520
(dp1168
g2
F7.8958
sg3
I0
sg4
F32.0
sg5
I2
sg6
I0
sg7
I2
sg8
I0
sg9
I0
sg10
I0
sg11
I0
sg12
S'349242'
p1169
sg14
g15
ssI521
(dp1170
g2
F93.5
sg3
I1
sg4
F30.0
sg5
I2
sg6
I0
sg7
I0
sg8
I1
sg9
I1
sg10
I0
sg11
I0
sg12
S'12749'
p1171
sg14
S'B73'
p1172
ssI522
(dp1173
g2
F7.8958
sg3
I0
sg4
F22.0
sg5
I2
sg6
I0
sg7
I2
sg8
I0
sg9
I0
sg10
I0
sg11
I0
sg12
S'349252'
p1174
sg14
g15
ssI523
(dp1175
g2
F7.225
sg3
I0
sg4
g15
sg5
I0
sg6
I0
sg7
I2
sg8
I0
sg9
I0
sg10
I0
sg11
I0
sg12
S'2624'
p1176
sg14
g15
ssI524
(dp1177
g2
F57.9792
sg3
F0.333333
sg4
F44.0
sg5
I0
sg6
I1
sg7
I0
sg8
I1
sg9
I1
sg10
I1
sg11
I0
sg12
S'111361'
p1178
sg14
S'B18'
p1179
ssI525
(dp1180
g2
F7.2292
sg3
I0
sg4
g15
sg5
I0
sg6
I0
sg7
I2
sg8
I0
sg9
I0
sg10
I0
sg11
I0
sg12
S'2700'
p1181
sg14
g15
ssI526
(dp1182
g2
F7.75
sg3
I0
sg4
F40.5
sg5
I1
sg6
I0
sg7
I2
sg8
I0
sg9
I0
sg10
I0
sg11
I0
sg12
S'367232'
p1183
sg14
g15
ssI527
(dp1184
g2
F10.5
sg3
I1
sg4
F50.0
sg5
I2
sg6
I0
sg7
I1
sg8
I1
sg9
I1
sg10
I0
sg11
I0
sg12
S'W./C. 14258'
p1185
sg14
g15
ssI528
(dp1186
g2
F221.7792
sg3
I0
sg4
g15
sg5
I2
sg6
I0
sg7
I0
sg8
I0
sg9
I0
sg10
I0
sg11
I0
sg12
S'PC 17483'
p1187
sg14
S'C95'
p1188
ssI529
(dp1189
g2
F7.925
sg3
I0
sg4
F39.0
sg5
I2
sg6
I0
sg7
I2
sg8
I0
sg9
I0
sg10
I0
sg11
I0
sg12
S'3101296'
p1190
sg14
g15
ssI530
(dp1191
g2
F11.5
sg3
I0
sg4
F23.0
sg5
I2
sg6
I1
sg7
I1
sg8
I0
sg9
I0
sg10
I3
sg11
I2
sg12
S'29104'
p1192
sg14
g15
ssI531
(dp1193
g2
F26.0
sg3
I1
sg4
F2.0
sg5
I2
sg6
I1
sg7
I1
sg8
I1
sg9
I1
sg10
I2
sg11
I1
sg12
S'26360'
p1194
sg14
g15
ssI532
(dp1195
g2
F7.2292
sg3
I0
sg4
g15
sg5
I0
sg6
I0
sg7
I2
sg8
I0
sg9
I0
sg10
I0
sg11
I0
sg12
S'2641'
p1196
sg14
g15
ssI533
(dp1197
g2
F7.2292
sg3
I0
sg4
F17.0
sg5
I0
sg6
I1
sg7
I2
sg8
I0
sg9
I0
sg10
I2
sg11
I1
sg12
S'2690'
p1198
sg14
g15
ssI534
(dp1199
g2
F22.3583
sg3
F0.333333
sg4
g15
sg5
I0
sg6
I2
sg7
I2
sg8
I1
sg9
I1
sg10
I2
sg11
I0
sg12
S'2668'
p1200
sg14
g15
ssI535
(dp1201
g2
F8.6625
sg3
I1
sg4
F30.0
sg5
I2
sg6
I0
sg7
I2
sg8
I1
sg9
I0
sg10
I0
sg11
I0
sg12
S'315084'
p1202
sg14
g15
ssI536
(dp1203
g2
F26.25
sg3
I1
sg4
F7.0
sg5
I2
sg6
I2
sg7
I1
sg8
I1
sg9
I1
sg10
I2
sg11
I0
sg12
S'F.C.C. 13529'
p1204
sg14
g15
ssI537
(dp1205
g2
F26.55
sg3
I4
sg4
F45.0
sg5
I2
sg6
I0
sg7
I0
sg8
I0
sg9
I0
sg10
I0
sg11
I0
sg12
S'113050'
p1206
sg14
S'B38'
p1207
ssI538
(dp1208
g2
F106.425
sg3
I1
sg4
F30.0
sg5
I0
sg6
I0
sg7
I0
sg8
I1
sg9
I1
sg10
I0
sg11
I0
sg12
S'PC 17761'
p1209
sg14
g15
ssI539
(dp1210
g2
F14.5
sg3
I0
sg4
g15
sg5
I2
sg6
I0
sg7
I2
sg8
I0
sg9
I0
sg10
I0
sg11
I0
sg12
S'364498'
p1211
sg14
g15
ssI540
(dp1212
g2
F49.5
sg3
I1
sg4
F22.0
sg5
I0
sg6
I2
sg7
I0
sg8
I1
sg9
I1
sg10
I2
sg11
I0
sg12
S'13568'
p1213
sg14
S'B39'
p1214
ssI541
(dp1215
g2
F71.0
sg3
I1
sg4
F36.0
sg5
I2
sg6
I2
sg7
I0
sg8
I1
sg9
I1
sg10
I2
sg11
I0
sg12
S'WE/P 5735'
p1216
sg14
S'B22'
p1217
ssI542
(dp1218
g2
F31.275
sg3
I1
sg4
F9.0
sg5
I2
sg6
I2
sg7
I2
sg8
I1
sg9
I0
sg10
I6
sg11
I4
sg12
S'347082'
p1219
sg14
g15
ssI543
(dp1220
g2
F31.275
sg3
I1
sg4
F11.0
sg5
I2
sg6
I2
sg7
I2
sg8
I1
sg9
I0
sg10
I6
sg11
I4
sg12
S'347082'
p1221
sg14
g15
ssI544
(dp1222
g2
F26.0
sg3
I0
sg4
F32.0
sg5
I2
sg6
I0
sg7
I1
sg8
I0
sg9
I1
sg10
I1
sg11
I1
sg12
S'2908'
p1223
sg14
g15
ssI545
(dp1224
g2
F106.425
sg3
I0
sg4
F50.0
sg5
I0
sg6
I0
sg7
I0
sg8
I0
sg9
I0
sg10
I1
sg11
I1
sg12
S'PC 17761'
p1225
sg14
S'C86'
p1226
ssI546
(dp1227
g2
F26.0
sg3
I0
sg4
F64.0
sg5
I2
sg6
I0
sg7
I0
sg8
I0
sg9
I0
sg10
I0
sg11
I0
sg12
S'693'
p1228
sg14
g15
ssI547
(dp1229
g2
F26.0
sg3
F0.333333
sg4
F19.0
sg5
I2
sg6
I0
sg7
I1
sg8
I1
sg9
I1
sg10
I1
sg11
I1
sg12
S'2908'
p1230
sg14
g15
ssI548
(dp1231
g2
F13.8625
sg3
I4
sg4
g15
sg5
I0
sg6
I0
sg7
I1
sg8
I0
sg9
I1
sg10
I0
sg11
I0
sg12
S'SC/PARIS 2146'
p1232
sg14
g15
ssI549
(dp1233
g2
F20.525
sg3
I0
sg4
F33.0
sg5
I2
sg6
I1
sg7
I2
sg8
I0
sg9
I0
sg10
I2
sg11
I1
sg12
S'363291'
p1234
sg14
g15
ssI550
(dp1235
g2
F36.75
sg3
F0.666666
sg4
F8.0
sg5
I2
sg6
I1
sg7
I1
sg8
I0
sg9
I1
sg10
I2
sg11
I1
sg12
S'C.A. 33112'
p1236
sg14
g15
ssI551
(dp1237
g2
F110.8833
sg3
I0
sg4
F17.0
sg5
I0
sg6
I2
sg7
I0
sg8
I0
sg9
I1
sg10
I2
sg11
I0
sg12
S'17421'
p1238
sg14
S'C70'
p1239
ssI552
(dp1240
g2
F26.0
sg3
I0
sg4
F27.0
sg5
I2
sg6
I0
sg7
I1
sg8
I0
sg9
I0
sg10
I0
sg11
I0
sg12
S'244358'
p1241
sg14
g15
ssI553
(dp1242
g2
F7.8292
sg3
I0
sg4
g15
sg5
I1
sg6
I0
sg7
I2
sg8
I0
sg9
I0
sg10
I0
sg11
I0
sg12
S'330979'
p1243
sg14
g15
ssI554
(dp1244
g2
F7.225
sg3
I0
sg4
F22.0
sg5
I0
sg6
I0
sg7
I2
sg8
I0
sg9
I1
sg10
I0
sg11
I0
sg12
S'2620'
p1245
sg14
g15
ssI555
(dp1246
g2
F7.775
sg3
I1
sg4
F22.0
sg5
I2
sg6
I0
sg7
I2
sg8
I1
sg9
I1
sg10
I0
sg11
I0
sg12
S'347085'
p1247
sg14
g15
ssI556
(dp1248
g2
F26.55
sg3
I0
sg4
F62.0
sg5
I2
sg6
I0
sg7
I0
sg8
I0
sg9
I0
sg10
I0
sg11
I0
sg12
S'113807'
p1249
sg14
g15
ssI557
(dp1250
g2
F39.6
sg3
I4
sg4
F48.0
sg5
I0
sg6
I0
sg7
I0
sg8
I1
sg9
I1
sg10
I1
sg11
I1
sg12
S'11755'
p1251
sg14
S'A16'
p1252
ssI558
(dp1253
g2
F227.525
sg3
I0
sg4
g15
sg5
I0
sg6
I0
sg7
I0
sg8
I0
sg9
I0
sg10
I0
sg11
I0
sg12
S'PC 17757'
p1254
sg14
g15
ssI559
(dp1255
g2
F79.65
sg3
F0.333333
sg4
F39.0
sg5
I2
sg6
I1
sg7
I0
sg8
I1
sg9
I1
sg10
I2
sg11
I1
sg12
S'110413'
p1256
sg14
S'E67'
p1257
ssI560
(dp1258
g2
F17.4
sg3
I4
sg4
F36.0
sg5
I2
sg6
I0
sg7
I2
sg8
I1
sg9
I1
sg10
I1
sg11
I1
sg12
S'345572'
p1259
sg14
g15
ssI561
(dp1260
g2
F7.75
sg3
I0
sg4
g15
sg5
I1
sg6
I0
sg7
I2
sg8
I0
sg9
I0
sg10
I0
sg11
I0
sg12
S'372622'
p1261
sg14
g15
ssI562
(dp1262
g2
F7.8958
sg3
I0
sg4
F40.0
sg5
I2
sg6
I0
sg7
I2
sg8
I0
sg9
I0
sg10
I0
sg11
I0
sg12
S'349251'
p1263
sg14
g15
ssI563
(dp1264
g2
F13.5
sg3
I0
sg4
F28.0
sg5
I2
sg6
I0
sg7
I1
sg8
I0
sg9
I0
sg10
I0
sg11
I0
sg12
S'218629'
p1265
sg14
g15
ssI564
(dp1266
g2
F8.05
sg3
I0
sg4
g15
sg5
I2
sg6
I0
sg7
I2
sg8
I0
sg9
I0
sg10
I0
sg11
I0
sg12
S'SOTON/OQ 392082'
p1267
sg14
g15
ssI565
(dp1268
g2
F8.05
sg3
I1
sg4
g15
sg5
I2
sg6
I0
sg7
I2
sg8
I1
sg9
I0
sg10
I0
sg11
I0
sg12
S'SOTON/O.Q. 392087'
p1269
sg14
g15
ssI566
(dp1270
g2
F24.15
sg3
I0
sg4
F24.0
sg5
I2
sg6
I0
sg7
I2
sg8
I0
sg9
I0
sg10
I2
sg11
I2
sg12
S'A/4 48871'
p1271
sg14
g15
ssI567
(dp1272
g2
F7.8958
sg3
I0
sg4
F19.0
sg5
I2
sg6
I0
sg7
I2
sg8
I0
sg9
I0
sg10
I0
sg11
I0
sg12
S'349205'
p1273
sg14
g15
ssI568
(dp1274
g2
F21.075
sg3
F0.333333
sg4
F29.0
sg5
I2
sg6
I4
sg7
I2
sg8
I1
sg9
I0
sg10
I4
sg11
I0
sg12
S'349909'
p1275
sg14
g15
ssI569
(dp1276
g2
F7.2292
sg3
I0
sg4
g15
sg5
I0
sg6
I0
sg7
I2
sg8
I0
sg9
I0
sg10
I0
sg11
I0
sg12
S'2686'
p1277
sg14
g15
ssI570
(dp1278
g2
F7.8542
sg3
I0
sg4
F32.0
sg5
I2
sg6
I0
sg7
I2
sg8
I0
sg9
I1
sg10
I0
sg11
I0
sg12
S'350417'
p1279
sg14
g15
ssI571
(dp1280
g2
F10.5
sg3
I0
sg4
F62.0
sg5
I2
sg6
I0
sg7
I1
sg8
I0
sg9
I1
sg10
I0
sg11
I0
sg12
S'S.W./PP 752'
p1281
sg14
g15
ssI572
(dp1282
g2
F51.4792
sg3
F0.333333
sg4
F53.0
sg5
I2
sg6
I0
sg7
I0
sg8
I1
sg9
I1
sg10
I2
sg11
I2
sg12
S'11769'
p1283
sg14
S'C101'
p1284
ssI573
(dp1285
g2
F26.3875
sg3
I0
sg4
F36.0
sg5
I2
sg6
I0
sg7
I0
sg8
I0
sg9
I1
sg10
I0
sg11
I0
sg12
S'PC 17474'
p1286
sg14
S'E25'
p1287
ssI574
(dp1288
g2
F7.75
sg3
I1
sg4
g15
sg5
I1
sg6
I0
sg7
I2
sg8
I1
sg9
I1
sg10
I0
sg11
I0
sg12
S'14312'
p1289
sg14
g15
ssI575
(dp1290
g2
F8.05
sg3
I0
sg4
F16.0
sg5
I2
sg6
I0
sg7
I2
sg8
I0
sg9
I0
sg10
I0
sg11
I0
sg12
S'A/4. 20589'
p1291
sg14
g15
ssI576
(dp1292
g2
F14.5
sg3
I0
sg4
F19.0
sg5
I2
sg6
I0
sg7
I2
sg8
I0
sg9
I0
sg10
I0
sg11
I0
sg12
S'358585'
p1293
sg14
g15
ssI577
(dp1294
g2
F13.0
sg3
I1
sg4
F34.0
sg5
I2
sg6
I0
sg7
I1
sg8
I1
sg9
I1
sg10
I0
sg11
I0
sg12
S'243880'
p1295
sg14
g15
ssI578
(dp1296
g2
F55.9
sg3
F0.333333
sg4
F39.0
sg5
I2
sg6
I0
sg7
I0
sg8
I1
sg9
I1
sg10
I1
sg11
I1
sg12
S'13507'
p1297
sg14
S'E44'
p1298
ssI579
(dp1299
g2
F14.4583
sg3
F0.333333
sg4
g15
sg5
I0
sg6
I0
sg7
I2
sg8
I1
sg9
I0
sg10
I1
sg11
I1
sg12
S'2689'
p1300
sg14
g15
ssI580
(dp1301
g2
F7.925
sg3
I0
sg4
F32.0
sg5
I2
sg6
I0
sg7
I2
sg8
I0
sg9
I1
sg10
I0
sg11
I0
sg12
S'STON/O 2. 3101286'
p1302
sg14
g15
ssI581
(dp1303
g2
F30.0
sg3
I1
sg4
F25.0
sg5
I2
sg6
I1
sg7
I1
sg8
I1
sg9
I1
sg10
I2
sg11
I1
sg12
S'237789'
p1304
sg14
g15
ssI582
(dp1305
g2
F110.8833
sg3
F0.333333
sg4
F39.0
sg5
I0
sg6
I1
sg7
I0
sg8
I1
sg9
I1
sg10
I2
sg11
I1
sg12
S'17421'
p1306
sg14
S'C68'
p1307
ssI583
(dp1308
g2
F26.0
sg3
I0
sg4
F54.0
sg5
I2
sg6
I0
sg7
I1
sg8
I0
sg9
I0
sg10
I0
sg11
I0
sg12
S'28403'
p1309
sg14
g15
ssI584
(dp1310
g2
F40.125
sg3
I0
sg4
F36.0
sg5
I0
sg6
I0
sg7
I0
sg8
I0
sg9
I0
sg10
I0
sg11
I0
sg12
S'13049'
p1311
sg14
S'A10'
p1312
ssI585
(dp1313
g2
F8.7125
sg3
I0
sg4
g15
sg5
I0
sg6
I0
sg7
I2
sg8
I0
sg9
I0
sg10
I0
sg11
I0
sg12
S'3411'
p1314
sg14
g15
ssI586
(dp1315
g2
F79.65
sg3
I1
sg4
F18.0
sg5
I2
sg6
I2
sg7
I0
sg8
I1
sg9
I1
sg10
I2
sg11
I0
sg12
S'110413'
p1316
sg14
S'E68'
p1317
ssI587
(dp1318
g2
F15.0
sg3
I0
sg4
F47.0
sg5
I2
sg6
I0
sg7
I1
sg8
I0
sg9
I0
sg10
I0
sg11
I0
sg12
S'237565'
p1319
sg14
g15
ssI588
(dp1320
g2
F79.2
sg3
I0
sg4
F60.0
sg5
I0
sg6
I1
sg7
I0
sg8
I0
sg9
I1
sg10
I2
sg11
I1
sg12
S'13567'
p1321
sg14
S'B41'
p1322
ssI589
(dp1323
g2
F8.05
sg3
I0
sg4
F22.0
sg5
I2
sg6
I0
sg7
I2
sg8
I0
sg9
I0
sg10
I0
sg11
I0
sg12
S'14973'
p1324
sg14
g15
ssI590
(dp1325
g2
F8.05
sg3
I0
sg4
g15
sg5
I2
sg6
I0
sg7
I2
sg8
I0
sg9
I0
sg10
I0
sg11
I0
sg12
S'A./5. 3235'
p1326
sg14
g15
ssI591
(dp1327
g2
F7.125
sg3
I0
sg4
F35.0
sg5
I2
sg6
I0
sg7
I2
sg8
I0
sg9
I0
sg10
I0
sg11
I0
sg12
S'STON/O 2. 3101273'
p1328
sg14
g15
ssI592
(dp1329
g2
F78.2667
sg3
F0.333333
sg4
F52.0
sg5
I0
sg6
I0
sg7
I0
sg8
I1
sg9
I1
sg10
I1
sg11
I1
sg12
S'36947'
p1330
sg14
S'D20'
p1331
ssI593
(dp1332
g2
F7.25
sg3
I0
sg4
F47.0
sg5
I2
sg6
I0
sg7
I2
sg8
I0
sg9
I0
sg10
I0
sg11
I0
sg12
S'A/5 3902'
p1333
sg14
g15
ssI594
(dp1334
g2
F7.75
sg3
I1
sg4
g15
sg5
I1
sg6
I2
sg7
I2
sg8
I1
sg9
I0
sg10
I2
sg11
I0
sg12
S'364848'
p1335
sg14
g15
ssI595
(dp1336
g2
F26.0
sg3
I0
sg4
F37.0
sg5
I2
sg6
I0
sg7
I1
sg8
I0
sg9
I0
sg10
I1
sg11
I1
sg12
S'SC/AH 29037'
p1337
sg14
g15
ssI596
(dp1338
g2
F24.15
sg3
I4
sg4
F36.0
sg5
I2
sg6
I1
sg7
I2
sg8
I0
sg9
I0
sg10
I2
sg11
I1
sg12
S'345773'
p1339
sg14
g15
ssI597
(dp1340
g2
F33.0
sg3
I1
sg4
g15
sg5
I2
sg6
I0
sg7
I1
sg8
I1
sg9
I1
sg10
I0
sg11
I0
sg12
S'248727'
p1341
sg14
g15
ssI598
(dp1342
g2
F0.0
sg3
I0
sg4
F49.0
sg5
I2
sg6
I0
sg7
I2
sg8
I0
sg9
I0
sg10
I0
sg11
I0
sg12
S'LINE'
p1343
sg14
g15
ssI599
(dp1344
g2
F7.225
sg3
I0
sg4
g15
sg5
I0
sg6
I0
sg7
I2
sg8
I0
sg9
I0
sg10
I0
sg11
I0
sg12
S'2664'
p1345
sg14
g15
ssI600
(dp1346
g2
F56.9292
sg3
I4
sg4
F49.0
sg5
I0
sg6
I0
sg7
I0
sg8
I0
sg9
I1
sg10
I1
sg11
I1
sg12
S'PC 17485'
p1347
sg14
S'A20'
p1348
ssI601
(dp1349
g2
F27.0
sg3
F0.333333
sg4
F24.0
sg5
I2
sg6
I1
sg7
I1
sg8
I1
sg9
I1
sg10
I3
sg11
I2
sg12
S'243847'
p1350
sg14
g15
ssI602
(dp1351
g2
F7.8958
sg3
I0
sg4
g15
sg5
I2
sg6
I0
sg7
I2
sg8
I0
sg9
I0
sg10
I0
sg11
I0
sg12
S'349214'
p1352
sg14
g15
ssI603
(dp1353
g2
F42.4
sg3
I0
sg4
g15
sg5
I2
sg6
I0
sg7
I0
sg8
I0
sg9
I0
sg10
I0
sg11
I0
sg12
S'113796'
p1354
sg14
g15
ssI604
(dp1355
g2
F8.05
sg3
I0
sg4
F44.0
sg5
I2
sg6
I0
sg7
I2
sg8
I0
sg9
I0
sg10
I0
sg11
I0
sg12
S'364511'
p1356
sg14
g15
ssI605
(dp1357
g2
F26.55
sg3
I0
sg4
F35.0
sg5
I0
sg6
I0
sg7
I0
sg8
I0
sg9
I1
sg10
I0
sg11
I0
sg12
S'111426'
p1358
sg14
g15
ssI606
(dp1359
g2
F15.55
sg3
I0
sg4
F36.0
sg5
I2
sg6
I0
sg7
I2
sg8
I0
sg9
I0
sg10
I1
sg11
I1
sg12
S'349910'
p1360
sg14
g15
ssI607
(dp1361
g2
F7.8958
sg3
I0
sg4
F30.0
sg5
I2
sg6
I0
sg7
I2
sg8
I0
sg9
I0
sg10
I0
sg11
I0
sg12
S'349246'
p1362
sg14
g15
ssI608
(dp1363
g2
F30.5
sg3
I0
sg4
F27.0
sg5
I2
sg6
I0
sg7
I0
sg8
I0
sg9
I1
sg10
I0
sg11
I0
sg12
S'113804'
p1364
sg14
g15
ssI609
(dp1365
g2
F41.5792
sg3
F0.333333
sg4
F22.0
sg5
I0
sg6
I2
sg7
I1
sg8
I1
sg9
I1
sg10
I3
sg11
I1
sg12
S'SC/Paris 2123'
p1366
sg14
g15
ssI610
(dp1367
g2
F153.4625
sg3
I1
sg4
F40.0
sg5
I2
sg6
I0
sg7
I0
sg8
I1
sg9
I1
sg10
I0
sg11
I0
sg12
S'PC 17582'
p1368
sg14
S'C125'
p1369
ssI611
(dp1370
g2
F31.275
sg3
F0.333333
sg4
F39.0
sg5
I2
sg6
I5
sg7
I2
sg8
I1
sg9
I0
sg10
I6
sg11
I1
sg12
S'347082'
p1371
sg14
g15
ssI612
(dp1372
g2
F7.05
sg3
I0
sg4
g15
sg5
I2
sg6
I0
sg7
I2
sg8
I0
sg9
I0
sg10
I0
sg11
I0
sg12
S'SOTON/O.Q. 3101305'
p1373
sg14
g15
ssI613
(dp1374
g2
F15.5
sg3
I1
sg4
g15
sg5
I1
sg6
I0
sg7
I2
sg8
I1
sg9
I1
sg10
I1
sg11
I1
sg12
S'367230'
p1375
sg14
g15
ssI614
(dp1376
g2
F7.75
sg3
I0
sg4
g15
sg5
I1
sg6
I0
sg7
I2
sg8
I0
sg9
I0
sg10
I0
sg11
I0
sg12
S'370377'
p1377
sg14
g15
ssI615
(dp1378
g2
F8.05
sg3
I0
sg4
F35.0
sg5
I2
sg6
I0
sg7
I2
sg8
I0
sg9
I0
sg10
I0
sg11
I0
sg12
S'364512'
p1379
sg14
g15
ssI616
(dp1380
g2
F65.0
sg3
I1
sg4
F24.0
sg5
I2
sg6
I2
sg7
I1
sg8
I1
sg9
I1
sg10
I3
sg11
I1
sg12
S'220845'
p1381
sg14
g15
ssI617
(dp1382
g2
F14.4
sg3
I0
sg4
F34.0
sg5
I2
sg6
I1
sg7
I2
sg8
I0
sg9
I0
sg10
I2
sg11
I1
sg12
S'347080'
p1383
sg14
g15
ssI618
(dp1384
g2
F16.1
sg3
F0.333333
sg4
F26.0
sg5
I2
sg6
I0
sg7
I2
sg8
I1
sg9
I0
sg10
I1
sg11
I1
sg12
S'A/5. 3336'
p1385
sg14
g15
ssI619
(dp1386
g2
F39.0
sg3
I1
sg4
F4.0
sg5
I2
sg6
I1
sg7
I1
sg8
I1
sg9
I1
sg10
I3
sg11
I2
sg12
S'230136'
p1387
sg14
S'F4'
p1388
ssI620
(dp1389
g2
F10.5
sg3
I0
sg4
F26.0
sg5
I2
sg6
I0
sg7
I1
sg8
I0
sg9
I0
sg10
I0
sg11
I0
sg12
S'31028'
p1390
sg14
g15
ssI621
(dp1391
g2
F14.4542
sg3
I0
sg4
F27.0
sg5
I0
sg6
I0
sg7
I2
sg8
I0
sg9
I0
sg10
I1
sg11
I1
sg12
S'2659'
p1392
sg14
g15
ssI622
(dp1393
g2
F52.5542
sg3
I0
sg4
F42.0
sg5
I2
sg6
I0
sg7
I0
sg8
I0
sg9
I1
sg10
I1
sg11
I1
sg12
S'11753'
p1394
sg14
S'D19'
p1395
ssI623
(dp1396
g2
F15.7417
sg3
I0
sg4
F20.0
sg5
I0
sg6
I1
sg7
I2
sg8
I0
sg9
I1
sg10
I2
sg11
I1
sg12
S'2653'
p1397
sg14
g15
ssI624
(dp1398
g2
F7.8542
sg3
I0
sg4
F21.0
sg5
I2
sg6
I0
sg7
I2
sg8
I0
sg9
I0
sg10
I0
sg11
I0
sg12
S'350029'
p1399
sg14
g15
ssI625
(dp1400
g2
F16.1
sg3
I0
sg4
F21.0
sg5
I2
sg6
I0
sg7
I2
sg8
I0
sg9
I0
sg10
I0
sg11
I0
sg12
S'54636'
p1401
sg14
g15
ssI626
(dp1402
g2
F32.3208
sg3
I0
sg4
F61.0
sg5
I2
sg6
I0
sg7
I0
sg8
I0
sg9
I0
sg10
I0
sg11
I0
sg12
S'36963'
p1403
sg14
S'D50'
p1404
ssI627
(dp1405
g2
F12.35
sg3
I4
sg4
F57.0
sg5
I1
sg6
I0
sg7
I1
sg8
I0
sg9
I0
sg10
I0
sg11
I0
sg12
S'219533'
p1406
sg14
g15
ssI628
(dp1407
g2
F77.9583
sg3
I1
sg4
F21.0
sg5
I2
sg6
I0
sg7
I0
sg8
I1
sg9
I1
sg10
I0
sg11
I0
sg12
S'13502'
p1408
sg14
S'D9'
p1409
ssI629
(dp1410
g2
F7.8958
sg3
I0
sg4
F26.0
sg5
I2
sg6
I0
sg7
I2
sg8
I0
sg9
I0
sg10
I0
sg11
I0
sg12
S'349224'
p1411
sg14
g15
ssI630
(dp1412
g2
F7.7333
sg3
I0
sg4
g15
sg5
I1
sg6
I0
sg7
I2
sg8
I0
sg9
I0
sg10
I0
sg11
I0
sg12
S'334912'
p1413
sg14
g15
ssI631
(dp1414
g2
F30.0
sg3
I0
sg4
F80.0
sg5
I2
sg6
I0
sg7
I0
sg8
I0
sg9
I1
sg10
I0
sg11
I0
sg12
S'27042'
p1415
sg14
S'A23'
p1416
ssI632
(dp1417
g2
F7.0542
sg3
I0
sg4
F51.0
sg5
I2
sg6
I0
sg7
I2
sg8
I0
sg9
I0
sg10
I0
sg11
I0
sg12
S'347743'
p1418
sg14
g15
ssI633
(dp1419
g2
F30.5
sg3
I4
sg4
F32.0
sg5
I0
sg6
I0
sg7
I0
sg8
I0
sg9
I1
sg10
I0
sg11
I0
sg12
S'13214'
p1420
sg14
S'B50'
p1421
ssI634
(dp1422
g2
F0.0
sg3
I0
sg4
g15
sg5
I2
sg6
I0
sg7
I0
sg8
I0
sg9
I0
sg10
I0
sg11
I0
sg12
S'112052'
p1423
sg14
g15
ssI635
(dp1424
g2
F27.9
sg3
I1
sg4
F9.0
sg5
I2
sg6
I2
sg7
I2
sg8
I1
sg9
I0
sg10
I5
sg11
I3
sg12
S'347088'
p1425
sg14
g15
ssI636
(dp1426
g2
F13.0
sg3
I1
sg4
F28.0
sg5
I2
sg6
I0
sg7
I1
sg8
I1
sg9
I1
sg10
I0
sg11
I0
sg12
S'237668'
p1427
sg14
g15
ssI637
(dp1428
g2
F7.925
sg3
I0
sg4
F32.0
sg5
I2
sg6
I0
sg7
I2
sg8
I0
sg9
I0
sg10
I0
sg11
I0
sg12
S'STON/O 2. 3101292'
p1429
sg14
g15
ssI638
(dp1430
g2
F26.25
sg3
I0
sg4
F31.0
sg5
I2
sg6
I1
sg7
I1
sg8
I0
sg9
I0
sg10
I2
sg11
I1
sg12
S'C.A. 31921'
p1431
sg14
g15
ssI639
(dp1432
g2
F39.6875
sg3
F0.333333
sg4
F41.0
sg5
I2
sg6
I5
sg7
I2
sg8
I1
sg9
I0
sg10
I5
sg11
I0
sg12
S'3101295'
p1433
sg14
g15
ssI640
(dp1434
g2
F16.1
sg3
I0
sg4
g15
sg5
I2
sg6
I0
sg7
I2
sg8
I0
sg9
I0
sg10
I1
sg11
I1
sg12
S'376564'
p1435
sg14
g15
ssI641
(dp1436
g2
F7.8542
sg3
I0
sg4
F20.0
sg5
I2
sg6
I0
sg7
I2
sg8
I0
sg9
I0
sg10
I0
sg11
I0
sg12
S'350050'
p1437
sg14
g15
ssI642
(dp1438
g2
F69.3
sg3
I4
sg4
F24.0
sg5
I0
sg6
I0
sg7
I0
sg8
I1
sg9
I1
sg10
I0
sg11
I0
sg12
S'PC 17477'
p1439
sg14
S'B35'
p1440
ssI643
(dp1441
g2
F27.9
sg3
I1
sg4
F2.0
sg5
I2
sg6
I2
sg7
I2
sg8
I1
sg9
I0
sg10
I5
sg11
I3
sg12
S'347088'
p1442
sg14
g15
ssI644
(dp1443
g2
F56.4958
sg3
I0
sg4
g15
sg5
I2
sg6
I0
sg7
I2
sg8
I0
sg9
I1
sg10
I0
sg11
I0
sg12
S'1601'
p1444
sg14
g15
ssI645
(dp1445
g2
F19.2583
sg3
I1
sg4
F0.75
sg5
I0
sg6
I1
sg7
I2
sg8
I1
sg9
I1
sg10
I3
sg11
I2
sg12
S'2666'
p1446
sg14
g15
ssI646
(dp1447
g2
F76.7292
sg3
I0
sg4
F48.0
sg5
I0
sg6
I0
sg7
I0
sg8
I0
sg9
I1
sg10
I1
sg11
I1
sg12
S'PC 17572'
p1448
sg14
S'D33'
p1449
ssI647
(dp1450
g2
F7.8958
sg3
I0
sg4
F19.0
sg5
I2
sg6
I0
sg7
I2
sg8
I0
sg9
I0
sg10
I0
sg11
I0
sg12
S'349231'
p1451
sg14
g15
ssI648
(dp1452
g2
F35.5
sg3
I4
sg4
F56.0
sg5
I0
sg6
I0
sg7
I0
sg8
I0
sg9
I1
sg10
I0
sg11
I0
sg12
S'13213'
p1453
sg14
S'A26'
p1454
ssI649
(dp1455
g2
F7.55
sg3
I0
sg4
g15
sg5
I2
sg6
I0
sg7
I2
sg8
I0
sg9
I0
sg10
I0
sg11
I0
sg12
S'S.O./P.P. 751'
p1456
sg14
g15
ssI650
(dp1457
g2
F7.55
sg3
I1
sg4
F23.0
sg5
I2
sg6
I0
sg7
I2
sg8
I1
sg9
I1
sg10
I0
sg11
I0
sg12
S'CA. 2314'
p1458
sg14
g15
ssI651
(dp1459
g2
F7.8958
sg3
I0
sg4
g15
sg5
I2
sg6
I0
sg7
I2
sg8
I0
sg9
I0
sg10
I0
sg11
I0
sg12
S'349221'
p1460
sg14
g15
ssI652
(dp1461
g2
F23.0
sg3
I1
sg4
F18.0
sg5
I2
sg6
I1
sg7
I1
sg8
I1
sg9
I1
sg10
I1
sg11
I0
sg12
S'231919'
p1462
sg14
g15
ssI653
(dp1463
g2
F8.4333
sg3
I0
sg4
F21.0
sg5
I2
sg6
I0
sg7
I2
sg8
I0
sg9
I0
sg10
I0
sg11
I0
sg12
S'8475'
p1464
sg14
g15
ssI654
(dp1465
g2
F7.8292
sg3
I1
sg4
g15
sg5
I1
sg6
I0
sg7
I2
sg8
I1
sg9
I1
sg10
I0
sg11
I0
sg12
S'330919'
p1466
sg14
g15
ssI655
(dp1467
g2
F6.75
sg3
I1
sg4
F18.0
sg5
I1
sg6
I0
sg7
I2
sg8
I1
sg9
I0
sg10
I0
sg11
I0
sg12
S'365226'
p1468
sg14
g15
ssI656
(dp1469
g2
F73.5
sg3
I0
sg4
F24.0
sg5
I2
sg6
I0
sg7
I1
sg8
I0
sg9
I0
sg10
I2
sg11
I2
sg12
S'S.O.C. 14879'
p1470
sg14
g15
ssI657
(dp1471
g2
F7.8958
sg3
I0
sg4
g15
sg5
I2
sg6
I0
sg7
I2
sg8
I0
sg9
I0
sg10
I0
sg11
I0
sg12
S'349223'
p1472
sg14
g15
ssI658
(dp1473
g2
F15.5
sg3
F0.333333
sg4
F32.0
sg5
I1
sg6
I1
sg7
I2
sg8
I1
sg9
I0
sg10
I2
sg11
I1
sg12
S'364849'
p1474
sg14
g15
ssI659
(dp1475
g2
F13.0
sg3
I0
sg4
F23.0
sg5
I2
sg6
I0
sg7
I1
sg8
I0
sg9
I0
sg10
I0
sg11
I0
sg12
S'29751'
p1476
sg14
g15
ssI660
(dp1477
g2
F113.275
sg3
I0
sg4
F58.0
sg5
I0
sg6
I2
sg7
I0
sg8
I0
sg9
I0
sg10
I2
sg11
I0
sg12
S'35273'
p1478
sg14
S'D48'
p1479
ssI661
(dp1480
g2
F133.65
sg3
I4
sg4
F50.0
sg5
I2
sg6
I0
sg7
I0
sg8
I0
sg9
I1
sg10
I2
sg11
I2
sg12
S'PC 17611'
p1481
sg14
g15
ssI662
(dp1482
g2
F7.225
sg3
I0
sg4
F40.0
sg5
I0
sg6
I0
sg7
I2
sg8
I0
sg9
I0
sg10
I0
sg11
I0
sg12
S'2623'
p1483
sg14
g15
ssI663
(dp1484
g2
F25.5875
sg3
I0
sg4
F47.0
sg5
I2
sg6
I0
sg7
I0
sg8
I0
sg9
I0
sg10
I0
sg11
I0
sg12
S'5727'
p1485
sg14
S'E58'
p1486
ssI664
(dp1487
g2
F7.4958
sg3
I0
sg4
F36.0
sg5
I2
sg6
I0
sg7
I2
sg8
I0
sg9
I0
sg10
I0
sg11
I0
sg12
S'349210'
p1488
sg14
g15
ssI665
(dp1489
g2
F7.925
sg3
I0
sg4
F20.0
sg5
I2
sg6
I0
sg7
I2
sg8
I0
sg9
I1
sg10
I1
sg11
I1
sg12
S'STON/O 2. 3101285'
p1490
sg14
g15
ssI666
(dp1491
g2
F73.5
sg3
I0
sg4
F32.0
sg5
I2
sg6
I0
sg7
I1
sg8
I0
sg9
I0
sg10
I2
sg11
I2
sg12
S'S.O.C. 14879'
p1492
sg14
g15
ssI667
(dp1493
g2
F13.0
sg3
I0
sg4
F25.0
sg5
I2
sg6
I0
sg7
I1
sg8
I0
sg9
I0
sg10
I0
sg11
I0
sg12
S'234686'
p1494
sg14
g15
ssI668
(dp1495
g2
F7.775
sg3
I0
sg4
g15
sg5
I2
sg6
I0
sg7
I2
sg8
I0
sg9
I0
sg10
I0
sg11
I0
sg12
S'312993'
p1496
sg14
g15
ssI669
(dp1497
g2
F8.05
sg3
I0
sg4
F43.0
sg5
I2
sg6
I0
sg7
I2
sg8
I0
sg9
I0
sg10
I0
sg11
I0
sg12
S'A/5 3536'
p1498
sg14
g15
ssI670
(dp1499
g2
F52.0
sg3
F0.333333
sg4
g15
sg5
I2
sg6
I0
sg7
I0
sg8
I1
sg9
I1
sg10
I1
sg11
I1
sg12
S'19996'
p1500
sg14
S'C126'
p1501
ssI671
(dp1502
g2
F39.0
sg3
F0.333333
sg4
F40.0
sg5
I2
sg6
I1
sg7
I1
sg8
I1
sg9
I1
sg10
I2
sg11
I1
sg12
S'29750'
p1503
sg14
g15
ssI672
(dp1504
g2
F52.0
sg3
I0
sg4
F31.0
sg5
I2
sg6
I0
sg7
I0
sg8
I0
sg9
I0
sg10
I1
sg11
I1
sg12
S'F.C. 12750'
p1505
sg14
S'B71'
p1506
ssI673
(dp1507
g2
F10.5
sg3
I0
sg4
F70.0
sg5
I2
sg6
I0
sg7
I1
sg8
I0
sg9
I0
sg10
I0
sg11
I0
sg12
S'C.A. 24580'
p1508
sg14
g15
ssI674
(dp1509
g2
F13.0
sg3
I0
sg4
F31.0
sg5
I2
sg6
I0
sg7
I1
sg8
I0
sg9
I1
sg10
I0
sg11
I0
sg12
S'244270'
p1510
sg14
g15
ssI675
(dp1511
g2
F0.0
sg3
I0
sg4
g15
sg5
I2
sg6
I0
sg7
I1
sg8
I0
sg9
I0
sg10
I0
sg11
I0
sg12
S'239856'
p1512
sg14
g15
ssI676
(dp1513
g2
F7.775
sg3
I0
sg4
F18.0
sg5
I2
sg6
I0
sg7
I2
sg8
I0
sg9
I0
sg10
I0
sg11
I0
sg12
S'349912'
p1514
sg14
g15
ssI677
(dp1515
g2
F8.05
sg3
I0
sg4
F24.5
sg5
I2
sg6
I0
sg7
I2
sg8
I0
sg9
I0
sg10
I0
sg11
I0
sg12
S'342826'
p1516
sg14
g15
ssI678
(dp1517
g2
F9.8417
sg3
I1
sg4
F18.0
sg5
I2
sg6
I0
sg7
I2
sg8
I1
sg9
I1
sg10
I0
sg11
I0
sg12
S'4138'
p1518
sg14
g15
ssI679
(dp1519
g2
F46.9
sg3
F0.333333
sg4
F43.0
sg5
I2
sg6
I6
sg7
I2
sg8
I1
sg9
I0
sg10
I7
sg11
I1
sg12
S'CA 2144'
p1520
sg14
g15
ssI680
(dp1521
g2
F512.3292
sg3
I0
sg4
F36.0
sg5
I0
sg6
I1
sg7
I0
sg8
I0
sg9
I1
sg10
I1
sg11
I0
sg12
S'PC 17755'
p1522
sg14
S'B51 B53 B55'
p1523
ssI681
(dp1524
g2
F8.1375
sg3
I1
sg4
g15
sg5
I1
sg6
I0
sg7
I2
sg8
I1
sg9
I0
sg10
I0
sg11
I0
sg12
S'330935'
p1525
sg14
g15
ssI682
(dp1526
g2
F76.7292
sg3
I0
sg4
F27.0
sg5
I0
sg6
I0
sg7
I0
sg8
I0
sg9
I1
sg10
I0
sg11
I0
sg12
S'PC 17572'
p1527
sg14
S'D49'
p1528
ssI683
(dp1529
g2
F9.225
sg3
I0
sg4
F20.0
sg5
I2
sg6
I0
sg7
I2
sg8
I0
sg9
I0
sg10
I0
sg11
I0
sg12
S'6563'
p1530
sg14
g15
ssI684
(dp1531
g2
F46.9
sg3
I0
sg4
F14.0
sg5
I2
sg6
I2
sg7
I2
sg8
I0
sg9
I0
sg10
I7
sg11
I5
sg12
S'CA 2144'
p1532
sg14
g15
ssI685
(dp1533
g2
F39.0
sg3
I0
sg4
F60.0
sg5
I2
sg6
I1
sg7
I1
sg8
I0
sg9
I0
sg10
I2
sg11
I1
sg12
S'29750'
p1534
sg14
g15
ssI686
(dp1535
g2
F41.5792
sg3
I0
sg4
F25.0
sg5
I0
sg6
I2
sg7
I1
sg8
I0
sg9
I0
sg10
I3
sg11
I1
sg12
S'SC/Paris 2123'
p1536
sg14
g15
ssI687
(dp1537
g2
F39.6875
sg3
I0
sg4
F14.0
sg5
I2
sg6
I1
sg7
I2
sg8
I0
sg9
I0
sg10
I5
sg11
I4
sg12
S'3101295'
p1538
sg14
g15
ssI688
(dp1539
g2
F10.1708
sg3
I0
sg4
F19.0
sg5
I2
sg6
I0
sg7
I2
sg8
I0
sg9
I0
sg10
I0
sg11
I0
sg12
S'349228'
p1540
sg14
g15
ssI689
(dp1541
g2
F7.7958
sg3
I0
sg4
F18.0
sg5
I2
sg6
I0
sg7
I2
sg8
I0
sg9
I0
sg10
I0
sg11
I0
sg12
S'350036'
p1542
sg14
g15
ssI690
(dp1543
g2
F211.3375
sg3
I1
sg4
F15.0
sg5
I2
sg6
I1
sg7
I0
sg8
I1
sg9
I1
sg10
I1
sg11
I0
sg12
S'24160'
p1544
sg14
S'B5'
p1545
ssI691
(dp1546
g2
F57.0
sg3
I0
sg4
F31.0
sg5
I2
sg6
I0
sg7
I0
sg8
I0
sg9
I1
sg10
I1
sg11
I1
sg12
S'17474'
p1547
sg14
S'B20'
p1548
ssI692
(dp1549
g2
F13.4167
sg3
I1
sg4
F4.0
sg5
I0
sg6
I1
sg7
I2
sg8
I1
sg9
I1
sg10
I1
sg11
I0
sg12
S'349256'
p1550
sg14
g15
ssI693
(dp1551
g2
F56.4958
sg3
I0
sg4
g15
sg5
I2
sg6
I0
sg7
I2
sg8
I0
sg9
I1
sg10
I0
sg11
I0
sg12
S'1601'
p1552
sg14
g15
ssI694
(dp1553
g2
F7.225
sg3
I0
sg4
F25.0
sg5
I0
sg6
I0
sg7
I2
sg8
I0
sg9
I0
sg10
I0
sg11
I0
sg12
S'2672'
p1554
sg14
g15
ssI695
(dp1555
g2
F26.55
sg3
I4
sg4
F60.0
sg5
I2
sg6
I0
sg7
I0
sg8
I0
sg9
I0
sg10
I0
sg11
I0
sg12
S'113800'
p1556
sg14
g15
ssI696
(dp1557
g2
F13.5
sg3
I0
sg4
F52.0
sg5
I2
sg6
I0
sg7
I1
sg8
I0
sg9
I0
sg10
I0
sg11
I0
sg12
S'248731'
p1558
sg14
g15
ssI697
(dp1559
g2
F8.05
sg3
I0
sg4
F44.0
sg5
I2
sg6
I0
sg7
I2
sg8
I0
sg9
I0
sg10
I0
sg11
I0
sg12
S'363592'
p1560
sg14
g15
ssI698
(dp1561
g2
F7.7333
sg3
I1
sg4
g15
sg5
I1
sg6
I0
sg7
I2
sg8
I1
sg9
I1
sg10
I0
sg11
I0
sg12
S'35852'
p1562
sg14
g15
ssI699
(dp1563
g2
F110.8833
sg3
I0
sg4
F49.0
sg5
I0
sg6
I1
sg7
I0
sg8
I0
sg9
I0
sg10
I2
sg11
I1
sg12
S'17421'
p1564
sg14
S'C68'
p1565
ssI700
(dp1566
g2
F7.65
sg3
I0
sg4
F42.0
sg5
I2
sg6
I0
sg7
I2
sg8
I0
sg9
I0
sg10
I0
sg11
I0
sg12
S'348121'
p1567
sg14
S'F G63'
p1568
ssI701
(dp1569
g2
F227.525
sg3
F0.333333
sg4
F18.0
sg5
I0
sg6
I0
sg7
I0
sg8
I1
sg9
I1
sg10
I1
sg11
I1
sg12
S'PC 17757'
p1570
sg14
S'C62 C64'
p1571
ssI702
(dp1572
g2
F26.2875
sg3
I0
sg4
F35.0
sg5
I2
sg6
I0
sg7
I0
sg8
I0
sg9
I1
sg10
I0
sg11
I0
sg12
S'PC 17475'
p1573
sg14
S'E24'
p1574
ssI703
(dp1575
g2
F14.4542
sg3
I1
sg4
F18.0
sg5
I0
sg6
I1
sg7
I2
sg8
I1
sg9
I0
sg10
I1
sg11
I0
sg12
S'2691'
p1576
sg14
g15
ssI704
(dp1577
g2
F7.7417
sg3
I0
sg4
F25.0
sg5
I1
sg6
I0
sg7
I2
sg8
I0
sg9
I0
sg10
I0
sg11
I0
sg12
S'36864'
p1578
sg14
g15
ssI705
(dp1579
g2
F7.8542
sg3
I0
sg4
F26.0
sg5
I2
sg6
I0
sg7
I2
sg8
I0
sg9
I0
sg10
I1
sg11
I1
sg12
S'350025'
p1580
sg14
g15
ssI706
(dp1581
g2
F26.0
sg3
I0
sg4
F39.0
sg5
I2
sg6
I0
sg7
I1
sg8
I0
sg9
I0
sg10
I0
sg11
I0
sg12
S'250655'
p1582
sg14
g15
ssI707
(dp1583
g2
F13.5
sg3
F0.333333
sg4
F45.0
sg5
I2
sg6
I0
sg7
I1
sg8
I1
sg9
I1
sg10
I0
sg11
I0
sg12
S'223596'
p1584
sg14
g15
ssI708
(dp1585
g2
F26.2875
sg3
I0
sg4
F42.0
sg5
I2
sg6
I0
sg7
I0
sg8
I0
sg9
I1
sg10
I0
sg11
I0
sg12
S'PC 17476'
p1586
sg14
S'E24'
p1587
ssI709
(dp1588
g2
F151.55
sg3
I1
sg4
F22.0
sg5
I2
sg6
I0
sg7
I0
sg8
I1
sg9
I1
sg10
I0
sg11
I0
sg12
S'113781'
p1589
sg14
g15
ssI710
(dp1590
g2
F15.2458
sg3
F0.666666
sg4
g15
sg5
I0
sg6
I1
sg7
I2
sg8
I0
sg9
I1
sg10
I2
sg11
I1
sg12
S'2661'
p1591
sg14
g15
ssI711
(dp1592
g2
F49.5042
sg3
I4
sg4
F24.0
sg5
I0
sg6
I0
sg7
I0
sg8
I1
sg9
I1
sg10
I0
sg11
I0
sg12
S'PC 17482'
p1593
sg14
S'C90'
p1594
ssI712
(dp1595
g2
F26.55
sg3
I0
sg4
g15
sg5
I2
sg6
I0
sg7
I0
sg8
I0
sg9
I0
sg10
I0
sg11
I0
sg12
S'113028'
p1596
sg14
S'C124'
p1597
ssI713
(dp1598
g2
F52.0
sg3
I0
sg4
F48.0
sg5
I2
sg6
I0
sg7
I0
sg8
I0
sg9
I1
sg10
I1
sg11
I1
sg12
S'19996'
p1599
sg14
S'C126'
p1600
ssI714
(dp1601
g2
F9.4833
sg3
I0
sg4
F29.0
sg5
I2
sg6
I0
sg7
I2
sg8
I0
sg9
I0
sg10
I0
sg11
I0
sg12
S'7545'
p1602
sg14
g15
ssI715
(dp1603
g2
F13.0
sg3
I0
sg4
F52.0
sg5
I2
sg6
I0
sg7
I1
sg8
I0
sg9
I0
sg10
I0
sg11
I0
sg12
S'250647'
p1604
sg14
g15
ssI716
(dp1605
g2
F7.65
sg3
I0
sg4
F19.0
sg5
I2
sg6
I0
sg7
I2
sg8
I0
sg9
I0
sg10
I0
sg11
I0
sg12
S'348124'
p1606
sg14
S'F G73'
p1607
ssI717
(dp1608
g2
F227.525
sg3
I1
sg4
F38.0
sg5
I0
sg6
I0
sg7
I0
sg8
I1
sg9
I1
sg10
I0
sg11
I0
sg12
S'PC 17757'
p1609
sg14
S'C45'
p1610
ssI718
(dp1611
g2
F10.5
sg3
I1
sg4
F27.0
sg5
I2
sg6
I0
sg7
I1
sg8
I1
sg9
I1
sg10
I0
sg11
I0
sg12
S'34218'
p1612
sg14
S'E101'
p1613
ssI719
(dp1614
g2
F15.5
sg3
I0
sg4
g15
sg5
I1
sg6
I0
sg7
I2
sg8
I0
sg9
I0
sg10
I0
sg11
I0
sg12
S'36568'
p1615
sg14
g15
ssI720
(dp1616
g2
F7.775
sg3
I0
sg4
F33.0
sg5
I2
sg6
I0
sg7
I2
sg8
I0
sg9
I0
sg10
I0
sg11
I0
sg12
S'347062'
p1617
sg14
g15
ssI721
(dp1618
g2
F33.0
sg3
I1
sg4
F6.0
sg5
I2
sg6
I1
sg7
I1
sg8
I1
sg9
I1
sg10
I1
sg11
I0
sg12
S'248727'
p1619
sg14
g15
ssI722
(dp1620
g2
F7.0542
sg3
I0
sg4
F17.0
sg5
I2
sg6
I0
sg7
I2
sg8
I0
sg9
I0
sg10
I1
sg11
I1
sg12
S'350048'
p1621
sg14
g15
ssI723
(dp1622
g2
F13.0
sg3
I0
sg4
F34.0
sg5
I2
sg6
I0
sg7
I1
sg8
I0
sg9
I0
sg10
I0
sg11
I0
sg12
S'12233'
p1623
sg14
g15
ssI724
(dp1624
g2
F13.0
sg3
I0
sg4
F50.0
sg5
I2
sg6
I0
sg7
I1
sg8
I0
sg9
I0
sg10
I0
sg11
I0
sg12
S'250643'
p1625
sg14
g15
ssI725
(dp1626
g2
F53.1
sg3
I0
sg4
F27.0
sg5
I2
sg6
I0
sg7
I0
sg8
I0
sg9
I1
sg10
I1
sg11
I1
sg12
S'113806'
p1627
sg14
S'E8'
p1628
ssI726
(dp1629
g2
F8.6625
sg3
I0
sg4
F20.0
sg5
I2
sg6
I0
sg7
I2
sg8
I0
sg9
I0
sg10
I0
sg11
I0
sg12
S'315094'
p1630
sg14
g15
ssI727
(dp1631
g2
F21.0
sg3
F0.333333
sg4
F30.0
sg5
I2
sg6
I0
sg7
I1
sg8
I1
sg9
I1
sg10
I3
sg11
I3
sg12
S'31027'
p1632
sg14
g15
ssI728
(dp1633
g2
F7.7375
sg3
I1
sg4
g15
sg5
I1
sg6
I0
sg7
I2
sg8
I1
sg9
I1
sg10
I0
sg11
I0
sg12
S'36866'
p1634
sg14
g15
ssI729
(dp1635
g2
F26.0
sg3
I0
sg4
F25.0
sg5
I2
sg6
I0
sg7
I1
sg8
I0
sg9
I0
sg10
I1
sg11
I1
sg12
S'236853'
p1636
sg14
g15
ssI730
(dp1637
g2
F7.925
sg3
I1
sg4
F25.0
sg5
I2
sg6
I0
sg7
I2
sg8
I1
sg9
I0
sg10
I1
sg11
I1
sg12
S'STON/O2. 3101271'
p1638
sg14
g15
ssI731
(dp1639
g2
F211.3375
sg3
I1
sg4
F29.0
sg5
I2
sg6
I0
sg7
I0
sg8
I1
sg9
I1
sg10
I0
sg11
I0
sg12
S'24160'
p1640
sg14
S'B5'
p1641
ssI732
(dp1642
g2
F18.7875
sg3
I0
sg4
F11.0
sg5
I0
sg6
I0
sg7
I2
sg8
I0
sg9
I0
sg10
I0
sg11
I0
sg12
S'2699'
p1643
sg14
g15
ssI733
(dp1644
g2
F0.0
sg3
I0
sg4
g15
sg5
I2
sg6
I0
sg7
I1
sg8
I0
sg9
I0
sg10
I0
sg11
I0
sg12
S'239855'
p1645
sg14
g15
ssI734
(dp1646
g2
F13.0
sg3
I0
sg4
F23.0
sg5
I2
sg6
I0
sg7
I1
sg8
I0
sg9
I0
sg10
I0
sg11
I0
sg12
S'28425'
p1647
sg14
g15
ssI735
(dp1648
g2
F13.0
sg3
I0
sg4
F23.0
sg5
I2
sg6
I0
sg7
I1
sg8
I0
sg9
I0
sg10
I0
sg11
I0
sg12
S'233639'
p1649
sg14
g15
ssI736
(dp1650
g2
F16.1
sg3
I0
sg4
F28.5
sg5
I2
sg6
I0
sg7
I2
sg8
I0
sg9
I0
sg10
I0
sg11
I0
sg12
S'54636'
p1651
sg14
g15
ssI737
(dp1652
g2
F34.375
sg3
F0.333333
sg4
F48.0
sg5
I2
sg6
I3
sg7
I2
sg8
I1
sg9
I0
sg10
I4
sg11
I1
sg12
S'W./C. 6608'
p1653
sg14
g15
ssI738
(dp1654
g2
F512.3292
sg3
I0
sg4
F35.0
sg5
I0
sg6
I0
sg7
I0
sg8
I0
sg9
I1
sg10
I0
sg11
I0
sg12
S'PC 17755'
p1655
sg14
S'B101'
p1656
ssI739
(dp1657
g2
F7.8958
sg3
I0
sg4
g15
sg5
I2
sg6
I0
sg7
I2
sg8
I0
sg9
I0
sg10
I0
sg11
I0
sg12
S'349201'
p1658
sg14
g15
ssI740
(dp1659
g2
F7.8958
sg3
I0
sg4
g15
sg5
I2
sg6
I0
sg7
I2
sg8
I0
sg9
I0
sg10
I0
sg11
I0
sg12
S'349218'
p1660
sg14
g15
ssI741
(dp1661
g2
F30.0
sg3
I0
sg4
g15
sg5
I2
sg6
I0
sg7
I0
sg8
I0
sg9
I1
sg10
I0
sg11
I0
sg12
S'16988'
p1662
sg14
S'D45'
p1663
ssI742
(dp1664
g2
F78.85
sg3
I0
sg4
F36.0
sg5
I2
sg6
I0
sg7
I0
sg8
I0
sg9
I0
sg10
I1
sg11
I1
sg12
S'19877'
p1665
sg14
S'C46'
p1666
ssI743
(dp1667
g2
F262.375
sg3
I1
sg4
F21.0
sg5
I0
sg6
I2
sg7
I0
sg8
I1
sg9
I1
sg10
I4
sg11
I2
sg12
S'PC 17608'
p1668
sg14
S'B57 B59 B63 B66'
p1669
ssI744
(dp1670
g2
F16.1
sg3
I0
sg4
F24.0
sg5
I2
sg6
I0
sg7
I2
sg8
I0
sg9
I0
sg10
I1
sg11
I1
sg12
S'376566'
p1671
sg14
g15
ssI745
(dp1672
g2
F7.925
sg3
I0
sg4
F31.0
sg5
I2
sg6
I0
sg7
I2
sg8
I0
sg9
I1
sg10
I0
sg11
I0
sg12
S'STON/O 2. 3101288'
p1673
sg14
g15
ssI746
(dp1674
g2
F71.0
sg3
I4
sg4
F70.0
sg5
I2
sg6
I1
sg7
I0
sg8
I0
sg9
I0
sg10
I2
sg11
I1
sg12
S'WE/P 5735'
p1675
sg14
S'B22'
p1676
ssI747
(dp1677
g2
F20.25
sg3
I0
sg4
F16.0
sg5
I2
sg6
I1
sg7
I2
sg8
I0
sg9
I0
sg10
I2
sg11
I1
sg12
S'C.A. 2673'
p1678
sg14
g15
ssI748
(dp1679
g2
F13.0
sg3
I1
sg4
F30.0
sg5
I2
sg6
I0
sg7
I1
sg8
I1
sg9
I1
sg10
I0
sg11
I0
sg12
S'250648'
p1680
sg14
g15
ssI749
(dp1681
g2
F53.1
sg3
I0
sg4
F19.0
sg5
I2
sg6
I0
sg7
I0
sg8
I0
sg9
I0
sg10
I1
sg11
I1
sg12
S'113773'
p1682
sg14
S'D30'
p1683
ssI750
(dp1684
g2
F7.75
sg3
I0
sg4
F31.0
sg5
I1
sg6
I0
sg7
I2
sg8
I0
sg9
I0
sg10
I0
sg11
I0
sg12
S'335097'
p1685
sg14
g15
ssI751
(dp1686
g2
F23.0
sg3
I1
sg4
F4.0
sg5
I2
sg6
I1
sg7
I1
sg8
I1
sg9
I1
sg10
I2
sg11
I1
sg12
S'29103'
p1687
sg14
g15
ssI752
(dp1688
g2
F12.475
sg3
F0.666666
sg4
F6.0
sg5
I2
sg6
I1
sg7
I2
sg8
I0
sg9
I1
sg10
I1
sg11
I0
sg12
S'392096'
p1689
sg14
S'E121'
p1690
ssI753
(dp1691
g2
F9.5
sg3
I4
sg4
F33.0
sg5
I2
sg6
I0
sg7
I2
sg8
I0
sg9
I0
sg10
I0
sg11
I0
sg12
S'345780'
p1692
sg14
g15
ssI754
(dp1693
g2
F7.8958
sg3
I0
sg4
F23.0
sg5
I2
sg6
I0
sg7
I2
sg8
I0
sg9
I0
sg10
I0
sg11
I0
sg12
S'349204'
p1694
sg14
g15
ssI755
(dp1695
g2
F65.0
sg3
F0.333333
sg4
F48.0
sg5
I2
sg6
I2
sg7
I1
sg8
I1
sg9
I1
sg10
I3
sg11
I1
sg12
S'220845'
p1696
sg14
g15
ssI756
(dp1697
g2
F14.5
sg3
F0.666666
sg4
F0.67
sg5
I2
sg6
I1
sg7
I1
sg8
I0
sg9
I1
sg10
I2
sg11
I1
sg12
S'250649'
p1698
sg14
g15
ssI757
(dp1699
g2
F7.7958
sg3
I0
sg4
F28.0
sg5
I2
sg6
I0
sg7
I2
sg8
I0
sg9
I0
sg10
I0
sg11
I0
sg12
S'350042'
p1700
sg14
g15
ssI758
(dp1701
g2
F11.5
sg3
I0
sg4
F18.0
sg5
I2
sg6
I0
sg7
I1
sg8
I0
sg9
I0
sg10
I0
sg11
I0
sg12
S'29108'
p1702
sg14
g15
ssI759
(dp1703
g2
F8.05
sg3
I0
sg4
F34.0
sg5
I2
sg6
I0
sg7
I2
sg8
I0
sg9
I0
sg10
I0
sg11
I0
sg12
S'363294'
p1704
sg14
g15
ssI760
(dp1705
g2
F86.5
sg3
I4
sg4
F33.0
sg5
I2
sg6
I0
sg7
I0
sg8
I1
sg9
I1
sg10
I0
sg11
I0
sg12
S'110152'
p1706
sg14
S'B77'
p1707
ssI761
(dp1708
g2
F14.5
sg3
I0
sg4
g15
sg5
I2
sg6
I0
sg7
I2
sg8
I0
sg9
I0
sg10
I0
sg11
I0
sg12
S'358585'
p1709
sg14
g15
ssI762
(dp1710
g2
F7.125
sg3
I0
sg4
F41.0
sg5
I2
sg6
I0
sg7
I2
sg8
I0
sg9
I0
sg10
I0
sg11
I0
sg12
S'SOTON/O2 3101272'
p1711
sg14
g15
ssI763
(dp1712
g2
F7.2292
sg3
I0
sg4
F20.0
sg5
I0
sg6
I0
sg7
I2
sg8
I0
sg9
I1
sg10
I0
sg11
I0
sg12
S'2663'
p1713
sg14
g15
ssI764
(dp1714
g2
F120.0
sg3
F0.333333
sg4
F36.0
sg5
I2
sg6
I2
sg7
I0
sg8
I1
sg9
I1
sg10
I3
sg11
I1
sg12
S'113760'
p1715
sg14
S'B96 B98'
p1716
ssI765
(dp1717
g2
F7.775
sg3
I0
sg4
F16.0
sg5
I2
sg6
I0
sg7
I2
sg8
I0
sg9
I0
sg10
I0
sg11
I0
sg12
S'347074'
p1718
sg14
g15
ssI766
(dp1719
g2
F77.9583
sg3
F0.333333
sg4
F51.0
sg5
I2
sg6
I0
sg7
I0
sg8
I1
sg9
I1
sg10
I1
sg11
I1
sg12
S'13502'
p1720
sg14
S'D11'
p1721
ssI767
(dp1722
g2
F39.6
sg3
I4
sg4
g15
sg5
I0
sg6
I0
sg7
I0
sg8
I0
sg9
I0
sg10
I0
sg11
I0
sg12
S'112379'
p1723
sg14
g15
ssI768
(dp1724
g2
F7.75
sg3
I1
sg4
F30.5
sg5
I1
sg6
I0
sg7
I2
sg8
I1
sg9
I0
sg10
I0
sg11
I0
sg12
S'364850'
p1725
sg14
g15
ssI769
(dp1726
g2
F24.15
sg3
I0
sg4
g15
sg5
I1
sg6
I0
sg7
I2
sg8
I0
sg9
I0
sg10
I1
sg11
I1
sg12
S'371110'
p1727
sg14
g15
ssI770
(dp1728
g2
F8.3625
sg3
I0
sg4
F32.0
sg5
I2
sg6
I0
sg7
I2
sg8
I0
sg9
I0
sg10
I0
sg11
I0
sg12
S'8471'
p1729
sg14
g15
ssI771
(dp1730
g2
F9.5
sg3
I0
sg4
F24.0
sg5
I2
sg6
I0
sg7
I2
sg8
I0
sg9
I0
sg10
I0
sg11
I0
sg12
S'345781'
p1731
sg14
g15
ssI772
(dp1732
g2
F7.8542
sg3
I0
sg4
F48.0
sg5
I2
sg6
I0
sg7
I2
sg8
I0
sg9
I0
sg10
I0
sg11
I0
sg12
S'350047'
p1733
sg14
g15
ssI773
(dp1734
g2
F10.5
sg3
F0.333333
sg4
F57.0
sg5
I2
sg6
I0
sg7
I1
sg8
I1
sg9
I0
sg10
I0
sg11
I0
sg12
S'S.O./P.P. 3'
p1735
sg14
S'E77'
p1736
ssI774
(dp1737
g2
F7.225
sg3
I0
sg4
g15
sg5
I0
sg6
I0
sg7
I2
sg8
I0
sg9
I0
sg10
I0
sg11
I0
sg12
S'2674'
p1738
sg14
g15
ssI775
(dp1739
g2
F23.0
sg3
F0.333333
sg4
F54.0
sg5
I2
sg6
I3
sg7
I1
sg8
I1
sg9
I1
sg10
I4
sg11
I1
sg12
S'29105'
p1740
sg14
g15
ssI776
(dp1741
g2
F7.75
sg3
I0
sg4
F18.0
sg5
I2
sg6
I0
sg7
I2
sg8
I0
sg9
I0
sg10
I0
sg11
I0
sg12
S'347078'
p1742
sg14
g15
ssI777
(dp1743
g2
F7.75
sg3
I0
sg4
g15
sg5
I1
sg6
I0
sg7
I2
sg8
I0
sg9
I0
sg10
I0
sg11
I0
sg12
S'383121'
p1744
sg14
S'F38'
p1745
ssI778
(dp1746
g2
F12.475
sg3
I1
sg4
F5.0
sg5
I2
sg6
I0
sg7
I2
sg8
I1
sg9
I1
sg10
I0
sg11
I0
sg12
S'364516'
p1747
sg14
g15
ssI779
(dp1748
g2
F7.7375
sg3
I0
sg4
g15
sg5
I1
sg6
I0
sg7
I2
sg8
I0
sg9
I0
sg10
I0
sg11
I0
sg12
S'36865'
p1749
sg14
g15
ssI780
(dp1750
g2
F211.3375
sg3
F0.333333
sg4
F43.0
sg5
I2
sg6
I1
sg7
I0
sg8
I1
sg9
I1
sg10
I1
sg11
I0
sg12
S'24160'
p1751
sg14
S'B3'
p1752
ssI781
(dp1753
g2
F7.2292
sg3
I1
sg4
F13.0
sg5
I0
sg6
I0
sg7
I2
sg8
I1
sg9
I1
sg10
I0
sg11
I0
sg12
S'2687'
p1754
sg14
g15
ssI782
(dp1755
g2
F57.0
sg3
F0.333333
sg4
F17.0
sg5
I2
sg6
I0
sg7
I0
sg8
I1
sg9
I1
sg10
I1
sg11
I1
sg12
S'17474'
p1756
sg14
S'B20'
p1757
ssI783
(dp1758
g2
F30.0
sg3
I0
sg4
F29.0
sg5
I2
sg6
I0
sg7
I0
sg8
I0
sg9
I0
sg10
I0
sg11
I0
sg12
S'113501'
p1759
sg14
S'D6'
p1760
ssI784
(dp1761
g2
F23.45
sg3
I0
sg4
g15
sg5
I2
sg6
I2
sg7
I2
sg8
I0
sg9
I0
sg10
I3
sg11
I1
sg12
S'W./C. 6607'
p1762
sg14
g15
ssI785
(dp1763
g2
F7.05
sg3
I0
sg4
F25.0
sg5
I2
sg6
I0
sg7
I2
sg8
I0
sg9
I0
sg10
I0
sg11
I0
sg12
S'SOTON/O.Q. 3101312'
p1764
sg14
g15
ssI786
(dp1765
g2
F7.25
sg3
I0
sg4
F25.0
sg5
I2
sg6
I0
sg7
I2
sg8
I0
sg9
I0
sg10
I0
sg11
I0
sg12
S'374887'
p1766
sg14
g15
ssI787
(dp1767
g2
F7.4958
sg3
I1
sg4
F18.0
sg5
I2
sg6
I0
sg7
I2
sg8
I1
sg9
I1
sg10
I0
sg11
I0
sg12
S'3101265'
p1768
sg14
g15
ssI788
(dp1769
g2
F29.125
sg3
F0.666666
sg4
F8.0
sg5
I1
sg6
I1
sg7
I2
sg8
I0
sg9
I0
sg10
I5
sg11
I4
sg12
S'382652'
p1770
sg14
g15
ssI789
(dp1771
g2
F20.575
sg3
F0.666666
sg4
F1.0
sg5
I2
sg6
I2
sg7
I2
sg8
I0
sg9
I1
sg10
I3
sg11
I1
sg12
S'C.A. 2315'
p1772
sg14
g15
ssI790
(dp1773
g2
F79.2
sg3
I0
sg4
F46.0
sg5
I0
sg6
I0
sg7
I0
sg8
I0
sg9
I0
sg10
I0
sg11
I0
sg12
S'PC 17593'
p1774
sg14
S'B82 B84'
p1775
ssI791
(dp1776
g2
F7.75
sg3
I0
sg4
g15
sg5
I1
sg6
I0
sg7
I2
sg8
I0
sg9
I0
sg10
I0
sg11
I0
sg12
S'12460'
p1777
sg14
g15
ssI792
(dp1778
g2
F26.0
sg3
I0
sg4
F16.0
sg5
I2
sg6
I0
sg7
I1
sg8
I0
sg9
I0
sg10
I0
sg11
I0
sg12
S'239865'
p1779
sg14
g15
ssI793
(dp1780
g2
F69.55
sg3
I1
sg4
g15
sg5
I2
sg6
I2
sg7
I2
sg8
I1
sg9
I0
sg10
I10
sg11
I8
sg12
S'CA. 2343'
p1781
sg14
g15
ssI794
(dp1782
g2
F30.6958
sg3
I0
sg4
g15
sg5
I0
sg6
I0
sg7
I0
sg8
I0
sg9
I0
sg10
I0
sg11
I0
sg12
S'PC 17600'
p1783
sg14
g15
ssI795
(dp1784
g2
F7.8958
sg3
I0
sg4
F25.0
sg5
I2
sg6
I0
sg7
I2
sg8
I0
sg9
I0
sg10
I0
sg11
I0
sg12
S'349203'
p1785
sg14
g15
ssI796
(dp1786
g2
F13.0
sg3
I0
sg4
F39.0
sg5
I2
sg6
I0
sg7
I1
sg8
I0
sg9
I0
sg10
I0
sg11
I0
sg12
S'28213'
p1787
sg14
g15
ssI797
(dp1788
g2
F25.9292
sg3
I4
sg4
F49.0
sg5
I2
sg6
I0
sg7
I0
sg8
I1
sg9
I1
sg10
I0
sg11
I0
sg12
S'17465'
p1789
sg14
S'D17'
p1790
ssI798
(dp1791
g2
F8.6833
sg3
F0.333333
sg4
F31.0
sg5
I2
sg6
I0
sg7
I2
sg8
I1
sg9
I1
sg10
I0
sg11
I0
sg12
S'349244'
p1792
sg14
g15
ssI799
(dp1793
g2
F7.2292
sg3
I4
sg4
F30.0
sg5
I0
sg6
I0
sg7
I2
sg8
I0
sg9
I0
sg10
I0
sg11
I0
sg12
S'2685'
p1794
sg14
g15
ssI800
(dp1795
g2
F24.15
sg3
I4
sg4
F30.0
sg5
I2
sg6
I1
sg7
I2
sg8
I1
sg9
I0
sg10
I2
sg11
I1
sg12
S'345773'
p1796
sg14
g15
ssI801
(dp1797
g2
F13.0
sg3
I0
sg4
F34.0
sg5
I2
sg6
I0
sg7
I1
sg8
I0
sg9
I0
sg10
I0
sg11
I0
sg12
S'250647'
p1798
sg14
g15
ssI802
(dp1799
g2
F26.25
sg3
F0.333333
sg4
F31.0
sg5
I2
sg6
I1
sg7
I1
sg8
I1
sg9
I1
sg10
I2
sg11
I1
sg12
S'C.A. 31921'
p1800
sg14
g15
ssI803
(dp1801
g2
F120.0
sg3
F0.666666
sg4
F11.0
sg5
I2
sg6
I2
sg7
I0
sg8
I0
sg9
I1
sg10
I3
sg11
I1
sg12
S'113760'
p1802
sg14
S'B96 B98'
p1803
ssI804
(dp1804
g2
F8.5167
sg3
F0.666666
sg4
F0.42
sg5
I0
sg6
I1
sg7
I2
sg8
I0
sg9
I1
sg10
I1
sg11
I0
sg12
S'2625'
p1805
sg14
g15
ssI805
(dp1806
g2
F6.975
sg3
I0
sg4
F27.0
sg5
I2
sg6
I0
sg7
I2
sg8
I0
sg9
I1
sg10
I0
sg11
I0
sg12
S'347089'
p1807
sg14
g15
ssI806
(dp1808
g2
F7.775
sg3
I0
sg4
F31.0
sg5
I2
sg6
I0
sg7
I2
sg8
I0
sg9
I0
sg10
I0
sg11
I0
sg12
S'347063'
p1809
sg14
g15
ssI807
(dp1810
g2
F0.0
sg3
I0
sg4
F39.0
sg5
I2
sg6
I0
sg7
I0
sg8
I0
sg9
I0
sg10
I0
sg11
I0
sg12
S'112050'
p1811
sg14
S'A36'
p1812
ssI808
(dp1813
g2
F7.775
sg3
I1
sg4
F18.0
sg5
I2
sg6
I0
sg7
I2
sg8
I1
sg9
I0
sg10
I0
sg11
I0
sg12
S'347087'
p1814
sg14
g15
ssI809
(dp1815
g2
F13.0
sg3
I0
sg4
F39.0
sg5
I2
sg6
I0
sg7
I1
sg8
I0
sg9
I0
sg10
I0
sg11
I0
sg12
S'248723'
p1816
sg14
g15
ssI810
(dp1817
g2
F53.1
sg3
F0.333333
sg4
F33.0
sg5
I2
sg6
I0
sg7
I0
sg8
I1
sg9
I1
sg10
I1
sg11
I1
sg12
S'113806'
p1818
sg14
S'E8'
p1819
ssI811
(dp1820
g2
F7.8875
sg3
I0
sg4
F26.0
sg5
I2
sg6
I0
sg7
I2
sg8
I0
sg9
I0
sg10
I0
sg11
I0
sg12
S'3474'
p1821
sg14
g15
ssI812
(dp1822
g2
F24.15
sg3
I0
sg4
F39.0
sg5
I2
sg6
I0
sg7
I2
sg8
I0
sg9
I0
sg10
I0
sg11
I0
sg12
S'A/4 48871'
p1823
sg14
g15
ssI813
(dp1824
g2
F10.5
sg3
I0
sg4
F35.0
sg5
I2
sg6
I0
sg7
I1
sg8
I0
sg9
I0
sg10
I0
sg11
I0
sg12
S'28206'
p1825
sg14
g15
ssI814
(dp1826
g2
F31.275
sg3
I1
sg4
F6.0
sg5
I2
sg6
I2
sg7
I2
sg8
I1
sg9
I0
sg10
I6
sg11
I4
sg12
S'347082'
p1827
sg14
g15
ssI815
(dp1828
g2
F8.05
sg3
I0
sg4
F30.5
sg5
I2
sg6
I0
sg7
I2
sg8
I0
sg9
I0
sg10
I0
sg11
I0
sg12
S'364499'
p1829
sg14
g15
ssI816
(dp1830
g2
F0.0
sg3
I0
sg4
g15
sg5
I2
sg6
I0
sg7
I0
sg8
I0
sg9
I0
sg10
I0
sg11
I0
sg12
S'112058'
p1831
sg14
S'B102'
p1832
ssI817
(dp1833
g2
F7.925
sg3
I1
sg4
F23.0
sg5
I2
sg6
I0
sg7
I2
sg8
I1
sg9
I0
sg10
I0
sg11
I0
sg12
S'STON/O2. 3101290'
p1834
sg14
g15
ssI818
(dp1835
g2
F37.0042
sg3
I0
sg4
F31.0
sg5
I0
sg6
I1
sg7
I1
sg8
I0
sg9
I0
sg10
I2
sg11
I1
sg12
S'S.C./PARIS 2079'
p1836
sg14
g15
ssI819
(dp1837
g2
F6.45
sg3
I0
sg4
F43.0
sg5
I2
sg6
I0
sg7
I2
sg8
I0
sg9
I0
sg10
I0
sg11
I0
sg12
S'C 7075'
p1838
sg14
g15
ssI820
(dp1839
g2
F27.9
sg3
F0.666666
sg4
F10.0
sg5
I2
sg6
I2
sg7
I2
sg8
I0
sg9
I0
sg10
I5
sg11
I3
sg12
S'347088'
p1840
sg14
g15
ssI821
(dp1841
g2
F93.5
sg3
F0.333333
sg4
F52.0
sg5
I2
sg6
I1
sg7
I0
sg8
I1
sg9
I1
sg10
I2
sg11
I1
sg12
S'12749'
p1842
sg14
S'B69'
p1843
ssI822
(dp1844
g2
F8.6625
sg3
I0
sg4
F27.0
sg5
I2
sg6
I0
sg7
I2
sg8
I0
sg9
I1
sg10
I0
sg11
I0
sg12
S'315098'
p1845
sg14
g15
ssI823
(dp1846
g2
F0.0
sg3
I4
sg4
F38.0
sg5
I2
sg6
I0
sg7
I0
sg8
I0
sg9
I0
sg10
I0
sg11
I0
sg12
S'19972'
p1847
sg14
g15
ssI824
(dp1848
g2
F12.475
sg3
F0.333333
sg4
F27.0
sg5
I2
sg6
I1
sg7
I2
sg8
I1
sg9
I1
sg10
I1
sg11
I0
sg12
S'392096'
p1849
sg14
S'E121'
p1850
ssI825
(dp1851
g2
F39.6875
sg3
F0.666666
sg4
F2.0
sg5
I2
sg6
I1
sg7
I2
sg8
I0
sg9
I0
sg10
I5
sg11
I4
sg12
S'3101295'
p1852
sg14
g15
ssI826
(dp1853
g2
F6.95
sg3
I0
sg4
g15
sg5
I1
sg6
I0
sg7
I2
sg8
I0
sg9
I0
sg10
I0
sg11
I0
sg12
S'368323'
p1854
sg14
g15
ssI827
(dp1855
g2
F56.4958
sg3
I0
sg4
g15
sg5
I2
sg6
I0
sg7
I2
sg8
I0
sg9
I0
sg10
I0
sg11
I0
sg12
S'1601'
p1856
sg14
g15
ssI828
(dp1857
g2
F37.0042
sg3
F0.666666
sg4
F1.0
sg5
I0
sg6
I2
sg7
I1
sg8
I0
sg9
I1
sg10
I2
sg11
I0
sg12
S'S.C./PARIS 2079'
p1858
sg14
g15
ssI829
(dp1859
g2
F7.75
sg3
I0
sg4
g15
sg5
I1
sg6
I0
sg7
I2
sg8
I0
sg9
I1
sg10
I0
sg11
I0
sg12
S'367228'
p1860
sg14
g15
ssI830
(dp1861
g2
F80.0
sg3
F0.333333
sg4
F62.0
sg5
g15
sg6
I0
sg7
I0
sg8
I1
sg9
I1
sg10
I0
sg11
I0
sg12
S'113572'
p1862
sg14
S'B28'
p1863
ssI831
(dp1864
g2
F14.4542
sg3
F0.333333
sg4
F15.0
sg5
I0
sg6
I0
sg7
I2
sg8
I1
sg9
I1
sg10
I1
sg11
I1
sg12
S'2659'
p1865
sg14
g15
ssI832
(dp1866
g2
F18.75
sg3
F0.666666
sg4
F0.83
sg5
I2
sg6
I1
sg7
I1
sg8
I0
sg9
I1
sg10
I2
sg11
I1
sg12
S'29106'
p1867
sg14
g15
ssI833
(dp1868
g2
F7.2292
sg3
I0
sg4
g15
sg5
I0
sg6
I0
sg7
I2
sg8
I0
sg9
I0
sg10
I0
sg11
I0
sg12
S'2671'
p1869
sg14
g15
ssI834
(dp1870
g2
F7.8542
sg3
I0
sg4
F23.0
sg5
I2
sg6
I0
sg7
I2
sg8
I0
sg9
I0
sg10
I0
sg11
I0
sg12
S'347468'
p1871
sg14
g15
ssI835
(dp1872
g2
F8.3
sg3
I0
sg4
F18.0
sg5
I2
sg6
I0
sg7
I2
sg8
I0
sg9
I0
sg10
I0
sg11
I0
sg12
S'2223'
p1873
sg14
g15
ssI836
(dp1874
g2
F83.1583
sg3
I1
sg4
F39.0
sg5
I0
sg6
I1
sg7
I0
sg8
I1
sg9
I1
sg10
I2
sg11
I1
sg12
S'PC 17756'
p1875
sg14
S'E49'
p1876
ssI837
(dp1877
g2
F8.6625
sg3
I0
sg4
F21.0
sg5
I2
sg6
I0
sg7
I2
sg8
I0
sg9
I0
sg10
I0
sg11
I0
sg12
S'315097'
p1878
sg14
g15
ssI838
(dp1879
g2
F8.05
sg3
I0
sg4
g15
sg5
I2
sg6
I0
sg7
I2
sg8
I0
sg9
I0
sg10
I0
sg11
I0
sg12
S'392092'
p1880
sg14
g15
ssI839
(dp1881
g2
F56.4958
sg3
I0
sg4
F32.0
sg5
I2
sg6
I0
sg7
I2
sg8
I0
sg9
I1
sg10
I0
sg11
I0
sg12
S'1601'
p1882
sg14
g15
ssI840
(dp1883
g2
F29.7
sg3
I0
sg4
g15
sg5
I0
sg6
I0
sg7
I0
sg8
I0
sg9
I1
sg10
I0
sg11
I0
sg12
S'11774'
p1884
sg14
S'C47'
p1885
ssI841
(dp1886
g2
F7.925
sg3
I0
sg4
F20.0
sg5
I2
sg6
I0
sg7
I2
sg8
I0
sg9
I0
sg10
I0
sg11
I0
sg12
S'SOTON/O2 3101287'
p1887
sg14
g15
ssI842
(dp1888
g2
F10.5
sg3
I0
sg4
F16.0
sg5
I2
sg6
I0
sg7
I1
sg8
I0
sg9
I0
sg10
I0
sg11
I0
sg12
S'S.O./P.P. 3'
p1889
sg14
g15
ssI843
(dp1890
g2
F31.0
sg3
I1
sg4
F30.0
sg5
I0
sg6
I0
sg7
I0
sg8
I1
sg9
I1
sg10
I0
sg11
I0
sg12
S'113798'
p1891
sg14
g15
ssI844
(dp1892
g2
F6.4375
sg3
I0
sg4
F34.5
sg5
I0
sg6
I0
sg7
I2
sg8
I0
sg9
I0
sg10
I0
sg11
I0
sg12
S'2683'
p1893
sg14
g15
ssI845
(dp1894
g2
F8.6625
sg3
I0
sg4
F17.0
sg5
I2
sg6
I0
sg7
I2
sg8
I0
sg9
I0
sg10
I0
sg11
I0
sg12
S'315090'
p1895
sg14
g15
ssI846
(dp1896
g2
F7.55
sg3
I0
sg4
F42.0
sg5
I2
sg6
I0
sg7
I2
sg8
I0
sg9
I0
sg10
I0
sg11
I0
sg12
S'C.A. 5547'
p1897
sg14
g15
ssI847
(dp1898
g2
F69.55
sg3
I0
sg4
g15
sg5
I2
sg6
I2
sg7
I2
sg8
I0
sg9
I0
sg10
I10
sg11
I8
sg12
S'CA. 2343'
p1899
sg14
g15
ssI848
(dp1900
g2
F7.8958
sg3
I0
sg4
F35.0
sg5
I0
sg6
I0
sg7
I2
sg8
I0
sg9
I0
sg10
I0
sg11
I0
sg12
S'349213'
p1901
sg14
g15
ssI849
(dp1902
g2
F33.0
sg3
I4
sg4
F28.0
sg5
I2
sg6
I1
sg7
I1
sg8
I0
sg9
I0
sg10
I1
sg11
I0
sg12
S'248727'
p1903
sg14
g15
ssI850
(dp1904
g2
F89.1042
sg3
F0.333333
sg4
g15
sg5
I0
sg6
I0
sg7
I0
sg8
I1
sg9
I1
sg10
I1
sg11
I1
sg12
S'17453'
p1905
sg14
S'C92'
p1906
ssI851
(dp1907
g2
F31.275
sg3
F0.666666
sg4
F4.0
sg5
I2
sg6
I2
sg7
I2
sg8
I0
sg9
I0
sg10
I6
sg11
I4
sg12
S'347082'
p1908
sg14
g15
ssI852
(dp1909
g2
F7.775
sg3
I0
sg4
F74.0
sg5
I2
sg6
I0
sg7
I2
sg8
I0
sg9
I0
sg10
I0
sg11
I0
sg12
S'347060'
p1910
sg14
g15
ssI853
(dp1911
g2
F15.2458
sg3
I1
sg4
F9.0
sg5
I0
sg6
I1
sg7
I2
sg8
I1
sg9
I0
sg10
I2
sg11
I1
sg12
S'2678'
p1912
sg14
g15
ssI854
(dp1913
g2
F39.4
sg3
I1
sg4
F16.0
sg5
I2
sg6
I1
sg7
I0
sg8
I1
sg9
I1
sg10
I1
sg11
I0
sg12
S'PC 17592'
p1914
sg14
S'D28'
p1915
ssI855
(dp1916
g2
F26.0
sg3
F0.333333
sg4
F44.0
sg5
I2
sg6
I0
sg7
I1
sg8
I1
sg9
I0
sg10
I1
sg11
I1
sg12
S'244252'
p1917
sg14
g15
ssI856
(dp1918
g2
F9.35
sg3
F0.333333
sg4
F18.0
sg5
I2
sg6
I1
sg7
I2
sg8
I1
sg9
I1
sg10
I1
sg11
I0
sg12
S'392091'
p1919
sg14
g15
ssI857
(dp1920
g2
F164.8667
sg3
F0.333333
sg4
F45.0
sg5
I2
sg6
I1
sg7
I0
sg8
I1
sg9
I1
sg10
I2
sg11
I1
sg12
S'36928'
p1921
sg14
g15
ssI858
(dp1922
g2
F26.55
sg3
I0
sg4
F51.0
sg5
I2
sg6
I0
sg7
I0
sg8
I0
sg9
I1
sg10
I0
sg11
I0
sg12
S'113055'
p1923
sg14
S'E17'
p1924
ssI859
(dp1925
g2
F19.2583
sg3
F0.333333
sg4
F24.0
sg5
I0
sg6
I3
sg7
I2
sg8
I1
sg9
I1
sg10
I3
sg11
I0
sg12
S'2666'
p1926
sg14
g15
ssI860
(dp1927
g2
F7.2292
sg3
I0
sg4
g15
sg5
I0
sg6
I0
sg7
I2
sg8
I0
sg9
I0
sg10
I0
sg11
I0
sg12
S'2629'
p1928
sg14
g15
ssI861
(dp1929
g2
F14.1083
sg3
I0
sg4
F41.0
sg5
I2
sg6
I0
sg7
I2
sg8
I0
sg9
I0
sg10
I2
sg11
I2
sg12
S'350026'
p1930
sg14
g15
ssI862
(dp1931
g2
F11.5
sg3
I0
sg4
F21.0
sg5
I2
sg6
I0
sg7
I1
sg8
I0
sg9
I0
sg10
I1
sg11
I1
sg12
S'28134'
p1932
sg14
g15
ssI863
(dp1933
g2
F25.9292
sg3
F0.333333
sg4
F48.0
sg5
I2
sg6
I0
sg7
I0
sg8
I1
sg9
I1
sg10
I0
sg11
I0
sg12
S'17466'
p1934
sg14
S'D17'
p1935
ssI864
(dp1936
g2
F69.55
sg3
I1
sg4
g15
sg5
I2
sg6
I2
sg7
I2
sg8
I1
sg9
I0
sg10
I10
sg11
I8
sg12
S'CA. 2343'
p1937
sg14
g15
ssI865
(dp1938
g2
F13.0
sg3
I0
sg4
F24.0
sg5
I2
sg6
I0
sg7
I1
sg8
I0
sg9
I0
sg10
I0
sg11
I0
sg12
S'233866'
p1939
sg14
g15
ssI866
(dp1940
g2
F13.0
sg3
F0.333333
sg4
F42.0
sg5
I2
sg6
I0
sg7
I1
sg8
I1
sg9
I1
sg10
I0
sg11
I0
sg12
S'236852'
p1941
sg14
g15
ssI867
(dp1942
g2
F13.8583
sg3
I4
sg4
F27.0
sg5
I0
sg6
I0
sg7
I1
sg8
I1
sg9
I1
sg10
I1
sg11
I1
sg12
S'SC/PARIS 2149'
p1943
sg14
g15
ssI868
(dp1944
g2
F50.4958
sg3
I0
sg4
F31.0
sg5
I2
sg6
I0
sg7
I0
sg8
I0
sg9
I0
sg10
I0
sg11
I0
sg12
S'PC 17590'
p1945
sg14
S'A24'
p1946
ssI869
(dp1947
g2
F9.5
sg3
I4
sg4
g15
sg5
I2
sg6
I0
sg7
I2
sg8
I0
sg9
I0
sg10
I0
sg11
I0
sg12
S'345777'
p1948
sg14
g15
ssI870
(dp1949
g2
F11.1333
sg3
F0.666666
sg4
F4.0
sg5
I2
sg6
I1
sg7
I2
sg8
I0
sg9
I1
sg10
I2
sg11
I1
sg12
S'347742'
p1950
sg14
g15
ssI871
(dp1951
g2
F7.8958
sg3
I0
sg4
F26.0
sg5
I2
sg6
I0
sg7
I2
sg8
I0
sg9
I0
sg10
I0
sg11
I0
sg12
S'349248'
p1952
sg14
g15
ssI872
(dp1953
g2
F52.5542
sg3
F0.333333
sg4
F47.0
sg5
I2
sg6
I1
sg7
I0
sg8
I1
sg9
I1
sg10
I2
sg11
I1
sg12
S'11751'
p1954
sg14
S'D35'
p1955
ssI873
(dp1956
g2
F5.0
sg3
I0
sg4
F33.0
sg5
I2
sg6
I0
sg7
I0
sg8
I0
sg9
I0
sg10
I0
sg11
I0
sg12
S'695'
p1957
sg14
S'B51 B53 B55'
p1958
ssI874
(dp1959
g2
F9.0
sg3
I4
sg4
F47.0
sg5
I2
sg6
I0
sg7
I2
sg8
I0
sg9
I0
sg10
I0
sg11
I0
sg12
S'345765'
p1960
sg14
g15
ssI875
(dp1961
g2
F24.0
sg3
F0.333333
sg4
F28.0
sg5
I0
sg6
I0
sg7
I1
sg8
I1
sg9
I1
sg10
I1
sg11
I1
sg12
S'P/PP 3381'
p1962
sg14
g15
ssI876
(dp1963
g2
F7.225
sg3
I1
sg4
F15.0
sg5
I0
sg6
I0
sg7
I2
sg8
I1
sg9
I1
sg10
I0
sg11
I0
sg12
S'2667'
p1964
sg14
g15
ssI877
(dp1965
g2
F9.8458
sg3
I0
sg4
F20.0
sg5
I2
sg6
I0
sg7
I2
sg8
I0
sg9
I0
sg10
I0
sg11
I0
sg12
S'7534'
p1966
sg14
g15
ssI878
(dp1967
g2
F7.8958
sg3
I0
sg4
F19.0
sg5
I2
sg6
I0
sg7
I2
sg8
I0
sg9
I0
sg10
I0
sg11
I0
sg12
S'349212'
p1968
sg14
g15
ssI879
(dp1969
g2
F7.8958
sg3
I0
sg4
g15
sg5
I2
sg6
I0
sg7
I2
sg8
I0
sg9
I0
sg10
I0
sg11
I0
sg12
S'349217'
p1970
sg14
g15
ssI880
(dp1971
g2
F83.1583
sg3
F0.333333
sg4
F56.0
sg5
I0
sg6
I1
sg7
I0
sg8
I1
sg9
I1
sg10
I1
sg11
I0
sg12
S'11767'
p1972
sg14
S'C50'
p1973
ssI881
(dp1974
g2
F26.0
sg3
F0.333333
sg4
F25.0
sg5
I2
sg6
I1
sg7
I1
sg8
I1
sg9
I1
sg10
I1
sg11
I0
sg12
S'230433'
p1975
sg14
g15
ssI882
(dp1976
g2
F7.8958
sg3
I0
sg4
F33.0
sg5
I2
sg6
I0
sg7
I2
sg8
I0
sg9
I0
sg10
I0
sg11
I0
sg12
S'349257'
p1977
sg14
g15
ssI883
(dp1978
g2
F10.5167
sg3
I1
sg4
F22.0
sg5
I2
sg6
I0
sg7
I2
sg8
I1
sg9
I0
sg10
I0
sg11
I0
sg12
S'7552'
p1979
sg14
g15
ssI884
(dp1980
g2
F10.5
sg3
I0
sg4
F28.0
sg5
I2
sg6
I0
sg7
I1
sg8
I0
sg9
I0
sg10
I0
sg11
I0
sg12
S'C.A./SOTON 34068'
p1981
sg14
g15
ssI885
(dp1982
g2
F7.05
sg3
I0
sg4
F25.0
sg5
I2
sg6
I0
sg7
I2
sg8
I0
sg9
I0
sg10
I0
sg11
I0
sg12
S'SOTON/OQ 392076'
p1983
sg14
g15
ssI886
(dp1984
g2
F29.125
sg3
F0.333333
sg4
F39.0
sg5
I1
sg6
I5
sg7
I2
sg8
I1
sg9
I0
sg10
I5
sg11
I0
sg12
S'382652'
p1985
sg14
g15
ssI887
(dp1986
g2
F13.0
sg3
I4
sg4
F27.0
sg5
I2
sg6
I0
sg7
I1
sg8
I0
sg9
I0
sg10
I0
sg11
I0
sg12
S'211536'
p1987
sg14
g15
ssI888
(dp1988
g2
F30.0
sg3
I1
sg4
F19.0
sg5
I2
sg6
I0
sg7
I0
sg8
I1
sg9
I1
sg10
I0
sg11
I0
sg12
S'112053'
p1989
sg14
S'B42'
p1990
ssI889
(dp1991
g2
F23.45
sg3
I1
sg4
g15
sg5
I2
sg6
I2
sg7
I2
sg8
I1
sg9
I0
sg10
I3
sg11
I1
sg12
S'W./C. 6607'
p1992
sg14
g15
ssI890
(dp1993
g2
F30.0
sg3
I0
sg4
F26.0
sg5
I0
sg6
I0
sg7
I0
sg8
I0
sg9
I1
sg10
I0
sg11
I0
sg12
S'111369'
p1994
sg14
S'C148'
p1995
ssI891
(dp1996
g2
F7.75
sg3
I0
sg4
F32.0
sg5
I1
sg6
I0
sg7
I2
sg8
I0
sg9
I0
sg10
I0
sg11
I0
sg12
S'370376'
p1997
sg14
g15
ssI892
(dp1998
S'Fare'
p1999
F7.8292
sg3
I0
sS'Age'
p2000
F34.5
sS'Embarked'
p2001
I1
sS'Parch'
p2002
I0
sS'Pclass'
p2003
I2
sS'Sex'
p2004
I0
sS'SibSp'
p2005
I0
sS'Ticket'
p2006
S'330911'
p2007
sS'Cabin'
p2008
g15
ssI893
(dp2009
g1999
F7.0
sg3
F0.333333
sg2000
F47.0
sg2001
I2
sg2002
I0
sg2003
I2
sg2004
I1
sg2005
I1
sg2006
S'363272'
p2010
sg2008
g15
ssI894
(dp2011
g1999
F9.6875
sg3
I0
sg2000
F62.0
sg2001
I1
sg2002
I0
sg2003
I1
sg2004
I0
sg2005
I0
sg2006
S'240276'
p2012
sg2008
g15
ssI895
(dp2013
g1999
F8.6625
sg3
I0
sg2000
F27.0
sg2001
I2
sg2002
I0
sg2003
I2
sg2004
I0
sg2005
I0
sg2006
S'315154'
p2014
sg2008
g15
ssI896
(dp2015
g1999
F12.2875
sg3
F0.333333
sg2000
F22.0
sg2001
I2
sg2002
I1
sg2003
I2
sg2004
I1
sg2005
I1
sg2006
S'3101298'
p2016
sg2008
g15
ssI897
(dp2017
g1999
F9.225
sg3
I0
sg2000
F14.0
sg2001
I2
sg2002
I0
sg2003
I2
sg2004
I0
sg2005
I0
sg2006
S'7538'
p2018
sg2008
g15
ssI898
(dp2019
g1999
F7.6292
sg3
I1
sg2000
F30.0
sg2001
I1
sg2002
I0
sg2003
I2
sg2004
I1
sg2005
I0
sg2006
S'330972'
p2020
sg2008
g15
ssI899
(dp2021
g1999
F29.0
sg3
I0
sg2000
F26.0
sg2001
I2
sg2002
I1
sg2003
I1
sg2004
I0
sg2005
I1
sg2006
S'248738'
p2022
sg2008
g15
ssI900
(dp2023
g1999
F7.2292
sg3
F0.333333
sg2000
F18.0
sg2001
I0
sg2002
I0
sg2003
I2
sg2004
I1
sg2005
I0
sg2006
S'2657'
p2024
sg2008
g15
ssI901
(dp2025
g1999
F24.15
sg3
I0
sg2000
F21.0
sg2001
I2
sg2002
I0
sg2003
I2
sg2004
I0
sg2005
I2
sg2006
S'A/4 48871'
p2026
sg2008
g15
ssI902
(dp2027
g1999
F7.8958
sg3
I0
sg2000
g15
sg2001
I2
sg2002
I0
sg2003
I2
sg2004
I0
sg2005
I0
sg2006
S'349220'
p2028
sg2008
g15
ssI903
(dp2029
g1999
F26.0
sg3
I0
sg2000
F46.0
sg2001
I2
sg2002
I0
sg2003
I0
sg2004
I0
sg2005
I0
sg2006
S'694'
p2030
sg2008
g15
ssI904
(dp2031
g1999
F82.2667
sg3
F0.333333
sg2000
F23.0
sg2001
I2
sg2002
I0
sg2003
I0
sg2004
I1
sg2005
I1
sg2006
S'21228'
p2032
sg2008
S'B45'
p2033
ssI905
(dp2034
g1999
F26.0
sg3
I0
sg2000
F63.0
sg2001
I2
sg2002
I0
sg2003
I1
sg2004
I0
sg2005
I1
sg2006
S'24065'
p2035
sg2008
g15
ssI906
(dp2036
g1999
F61.175
sg3
F0.333333
sg2000
F47.0
sg2001
I2
sg2002
I0
sg2003
I0
sg2004
I1
sg2005
I1
sg2006
S'W.E.P. 5734'
p2037
sg2008
S'E31'
p2038
ssI907
(dp2039
g1999
F27.7208
sg3
I4
sg2000
F24.0
sg2001
I0
sg2002
I0
sg2003
I1
sg2004
I1
sg2005
I1
sg2006
S'SC/PARIS 2167'
p2040
sg2008
g15
ssI908
(dp2041
g1999
F12.35
sg3
I0
sg2000
F35.0
sg2001
I1
sg2002
I0
sg2003
I1
sg2004
I0
sg2005
I0
sg2006
S'233734'
p2042
sg2008
g15
ssI909
(dp2043
g1999
F7.225
sg3
I0
sg2000
F21.0
sg2001
I0
sg2002
I0
sg2003
I2
sg2004
I0
sg2005
I0
sg2006
S'2692'
p2044
sg2008
g15
ssI910
(dp2045
g1999
F7.925
sg3
I1
sg2000
F27.0
sg2001
I2
sg2002
I0
sg2003
I2
sg2004
I1
sg2005
I1
sg2006
S'STON/O2. 3101270'
p2046
sg2008
g15
ssI911
(dp2047
g1999
F7.225
sg3
I4
sg2000
F45.0
sg2001
I0
sg2002
I0
sg2003
I2
sg2004
I1
sg2005
I0
sg2006
S'2696'
p2048
sg2008
g15
ssI912
(dp2049
g1999
F59.4
sg3
I0
sg2000
F55.0
sg2001
I0
sg2002
I0
sg2003
I0
sg2004
I0
sg2005
I1
sg2006
S'PC 17603'
p2050
sg2008
g15
ssI913
(dp2051
g1999
F3.1708
sg3
F0.666666
sg2000
F9.0
sg2001
I2
sg2002
I1
sg2003
I2
sg2004
I0
sg2005
I0
sg2006
S'C 17368'
p2052
sg2008
g15
ssI914
(dp2053
g1999
F31.6833
sg3
F0.333333
sg2000
g15
sg2001
I2
sg2002
I0
sg2003
I0
sg2004
I1
sg2005
I0
sg2006
S'PC 17598'
p2054
sg2008
g15
ssI915
(dp2055
g1999
F61.3792
sg3
I0
sg2000
F21.0
sg2001
I0
sg2002
I1
sg2003
I0
sg2004
I0
sg2005
I0
sg2006
S'PC 17597'
p2056
sg2008
g15
ssI916
(dp2057
g1999
F262.375
sg3
F0.333333
sg2000
F48.0
sg2001
I0
sg2002
I3
sg2003
I0
sg2004
I1
sg2005
I1
sg2006
S'PC 17608'
p2058
sg2008
S'B57 B59 B63 B66'
p2059
ssI917
(dp2060
g1999
F14.5
sg3
I0
sg2000
F50.0
sg2001
I2
sg2002
I0
sg2003
I2
sg2004
I0
sg2005
I1
sg2006
S'A/5. 3337'
p2061
sg2008
g15
ssI918
(dp2062
g1999
F61.9792
sg3
I1
sg2000
F22.0
sg2001
I0
sg2002
I1
sg2003
I0
sg2004
I1
sg2005
I0
sg2006
S'113509'
p2063
sg2008
S'B36'
p2064
ssI919
(dp2065
g1999
F7.225
sg3
I0
sg2000
F22.5
sg2001
I0
sg2002
I0
sg2003
I2
sg2004
I0
sg2005
I0
sg2006
S'2698'
p2066
sg2008
g15
ssI920
(dp2067
g1999
F30.5
sg3
I0
sg2000
F41.0
sg2001
I2
sg2002
I0
sg2003
I0
sg2004
I0
sg2005
I0
sg2006
S'113054'
p2068
sg2008
S'A21'
p2069
ssI921
(dp2070
g1999
F21.6792
sg3
I0
sg2000
g15
sg2001
I0
sg2002
I0
sg2003
I2
sg2004
I0
sg2005
I2
sg2006
S'2662'
p2071
sg2008
g15
ssI922
(dp2072
g1999
F26.0
sg3
I0
sg2000
F50.0
sg2001
I2
sg2002
I0
sg2003
I1
sg2004
I0
sg2005
I1
sg2006
S'SC/AH 3085'
p2073
sg2008
g15
ssI923
(dp2074
g1999
F31.5
sg3
I0
sg2000
F24.0
sg2001
I2
sg2002
I0
sg2003
I1
sg2004
I0
sg2005
I2
sg2006
S'C.A. 31029'
p2075
sg2008
g15
ssI924
(dp2076
g1999
F20.575
sg3
F0.333333
sg2000
F33.0
sg2001
I2
sg2002
I2
sg2003
I2
sg2004
I1
sg2005
I1
sg2006
S'C.A. 2315'
p2077
sg2008
g15
ssI925
(dp2078
g1999
F23.45
sg3
F0.333333
sg2000
g15
sg2001
I2
sg2002
I2
sg2003
I2
sg2004
I1
sg2005
I1
sg2006
S'W./C. 6607'
p2079
sg2008
g15
ssI926
(dp2080
g1999
F57.75
sg3
I0
sg2000
F30.0
sg2001
I0
sg2002
I0
sg2003
I0
sg2004
I0
sg2005
I1
sg2006
S'13236'
p2081
sg2008
S'C78'
p2082
ssI927
(dp2083
g1999
F7.2292
sg3
I0
sg2000
F18.5
sg2001
I0
sg2002
I0
sg2003
I2
sg2004
I0
sg2005
I0
sg2006
S'2682'
p2084
sg2008
g15
ssI928
(dp2085
g1999
F8.05
sg3
I1
sg2000
g15
sg2001
I2
sg2002
I0
sg2003
I2
sg2004
I1
sg2005
I0
sg2006
S'342712'
p2086
sg2008
g15
ssI929
(dp2087
g1999
F8.6625
sg3
I1
sg2000
F21.0
sg2001
I2
sg2002
I0
sg2003
I2
sg2004
I1
sg2005
I0
sg2006
S'315087'
p2088
sg2008
g15
ssI930
(dp2089
g1999
F9.5
sg3
I0
sg2000
F25.0
sg2001
I2
sg2002
I0
sg2003
I2
sg2004
I0
sg2005
I0
sg2006
S'345768'
p2090
sg2008
g15
ssI931
(dp2091
g1999
F56.4958
sg3
I0
sg2000
g15
sg2001
I2
sg2002
I0
sg2003
I2
sg2004
I0
sg2005
I0
sg2006
S'1601'
p2092
sg2008
g15
ssI932
(dp2093
g1999
F13.4167
sg3
I0
sg2000
F39.0
sg2001
I0
sg2002
I1
sg2003
I2
sg2004
I0
sg2005
I0
sg2006
S'349256'
p2094
sg2008
g15
ssI933
(dp2095
g1999
F26.55
sg3
I0
sg2000
g15
sg2001
I2
sg2002
I0
sg2003
I0
sg2004
I0
sg2005
I0
sg2006
S'113778'
p2096
sg2008
S'D34'
p2097
ssI934
(dp2098
g1999
F7.85
sg3
I0
sg2000
F41.0
sg2001
I2
sg2002
I0
sg2003
I2
sg2004
I0
sg2005
I0
sg2006
S'SOTON/O.Q. 3101263'
p2099
sg2008
g15
ssI935
(dp2100
g1999
F13.0
sg3
F0.333333
sg2000
F30.0
sg2001
I2
sg2002
I0
sg2003
I1
sg2004
I1
sg2005
I0
sg2006
S'237249'
p2101
sg2008
g15
ssI936
(dp2102
g1999
F52.5542
sg3
F0.333333
sg2000
F45.0
sg2001
I2
sg2002
I0
sg2003
I0
sg2004
I1
sg2005
I1
sg2006
S'11753'
p2103
sg2008
S'D19'
p2104
ssI937
(dp2105
g1999
F7.925
sg3
I0
sg2000
F25.0
sg2001
I2
sg2002
I0
sg2003
I2
sg2004
I0
sg2005
I0
sg2006
S'STON/O 2. 3101291'
p2106
sg2008
g15
ssI938
(dp2107
g1999
F29.7
sg3
I0
sg2000
F45.0
sg2001
I0
sg2002
I0
sg2003
I0
sg2004
I0
sg2005
I0
sg2006
S'PC 17594'
p2108
sg2008
S'A9'
p2109
ssI939
(dp2110
g1999
F7.75
sg3
I0
sg2000
g15
sg2001
I1
sg2002
I0
sg2003
I2
sg2004
I0
sg2005
I0
sg2006
S'370374'
p2111
sg2008
g15
ssI940
(dp2112
g1999
F76.2917
sg3
F0.333333
sg2000
F60.0
sg2001
I0
sg2002
I0
sg2003
I0
sg2004
I1
sg2005
I0
sg2006
S'11813'
p2113
sg2008
S'D15'
p2114
ssI941
(dp2115
g1999
F15.9
sg3
F0.333333
sg2000
F36.0
sg2001
I2
sg2002
I2
sg2003
I2
sg2004
I1
sg2005
I0
sg2006
S'C.A. 37671'
p2116
sg2008
g15
ssI942
(dp2117
g1999
F60.0
sg3
I0
sg2000
F24.0
sg2001
I2
sg2002
I0
sg2003
I0
sg2004
I0
sg2005
I1
sg2006
S'13695'
p2118
sg2008
S'C31'
p2119
ssI943
(dp2120
g1999
F15.0333
sg3
I0
sg2000
F27.0
sg2001
I0
sg2002
I0
sg2003
I1
sg2004
I0
sg2005
I0
sg2006
S'SC/PARIS 2168'
p2121
sg2008
g15
ssI944
(dp2122
g1999
F23.0
sg3
I1
sg2000
F20.0
sg2001
I2
sg2002
I1
sg2003
I1
sg2004
I1
sg2005
I2
sg2006
S'29105'
p2123
sg2008
g15
ssI945
(dp2124
g1999
F263.0
sg3
I1
sg2000
F28.0
sg2001
I2
sg2002
I2
sg2003
I0
sg2004
I1
sg2005
I3
sg2006
S'19950'
p2125
sg2008
S'C23 C25 C27'
p2126
ssI946
(dp2127
g1999
F15.5792
sg3
I0
sg2000
g15
sg2001
I0
sg2002
I0
sg2003
I1
sg2004
I0
sg2005
I0
sg2006
S'SC/A.3 2861'
p2128
sg2008
g15
ssI947
(dp2129
g1999
F29.125
sg3
F0.666666
sg2000
F10.0
sg2001
I1
sg2002
I1
sg2003
I2
sg2004
I0
sg2005
I4
sg2006
S'382652'
p2130
sg2008
g15
ssI948
(dp2131
g1999
F7.8958
sg3
I0
sg2000
F35.0
sg2001
I2
sg2002
I0
sg2003
I2
sg2004
I0
sg2005
I0
sg2006
S'349230'
p2132
sg2008
g15
ssI949
(dp2133
g1999
F7.65
sg3
I0
sg2000
F25.0
sg2001
I2
sg2002
I0
sg2003
I2
sg2004
I0
sg2005
I0
sg2006
S'348122'
p2134
sg2008
S'F G63'
p2135
ssI950
(dp2136
g1999
F16.1
sg3
I0
sg2000
g15
sg2001
I2
sg2002
I0
sg2003
I2
sg2004
I0
sg2005
I1
sg2006
S'386525'
p2137
sg2008
g15
ssI951
(dp2138
g1999
F262.375
sg3
I1
sg2000
F36.0
sg2001
I0
sg2002
I0
sg2003
I0
sg2004
I1
sg2005
I0
sg2006
S'PC 17608'
p2139
sg2008
S'B61'
p2140
ssI952
(dp2141
g1999
F7.8958
sg3
I0
sg2000
F17.0
sg2001
I2
sg2002
I0
sg2003
I2
sg2004
I0
sg2005
I0
sg2006
S'349232'
p2142
sg2008
g15
ssI953
(dp2143
g1999
F13.5
sg3
I0
sg2000
F32.0
sg2001
I2
sg2002
I0
sg2003
I1
sg2004
I0
sg2005
I0
sg2006
S'237216'
p2144
sg2008
g15
ssI954
(dp2145
g1999
F7.75
sg3
I0
sg2000
F18.0
sg2001
I2
sg2002
I0
sg2003
I2
sg2004
I0
sg2005
I0
sg2006
S'347090'
p2146
sg2008
g15
ssI955
(dp2147
g1999
F7.725
sg3
I1
sg2000
F22.0
sg2001
I1
sg2002
I0
sg2003
I2
sg2004
I1
sg2005
I0
sg2006
S'334914'
p2148
sg2008
g15
ssI956
(dp2149
g1999
F262.375
sg3
F0.666666
sg2000
F13.0
sg2001
I0
sg2002
I2
sg2003
I0
sg2004
I0
sg2005
I2
sg2006
S'PC 17608'
p2150
sg2008
S'B57 B59 B63 B66'
p2151
ssI957
(dp2152
g1999
F21.0
sg3
F0.333333
sg2000
g15
sg2001
I2
sg2002
I0
sg2003
I1
sg2004
I1
sg2005
I0
sg2006
S'F.C.C. 13534'
p2153
sg2008
g15
ssI958
(dp2154
g1999
F7.8792
sg3
I1
sg2000
F18.0
sg2001
I1
sg2002
I0
sg2003
I2
sg2004
I1
sg2005
I0
sg2006
S'330963'
p2155
sg2008
g15
ssI959
(dp2156
g1999
F42.4
sg3
I0
sg2000
F47.0
sg2001
I2
sg2002
I0
sg2003
I0
sg2004
I0
sg2005
I0
sg2006
S'113796'
p2157
sg2008
g15
ssI960
(dp2158
g1999
F28.5375
sg3
I0
sg2000
F31.0
sg2001
I0
sg2002
I0
sg2003
I0
sg2004
I0
sg2005
I0
sg2006
S'2543'
p2159
sg2008
S'C53'
p2160
ssI961
(dp2161
g1999
F263.0
sg3
F0.333333
sg2000
F60.0
sg2001
I2
sg2002
I4
sg2003
I0
sg2004
I1
sg2005
I1
sg2006
S'19950'
p2162
sg2008
S'C23 C25 C27'
p2163
ssI962
(dp2164
g1999
F7.75
sg3
I1
sg2000
F24.0
sg2001
I1
sg2002
I0
sg2003
I2
sg2004
I1
sg2005
I0
sg2006
S'382653'
p2165
sg2008
g15
ssI963
(dp2166
g1999
F7.8958
sg3
I0
sg2000
F21.0
sg2001
I2
sg2002
I0
sg2003
I2
sg2004
I0
sg2005
I0
sg2006
S'349211'
p2167
sg2008
g15
ssI964
(dp2168
g1999
F7.925
sg3
I1
sg2000
F29.0
sg2001
I2
sg2002
I0
sg2003
I2
sg2004
I1
sg2005
I0
sg2006
S'3101297'
p2169
sg2008
g15
ssI965
(dp2170
g1999
F27.7208
sg3
I4
sg2000
F28.5
sg2001
I0
sg2002
I0
sg2003
I0
sg2004
I0
sg2005
I0
sg2006
S'PC 17562'
p2171
sg2008
S'D43'
p2172
ssI966
(dp2173
g1999
F211.5
sg3
I1
sg2000
F35.0
sg2001
I0
sg2002
I0
sg2003
I0
sg2004
I1
sg2005
I0
sg2006
S'113503'
p2174
sg2008
S'C130'
p2175
ssI967
(dp2176
g1999
F211.5
sg3
I0
sg2000
F32.5
sg2001
I0
sg2002
I0
sg2003
I0
sg2004
I0
sg2005
I0
sg2006
S'113503'
p2177
sg2008
S'C132'
p2178
ssI968
(dp2179
g1999
F8.05
sg3
I0
sg2000
g15
sg2001
I2
sg2002
I0
sg2003
I2
sg2004
I0
sg2005
I0
sg2006
S'359306'
p2180
sg2008
g15
ssI969
(dp2181
g1999
F25.7
sg3
F0.333333
sg2000
F55.0
sg2001
I2
sg2002
I0
sg2003
I0
sg2004
I1
sg2005
I2
sg2006
S'11770'
p2182
sg2008
S'C101'
p2183
ssI970
(dp2184
g1999
F13.0
sg3
I0
sg2000
F30.0
sg2001
I2
sg2002
I0
sg2003
I1
sg2004
I0
sg2005
I0
sg2006
S'248744'
p2185
sg2008
g15
ssI971
(dp2186
g1999
F7.75
sg3
I1
sg2000
F24.0
sg2001
I1
sg2002
I0
sg2003
I2
sg2004
I1
sg2005
I0
sg2006
S'368702'
p2187
sg2008
g15
ssI972
(dp2188
g1999
F15.2458
sg3
F0.666666
sg2000
F6.0
sg2001
I0
sg2002
I1
sg2003
I2
sg2004
I0
sg2005
I1
sg2006
S'2678'
p2189
sg2008
g15
ssI973
(dp2190
g1999
F221.7792
sg3
I0
sg2000
F67.0
sg2001
I2
sg2002
I0
sg2003
I0
sg2004
I0
sg2005
I1
sg2006
S'PC 17483'
p2191
sg2008
S'C55 C57'
p2192
ssI974
(dp2193
g1999
F26.0
sg3
I0
sg2000
F49.0
sg2001
I2
sg2002
I0
sg2003
I0
sg2004
I0
sg2005
I0
sg2006
S'19924'
p2194
sg2008
g15
ssI975
(dp2195
g1999
F7.8958
sg3
I0
sg2000
g15
sg2001
I2
sg2002
I0
sg2003
I2
sg2004
I0
sg2005
I0
sg2006
S'349238'
p2196
sg2008
g15
ssI976
(dp2197
g1999
F10.7083
sg3
I0
sg2000
g15
sg2001
I1
sg2002
I0
sg2003
I1
sg2004
I0
sg2005
I0
sg2006
S'240261'
p2198
sg2008
g15
ssI977
(dp2199
g1999
F14.4542
sg3
I0
sg2000
g15
sg2001
I0
sg2002
I0
sg2003
I2
sg2004
I0
sg2005
I1
sg2006
S'2660'
p2200
sg2008
g15
ssI978
(dp2201
g1999
F7.8792
sg3
I1
sg2000
F27.0
sg2001
I1
sg2002
I0
sg2003
I2
sg2004
I1
sg2005
I0
sg2006
S'330844'
p2202
sg2008
g15
ssI979
(dp2203
g1999
F8.05
sg3
I1
sg2000
F18.0
sg2001
I2
sg2002
I0
sg2003
I2
sg2004
I1
sg2005
I0
sg2006
S'A/4 31416'
p2204
sg2008
g15
ssI980
(dp2205
g1999
F7.75
sg3
I4
sg2000
g15
sg2001
I1
sg2002
I0
sg2003
I2
sg2004
I1
sg2005
I0
sg2006
S'364856'
p2206
sg2008
g15
ssI981
(dp2207
g1999
F23.0
sg3
F0.666666
sg2000
F2.0
sg2001
I2
sg2002
I1
sg2003
I1
sg2004
I0
sg2005
I1
sg2006
S'29103'
p2208
sg2008
g15
ssI982
(dp2209
g1999
F13.9
sg3
F0.333333
sg2000
F22.0
sg2001
I2
sg2002
I0
sg2003
I2
sg2004
I1
sg2005
I1
sg2006
S'347072'
p2210
sg2008
g15
ssI983
(dp2211
g1999
F7.775
sg3
I0
sg2000
g15
sg2001
I2
sg2002
I0
sg2003
I2
sg2004
I0
sg2005
I0
sg2006
S'345498'
p2212
sg2008
g15
ssI984
(dp2213
g1999
F52.0
sg3
F0.333333
sg2000
F27.0
sg2001
I2
sg2002
I2
sg2003
I0
sg2004
I1
sg2005
I1
sg2006
S'F.C. 12750'
p2214
sg2008
S'B71'
p2215
ssI985
(dp2216
g1999
F8.05
sg3
I0
sg2000
g15
sg2001
I2
sg2002
I0
sg2003
I2
sg2004
I0
sg2005
I0
sg2006
S'376563'
p2217
sg2008
g15
ssI986
(dp2218
g1999
F26.0
sg3
I0
sg2000
F25.0
sg2001
I0
sg2002
I0
sg2003
I0
sg2004
I0
sg2005
I0
sg2006
S'13905'
p2219
sg2008
g15
ssI987
(dp2220
g1999
F7.7958
sg3
I0
sg2000
F25.0
sg2001
I2
sg2002
I0
sg2003
I2
sg2004
I0
sg2005
I0
sg2006
S'350033'
p2221
sg2008
g15
ssI988
(dp2222
g1999
F78.85
sg3
F0.333333
sg2000
F76.0
sg2001
I2
sg2002
I0
sg2003
I0
sg2004
I1
sg2005
I1
sg2006
S'19877'
p2223
sg2008
S'C46'
p2224
ssI989
(dp2225
g1999
F7.925
sg3
I0
sg2000
F29.0
sg2001
I2
sg2002
I0
sg2003
I2
sg2004
I0
sg2005
I0
sg2006
S'STON/O 2. 3101268'
p2226
sg2008
g15
ssI990
(dp2227
g1999
F7.8542
sg3
I1
sg2000
F20.0
sg2001
I2
sg2002
I0
sg2003
I2
sg2004
I1
sg2005
I0
sg2006
S'347471'
p2228
sg2008
g15
ssI991
(dp2229
g1999
F8.05
sg3
I0
sg2000
F33.0
sg2001
I2
sg2002
I0
sg2003
I2
sg2004
I0
sg2005
I0
sg2006
S'A./5. 3338'
p2230
sg2008
g15
ssI992
(dp2231
g1999
F55.4417
sg3
F0.333333
sg2000
F43.0
sg2001
I0
sg2002
I0
sg2003
I0
sg2004
I1
sg2005
I1
sg2006
S'11778'
p2232
sg2008
S'C116'
p2233
ssI993
(dp2234
g1999
F26.0
sg3
I0
sg2000
F27.0
sg2001
I2
sg2002
I0
sg2003
I1
sg2004
I0
sg2005
I1
sg2006
S'228414'
p2235
sg2008
g15
ssI994
(dp2236
g1999
F7.75
sg3
I0
sg2000
g15
sg2001
I1
sg2002
I0
sg2003
I2
sg2004
I0
sg2005
I0
sg2006
S'365235'
p2237
sg2008
g15
ssI995
(dp2238
g1999
F7.775
sg3
I4
sg2000
F26.0
sg2001
I2
sg2002
I0
sg2003
I2
sg2004
I0
sg2005
I0
sg2006
S'347070'
p2239
sg2008
g15
ssI996
(dp2240
g1999
F8.5167
sg3
F0.333333
sg2000
F16.0
sg2001
I0
sg2002
I1
sg2003
I2
sg2004
I1
sg2005
I1
sg2006
S'2625'
p2241
sg2008
g15
ssI997
(dp2242
g1999
F22.525
sg3
I0
sg2000
F28.0
sg2001
I2
sg2002
I0
sg2003
I2
sg2004
I0
sg2005
I0
sg2006
S'C 4001'
p2243
sg2008
g15
ssI998
(dp2244
g1999
F7.8208
sg3
I0
sg2000
F21.0
sg2001
I1
sg2002
I0
sg2003
I2
sg2004
I0
sg2005
I0
sg2006
S'330920'
p2245
sg2008
g15
ssI999
(dp2246
g1999
F7.75
sg3
I0
sg2000
g15
sg2001
I1
sg2002
I0
sg2003
I2
sg2004
I0
sg2005
I0
sg2006
S'383162'
p2247
sg2008
g15
ssI1000
(dp2248
g1999
F8.7125
sg3
I0
sg2000
g15
sg2001
I2
sg2002
I0
sg2003
I2
sg2004
I0
sg2005
I0
sg2006
S'3410'
p2249
sg2008
g15
ssI1001
(dp2250
g1999
F13.0
sg3
I0
sg2000
F18.5
sg2001
I2
sg2002
I0
sg2003
I1
sg2004
I0
sg2005
I0
sg2006
S'248734'
p2251
sg2008
S'F'
p2252
ssI1002
(dp2253
g1999
F15.0458
sg3
I0
sg2000
F41.0
sg2001
I0
sg2002
I0
sg2003
I1
sg2004
I0
sg2005
I0
sg2006
S'237734'
p2254
sg2008
g15
ssI1003
(dp2255
g1999
F7.7792
sg3
I1
sg2000
g15
sg2001
I1
sg2002
I0
sg2003
I2
sg2004
I1
sg2005
I0
sg2006
S'330968'
p2256
sg2008
g15
ssI1004
(dp2257
g1999
F31.6792
sg3
I1
sg2000
F36.0
sg2001
I0
sg2002
I0
sg2003
I0
sg2004
I1
sg2005
I0
sg2006
S'PC 17531'
p2258
sg2008
S'A29'
p2259
ssI1005
(dp2260
g1999
F7.2833
sg3
I1
sg2000
F18.5
sg2001
I1
sg2002
I0
sg2003
I2
sg2004
I1
sg2005
I0
sg2006
S'329944'
p2261
sg2008
g15
ssI1006
(dp2262
g1999
F221.7792
sg3
F0.333333
sg2000
F63.0
sg2001
I2
sg2002
I0
sg2003
I0
sg2004
I1
sg2005
I1
sg2006
S'PC 17483'
p2263
sg2008
S'C55 C57'
p2264
ssI1007
(dp2265
g1999
F14.4542
sg3
I0
sg2000
F18.0
sg2001
I0
sg2002
I0
sg2003
I2
sg2004
I0
sg2005
I1
sg2006
S'2680'
p2266
sg2008
g15
ssI1008
(dp2267
g1999
F6.4375
sg3
I0
sg2000
g15
sg2001
I0
sg2002
I0
sg2003
I2
sg2004
I0
sg2005
I0
sg2006
S'2681'
p2268
sg2008
g15
ssI1009
(dp2269
g1999
F16.7
sg3
I1
sg2000
F1.0
sg2001
I2
sg2002
I1
sg2003
I2
sg2004
I1
sg2005
I1
sg2006
S'PP 9549'
p2270
sg2008
S'G6'
p2271
ssI1010
(dp2272
g1999
F75.2417
sg3
I0
sg2000
F36.0
sg2001
I0
sg2002
I0
sg2003
I0
sg2004
I0
sg2005
I0
sg2006
S'13050'
p2273
sg2008
S'C6'
p2274
ssI1011
(dp2275
g1999
F26.0
sg3
F0.333333
sg2000
F29.0
sg2001
I2
sg2002
I0
sg2003
I1
sg2004
I1
sg2005
I1
sg2006
S'SC/AH 29037'
p2276
sg2008
g15
ssI1012
(dp2277
g1999
F15.75
sg3
I1
sg2000
F12.0
sg2001
I2
sg2002
I0
sg2003
I1
sg2004
I1
sg2005
I0
sg2006
S'C.A. 33595'
p2278
sg2008
g15
ssI1013
(dp2279
g1999
F7.75
sg3
I0
sg2000
g15
sg2001
I1
sg2002
I0
sg2003
I2
sg2004
I0
sg2005
I1
sg2006
S'367227'
p2280
sg2008
g15
ssI1014
(dp2281
g1999
F57.75
sg3
F0.333333
sg2000
F35.0
sg2001
I0
sg2002
I0
sg2003
I0
sg2004
I1
sg2005
I1
sg2006
S'13236'
p2282
sg2008
S'C28'
p2283
ssI1015
(dp2284
g1999
F7.25
sg3
I0
sg2000
F28.0
sg2001
I2
sg2002
I0
sg2003
I2
sg2004
I0
sg2005
I0
sg2006
S'392095'
p2285
sg2008
g15
ssI1016
(dp2286
g1999
F7.75
sg3
I0
sg2000
g15
sg2001
I1
sg2002
I0
sg2003
I2
sg2004
I0
sg2005
I0
sg2006
S'368783'
p2287
sg2008
g15
ssI1017
(dp2288
g1999
F16.1
sg3
I1
sg2000
F17.0
sg2001
I2
sg2002
I1
sg2003
I2
sg2004
I1
sg2005
I0
sg2006
S'371362'
p2289
sg2008
g15
ssI1018
(dp2290
g1999
F7.7958
sg3
I0
sg2000
F22.0
sg2001
I2
sg2002
I0
sg2003
I2
sg2004
I0
sg2005
I0
sg2006
S'350045'
p2291
sg2008
g15
ssI1019
(dp2292
g1999
F23.25
sg3
I1
sg2000
g15
sg2001
I1
sg2002
I0
sg2003
I2
sg2004
I1
sg2005
I2
sg2006
S'367226'
p2293
sg2008
g15
ssI1020
(dp2294
g1999
F13.0
sg3
I0
sg2000
F42.0
sg2001
I2
sg2002
I0
sg2003
I1
sg2004
I0
sg2005
I0
sg2006
S'211535'
p2295
sg2008
g15
ssI1021
(dp2296
g1999
F8.05
sg3
I0
sg2000
F24.0
sg2001
I2
sg2002
I0
sg2003
I2
sg2004
I0
sg2005
I0
sg2006
S'342441'
p2297
sg2008
g15
ssI1022
(dp2298
g1999
F8.05
sg3
I0
sg2000
F32.0
sg2001
I2
sg2002
I0
sg2003
I2
sg2004
I0
sg2005
I0
sg2006
S'STON/OQ. 369943'
p2299
sg2008
g15
ssI1023
(dp2300
g1999
F28.5
sg3
I4
sg2000
F53.0
sg2001
I0
sg2002
I0
sg2003
I0
sg2004
I0
sg2005
I0
sg2006
S'113780'
p2301
sg2008
S'C51'
p2302
ssI1024
(dp2303
g1999
F25.4667
sg3
F0.333333
sg2000
g15
sg2001
I2
sg2002
I4
sg2003
I2
sg2004
I1
sg2005
I0
sg2006
S'4133'
p2304
sg2008
g15
ssI1025
(dp2305
g1999
F6.4375
sg3
I0
sg2000
g15
sg2001
I0
sg2002
I0
sg2003
I2
sg2004
I0
sg2005
I1
sg2006
S'2621'
p2306
sg2008
g15
ssI1026
(dp2307
g1999
F7.8958
sg3
I0
sg2000
F43.0
sg2001
I2
sg2002
I0
sg2003
I2
sg2004
I0
sg2005
I0
sg2006
S'349226'
p2308
sg2008
g15
ssI1027
(dp2309
g1999
F7.8542
sg3
I0
sg2000
F24.0
sg2001
I2
sg2002
I0
sg2003
I2
sg2004
I0
sg2005
I0
sg2006
S'350409'
p2310
sg2008
g15
ssI1028
(dp2311
g1999
F7.225
sg3
I0
sg2000
F26.5
sg2001
I0
sg2002
I0
sg2003
I2
sg2004
I0
sg2005
I0
sg2006
S'2656'
p2312
sg2008
g15
ssI1029
(dp2313
g1999
F13.0
sg3
I0
sg2000
F26.0
sg2001
I2
sg2002
I0
sg2003
I1
sg2004
I0
sg2005
I0
sg2006
S'248659'
p2314
sg2008
g15
ssI1030
(dp2315
g1999
F8.05
sg3
I1
sg2000
F23.0
sg2001
I2
sg2002
I0
sg2003
I2
sg2004
I1
sg2005
I0
sg2006
S'SOTON/OQ 392083'
p2316
sg2008
g15
ssI1031
(dp2317
g1999
F46.9
sg3
I0
sg2000
F40.0
sg2001
I2
sg2002
I6
sg2003
I2
sg2004
I0
sg2005
I1
sg2006
S'CA 2144'
p2318
sg2008
g15
ssI1032
(dp2319
g1999
F46.9
sg3
I1
sg2000
F10.0
sg2001
I2
sg2002
I2
sg2003
I2
sg2004
I1
sg2005
I5
sg2006
S'CA 2144'
p2320
sg2008
g15
ssI1033
(dp2321
g1999
F151.55
sg3
I1
sg2000
F33.0
sg2001
I2
sg2002
I0
sg2003
I0
sg2004
I1
sg2005
I0
sg2006
S'113781'
p2322
sg2008
g15
ssI1034
(dp2323
g1999
F262.375
sg3
I0
sg2000
F61.0
sg2001
I0
sg2002
I3
sg2003
I0
sg2004
I0
sg2005
I1
sg2006
S'PC 17608'
p2324
sg2008
S'B57 B59 B63 B66'
p2325
ssI1035
(dp2326
g1999
F26.0
sg3
I0
sg2000
F28.0
sg2001
I2
sg2002
I0
sg2003
I1
sg2004
I0
sg2005
I0
sg2006
S'244358'
p2327
sg2008
g15
ssI1036
(dp2328
g1999
F26.55
sg3
I0
sg2000
F42.0
sg2001
I2
sg2002
I0
sg2003
I0
sg2004
I0
sg2005
I0
sg2006
S'17475'
p2329
sg2008
g15
ssI1037
(dp2330
g1999
F18.0
sg3
I4
sg2000
F31.0
sg2001
I2
sg2002
I0
sg2003
I2
sg2004
I0
sg2005
I3
sg2006
S'345763'
p2331
sg2008
g15
ssI1038
(dp2332
g1999
F51.8625
sg3
I0
sg2000
g15
sg2001
I2
sg2002
I0
sg2003
I0
sg2004
I0
sg2005
I0
sg2006
S'17463'
p2333
sg2008
S'E46'
p2334
ssI1039
(dp2335
g1999
F8.05
sg3
I0
sg2000
F22.0
sg2001
I2
sg2002
I0
sg2003
I2
sg2004
I0
sg2005
I0
sg2006
S'SC/A4 23568'
p2336
sg2008
g15
ssI1040
(dp2337
g1999
F26.55
sg3
I0
sg2000
g15
sg2001
I2
sg2002
I0
sg2003
I0
sg2004
I0
sg2005
I0
sg2006
S'113791'
p2338
sg2008
g15
ssI1041
(dp2339
g1999
F26.0
sg3
I4
sg2000
F30.0
sg2001
I2
sg2002
I1
sg2003
I1
sg2004
I0
sg2005
I1
sg2006
S'250651'
p2340
sg2008
g15
ssI1042
(dp2341
g1999
F83.1583
sg3
F0.333333
sg2000
F23.0
sg2001
I0
sg2002
I1
sg2003
I0
sg2004
I1
sg2005
I0
sg2006
S'11767'
p2342
sg2008
S'C54'
p2343
ssI1043
(dp2344
g1999
F7.8958
sg3
I0
sg2000
g15
sg2001
I0
sg2002
I0
sg2003
I2
sg2004
I0
sg2005
I0
sg2006
S'349255'
p2345
sg2008
g15
ssI1044
(dp2346
g1999
g15
sg3
I0
sg2000
F60.5
sg2001
I2
sg2002
I0
sg2003
I2
sg2004
I0
sg2005
I0
sg2006
S'3701'
p2347
sg2008
g15
ssI1045
(dp2348
g1999
F12.1833
sg3
F0.333333
sg2000
F36.0
sg2001
I2
sg2002
I2
sg2003
I2
sg2004
I1
sg2005
I0
sg2006
S'350405'
p2349
sg2008
g15
ssI1046
(dp2350
g1999
F31.3875
sg3
F0.666666
sg2000
F13.0
sg2001
I2
sg2002
I2
sg2003
I2
sg2004
I0
sg2005
I4
sg2006
S'347077'
p2351
sg2008
g15
ssI1047
(dp2352
g1999
F7.55
sg3
I0
sg2000
F24.0
sg2001
I2
sg2002
I0
sg2003
I2
sg2004
I0
sg2005
I0
sg2006
S'S.O./P.P. 752'
p2353
sg2008
g15
ssI1048
(dp2354
g1999
F221.7792
sg3
I1
sg2000
F29.0
sg2001
I2
sg2002
I0
sg2003
I0
sg2004
I1
sg2005
I0
sg2006
S'PC 17483'
p2355
sg2008
S'C97'
p2356
ssI1049
(dp2357
g1999
F7.8542
sg3
I1
sg2000
F23.0
sg2001
I2
sg2002
I0
sg2003
I2
sg2004
I1
sg2005
I0
sg2006
S'347469'
p2358
sg2008
g15
ssI1050
(dp2359
g1999
F26.55
sg3
I0
sg2000
F42.0
sg2001
I2
sg2002
I0
sg2003
I0
sg2004
I0
sg2005
I0
sg2006
S'110489'
p2360
sg2008
S'D22'
p2361
ssI1051
(dp2362
g1999
F13.775
sg3
F0.333333
sg2000
F26.0
sg2001
I2
sg2002
I2
sg2003
I2
sg2004
I1
sg2005
I0
sg2006
S'SOTON/O.Q. 3101315'
p2363
sg2008
g15
ssI1052
(dp2364
g1999
F7.7333
sg3
I1
sg2000
g15
sg2001
I1
sg2002
I0
sg2003
I2
sg2004
I1
sg2005
I0
sg2006
S'335432'
p2365
sg2008
g15
ssI1053
(dp2366
g1999
F15.2458
sg3
F0.666666
sg2000
F7.0
sg2001
I0
sg2002
I1
sg2003
I2
sg2004
I0
sg2005
I1
sg2006
S'2650'
p2367
sg2008
g15
ssI1054
(dp2368
g1999
F13.5
sg3
I1
sg2000
F26.0
sg2001
I2
sg2002
I0
sg2003
I1
sg2004
I1
sg2005
I0
sg2006
S'220844'
p2369
sg2008
g15
ssI1055
(dp2370
g1999
F7.0
sg3
I0
sg2000
g15
sg2001
I2
sg2002
I0
sg2003
I2
sg2004
I0
sg2005
I0
sg2006
S'343271'
p2371
sg2008
g15
ssI1056
(dp2372
g1999
F13.0
sg3
I4
sg2000
F41.0
sg2001
I2
sg2002
I0
sg2003
I1
sg2004
I0
sg2005
I0
sg2006
S'237393'
p2373
sg2008
g15
ssI1057
(dp2374
g1999
F22.025
sg3
F0.333333
sg2000
F26.0
sg2001
I2
sg2002
I1
sg2003
I2
sg2004
I1
sg2005
I1
sg2006
S'315153'
p2375
sg2008
g15
ssI1058
(dp2376
g1999
F50.4958
sg3
I0
sg2000
F48.0
sg2001
I0
sg2002
I0
sg2003
I0
sg2004
I0
sg2005
I0
sg2006
S'PC 17591'
p2377
sg2008
S'B10'
p2378
ssI1059
(dp2379
g1999
F34.375
sg3
I0
sg2000
F18.0
sg2001
I2
sg2002
I2
sg2003
I2
sg2004
I0
sg2005
I2
sg2006
S'W./C. 6608'
p2380
sg2008
g15
ssI1060
(dp2381
g1999
F27.7208
sg3
F0.333333
sg2000
g15
sg2001
I0
sg2002
I0
sg2003
I0
sg2004
I1
sg2005
I0
sg2006
S'17770'
p2382
sg2008
g15
ssI1061
(dp2383
g1999
F8.9625
sg3
I1
sg2000
F22.0
sg2001
I2
sg2002
I0
sg2003
I2
sg2004
I1
sg2005
I0
sg2006
S'7548'
p2384
sg2008
g15
ssI1062
(dp2385
g1999
F7.55
sg3
I0
sg2000
g15
sg2001
I2
sg2002
I0
sg2003
I2
sg2004
I0
sg2005
I0
sg2006
S'S.O./P.P. 251'
p2386
sg2008
g15
ssI1063
(dp2387
g1999
F7.225
sg3
I0
sg2000
F27.0
sg2001
I0
sg2002
I0
sg2003
I2
sg2004
I0
sg2005
I0
sg2006
S'2670'
p2388
sg2008
g15
ssI1064
(dp2389
g1999
F13.9
sg3
I0
sg2000
F23.0
sg2001
I2
sg2002
I0
sg2003
I2
sg2004
I0
sg2005
I1
sg2006
S'347072'
p2390
sg2008
g15
ssI1065
(dp2391
g1999
F7.2292
sg3
I0
sg2000
g15
sg2001
I0
sg2002
I0
sg2003
I2
sg2004
I0
sg2005
I0
sg2006
S'2673'
p2392
sg2008
g15
ssI1066
(dp2393
g1999
F31.3875
sg3
I0
sg2000
F40.0
sg2001
I2
sg2002
I5
sg2003
I2
sg2004
I0
sg2005
I1
sg2006
S'347077'
p2394
sg2008
g15
ssI1067
(dp2395
g1999
F39.0
sg3
I1
sg2000
F15.0
sg2001
I2
sg2002
I2
sg2003
I1
sg2004
I1
sg2005
I0
sg2006
S'29750'
p2396
sg2008
g15
ssI1068
(dp2397
g1999
F36.75
sg3
I1
sg2000
F20.0
sg2001
I2
sg2002
I0
sg2003
I1
sg2004
I1
sg2005
I0
sg2006
S'C.A. 33112'
p2398
sg2008
g15
ssI1069
(dp2399
g1999
F55.4417
sg3
I0
sg2000
F54.0
sg2001
I0
sg2002
I0
sg2003
I0
sg2004
I0
sg2005
I1
sg2006
S'11778'
p2400
sg2008
S'C116'
p2401
ssI1070
(dp2402
g1999
F39.0
sg3
F0.333333
sg2000
F36.0
sg2001
I2
sg2002
I3
sg2003
I1
sg2004
I1
sg2005
I0
sg2006
S'230136'
p2403
sg2008
S'F4'
p2404
ssI1071
(dp2405
g1999
F83.1583
sg3
F0.333333
sg2000
F64.0
sg2001
I0
sg2002
I2
sg2003
I0
sg2004
I1
sg2005
I0
sg2006
S'PC 17756'
p2406
sg2008
S'E45'
p2407
ssI1072
(dp2408
g1999
F13.0
sg3
I0
sg2000
F30.0
sg2001
I2
sg2002
I0
sg2003
I1
sg2004
I0
sg2005
I0
sg2006
S'233478'
p2409
sg2008
g15
ssI1073
(dp2410
g1999
F83.1583
sg3
I0
sg2000
F37.0
sg2001
I0
sg2002
I1
sg2003
I0
sg2004
I0
sg2005
I1
sg2006
S'PC 17756'
p2411
sg2008
S'E52'
p2412
ssI1074
(dp2413
g1999
F53.1
sg3
F0.333333
sg2000
F18.0
sg2001
I2
sg2002
I0
sg2003
I0
sg2004
I1
sg2005
I1
sg2006
S'113773'
p2414
sg2008
S'D30'
p2415
ssI1075
(dp2416
g1999
F7.75
sg3
I0
sg2000
g15
sg2001
I1
sg2002
I0
sg2003
I2
sg2004
I0
sg2005
I0
sg2006
S'7935'
p2417
sg2008
g15
ssI1076
(dp2418
g1999
F247.5208
sg3
F0.333333
sg2000
F27.0
sg2001
I0
sg2002
I1
sg2003
I0
sg2004
I1
sg2005
I1
sg2006
S'PC 17558'
p2419
sg2008
S'B58 B60'
p2420
ssI1077
(dp2421
g1999
F16.0
sg3
I0
sg2000
F40.0
sg2001
I2
sg2002
I0
sg2003
I1
sg2004
I0
sg2005
I0
sg2006
S'239059'
p2422
sg2008
g15
ssI1078
(dp2423
g1999
F21.0
sg3
I1
sg2000
F21.0
sg2001
I2
sg2002
I1
sg2003
I1
sg2004
I1
sg2005
I0
sg2006
S'S.O./P.P. 2'
p2424
sg2008
g15
ssI1079
(dp2425
g1999
F8.05
sg3
I0
sg2000
F17.0
sg2001
I2
sg2002
I0
sg2003
I2
sg2004
I0
sg2005
I2
sg2006
S'A/4 48873'
p2426
sg2008
g15
ssI1080
(dp2427
g1999
F69.55
sg3
I1
sg2000
g15
sg2001
I2
sg2002
I2
sg2003
I2
sg2004
I1
sg2005
I8
sg2006
S'CA. 2343'
p2428
sg2008
g15
ssI1081
(dp2429
g1999
F13.0
sg3
I0
sg2000
F40.0
sg2001
I2
sg2002
I0
sg2003
I1
sg2004
I0
sg2005
I0
sg2006
S'28221'
p2430
sg2008
g15
ssI1082
(dp2431
g1999
F26.0
sg3
I0
sg2000
F34.0
sg2001
I2
sg2002
I0
sg2003
I1
sg2004
I0
sg2005
I1
sg2006
S'226875'
p2432
sg2008
g15
ssI1083
(dp2433
g1999
F26.0
sg3
I0
sg2000
g15
sg2001
I2
sg2002
I0
sg2003
I0
sg2004
I0
sg2005
I0
sg2006
S'111163'
p2434
sg2008
g15
ssI1084
(dp2435
g1999
F14.5
sg3
I4
sg2000
F11.5
sg2001
I2
sg2002
I1
sg2003
I2
sg2004
I0
sg2005
I1
sg2006
S'A/5. 851'
p2436
sg2008
g15
ssI1085
(dp2437
g1999
F12.35
sg3
I0
sg2000
F61.0
sg2001
I1
sg2002
I0
sg2003
I1
sg2004
I0
sg2005
I0
sg2006
S'235509'
p2438
sg2008
g15
ssI1086
(dp2439
g1999
F32.5
sg3
F0.666666
sg2000
F8.0
sg2001
I2
sg2002
I2
sg2003
I1
sg2004
I0
sg2005
I0
sg2006
S'28220'
p2440
sg2008
g15
ssI1087
(dp2441
g1999
F7.8542
sg3
I0
sg2000
F33.0
sg2001
I2
sg2002
I0
sg2003
I2
sg2004
I0
sg2005
I0
sg2006
S'347465'
p2442
sg2008
g15
ssI1088
(dp2443
g1999
F134.5
sg3
F0.666666
sg2000
F6.0
sg2001
I0
sg2002
I2
sg2003
I0
sg2004
I0
sg2005
I0
sg2006
S'16966'
p2444
sg2008
S'E34'
p2445
ssI1089
(dp2446
g1999
F7.775
sg3
I1
sg2000
F18.0
sg2001
I2
sg2002
I0
sg2003
I2
sg2004
I1
sg2005
I0
sg2006
S'347066'
p2447
sg2008
g15
ssI1090
(dp2448
g1999
F10.5
sg3
I0
sg2000
F23.0
sg2001
I2
sg2002
I0
sg2003
I1
sg2004
I0
sg2005
I0
sg2006
S'C.A. 31030'
p2449
sg2008
g15
ssI1091
(dp2450
g1999
F8.1125
sg3
F0.333333
sg2000
g15
sg2001
I2
sg2002
I0
sg2003
I2
sg2004
I1
sg2005
I0
sg2006
S'65305'
p2451
sg2008
g15
ssI1092
(dp2452
g1999
F15.5
sg3
I1
sg2000
g15
sg2001
I1
sg2002
I0
sg2003
I2
sg2004
I1
sg2005
I0
sg2006
S'36568'
p2453
sg2008
g15
ssI1093
(dp2454
g1999
F14.4
sg3
F0.666666
sg2000
F0.33
sg2001
I2
sg2002
I2
sg2003
I2
sg2004
I0
sg2005
I0
sg2006
S'347080'
p2455
sg2008
g15
ssI1094
(dp2456
g1999
F227.525
sg3
I4
sg2000
F47.0
sg2001
I0
sg2002
I0
sg2003
I0
sg2004
I0
sg2005
I1
sg2006
S'PC 17757'
p2457
sg2008
S'C62 C64'
p2458
ssI1095
(dp2459
g1999
F26.0
sg3
I1
sg2000
F8.0
sg2001
I2
sg2002
I1
sg2003
I1
sg2004
I1
sg2005
I1
sg2006
S'26360'
p2460
sg2008
g15
ssI1096
(dp2461
g1999
F10.5
sg3
I0
sg2000
F25.0
sg2001
I2
sg2002
I0
sg2003
I1
sg2004
I0
sg2005
I0
sg2006
S'C.A. 34050'
p2462
sg2008
g15
ssI1097
(dp2463
g1999
F25.7417
sg3
I0
sg2000
g15
sg2001
I0
sg2002
I0
sg2003
I0
sg2004
I0
sg2005
I0
sg2006
S'F.C. 12998'
p2464
sg2008
g15
ssI1098
(dp2465
g1999
F7.75
sg3
I1
sg2000
F35.0
sg2001
I1
sg2002
I0
sg2003
I2
sg2004
I1
sg2005
I0
sg2006
S'9232'
p2466
sg2008
g15
ssI1099
(dp2467
g1999
F10.5
sg3
I0
sg2000
F24.0
sg2001
I2
sg2002
I0
sg2003
I1
sg2004
I0
sg2005
I0
sg2006
S'28034'
p2468
sg2008
g15
ssI1100
(dp2469
g1999
F27.7208
sg3
I1
sg2000
F33.0
sg2001
I0
sg2002
I0
sg2003
I0
sg2004
I1
sg2005
I0
sg2006
S'PC 17613'
p2470
sg2008
S'A11'
p2471
ssI1101
(dp2472
g1999
F7.8958
sg3
I0
sg2000
F25.0
sg2001
I2
sg2002
I0
sg2003
I2
sg2004
I0
sg2005
I0
sg2006
S'349250'
p2473
sg2008
g15
ssI1102
(dp2474
g1999
F22.525
sg3
I0
sg2000
F32.0
sg2001
I2
sg2002
I0
sg2003
I2
sg2004
I0
sg2005
I0
sg2006
S'C 4001'
p2475
sg2008
g15
ssI1103
(dp2476
g1999
F7.05
sg3
I0
sg2000
g15
sg2001
I2
sg2002
I0
sg2003
I2
sg2004
I0
sg2005
I0
sg2006
S'SOTON/O.Q. 3101308'
p2477
sg2008
g15
ssI1104
(dp2478
g1999
F73.5
sg3
I0
sg2000
F17.0
sg2001
I2
sg2002
I0
sg2003
I1
sg2004
I0
sg2005
I0
sg2006
S'S.O.C. 14879'
p2479
sg2008
g15
ssI1105
(dp2480
g1999
F26.0
sg3
F0.333333
sg2000
F60.0
sg2001
I2
sg2002
I0
sg2003
I1
sg2004
I1
sg2005
I1
sg2006
S'24065'
p2481
sg2008
g15
ssI1106
(dp2482
g1999
F7.775
sg3
I1
sg2000
F38.0
sg2001
I2
sg2002
I2
sg2003
I2
sg2004
I1
sg2005
I4
sg2006
S'347091'
p2483
sg2008
g15
ssI1107
(dp2484
g1999
F42.5
sg3
I0
sg2000
F42.0
sg2001
I2
sg2002
I0
sg2003
I0
sg2004
I0
sg2005
I0
sg2006
S'113038'
p2485
sg2008
S'B11'
p2486
ssI1108
(dp2487
g1999
F7.8792
sg3
I1
sg2000
g15
sg2001
I1
sg2002
I0
sg2003
I2
sg2004
I1
sg2005
I0
sg2006
S'330924'
p2488
sg2008
g15
ssI1109
(dp2489
g1999
F164.8667
sg3
I0
sg2000
F57.0
sg2001
I2
sg2002
I1
sg2003
I0
sg2004
I0
sg2005
I1
sg2006
S'36928'
p2490
sg2008
g15
ssI1110
(dp2491
g1999
F211.5
sg3
F0.333333
sg2000
F50.0
sg2001
I0
sg2002
I1
sg2003
I0
sg2004
I1
sg2005
I1
sg2006
S'113503'
p2492
sg2008
S'C80'
p2493
ssI1111
(dp2494
g1999
F8.05
sg3
I0
sg2000
g15
sg2001
I2
sg2002
I0
sg2003
I2
sg2004
I0
sg2005
I0
sg2006
S'32302'
p2495
sg2008
g15
ssI1112
(dp2496
g1999
F13.8583
sg3
I4
sg2000
F30.0
sg2001
I0
sg2002
I0
sg2003
I1
sg2004
I1
sg2005
I1
sg2006
S'SC/PARIS 2148'
p2497
sg2008
g15
ssI1113
(dp2498
g1999
F8.05
sg3
I0
sg2000
F21.0
sg2001
I2
sg2002
I0
sg2003
I2
sg2004
I0
sg2005
I0
sg2006
S'342684'
p2499
sg2008
g15
ssI1114
(dp2500
g1999
F10.5
sg3
F0.333333
sg2000
F22.0
sg2001
I2
sg2002
I0
sg2003
I1
sg2004
I1
sg2005
I0
sg2006
S'W./C. 14266'
p2501
sg2008
S'F33'
p2502
ssI1115
(dp2503
g1999
F7.7958
sg3
I0
sg2000
F21.0
sg2001
I2
sg2002
I0
sg2003
I2
sg2004
I0
sg2005
I0
sg2006
S'350053'
p2504
sg2008
g15
ssI1116
(dp2505
g1999
F27.4458
sg3
F0.333333
sg2000
F53.0
sg2001
I0
sg2002
I0
sg2003
I0
sg2004
I1
sg2005
I0
sg2006
S'PC 17606'
p2506
sg2008
g15
ssI1117
(dp2507
g1999
F15.2458
sg3
F0.333333
sg2000
g15
sg2001
I0
sg2002
I2
sg2003
I2
sg2004
I1
sg2005
I0
sg2006
S'2661'
p2508
sg2008
g15
ssI1118
(dp2509
g1999
F7.7958
sg3
I0
sg2000
F23.0
sg2001
I2
sg2002
I0
sg2003
I2
sg2004
I0
sg2005
I0
sg2006
S'350054'
p2510
sg2008
g15
ssI1119
(dp2511
g1999
F7.75
sg3
I1
sg2000
g15
sg2001
I1
sg2002
I0
sg2003
I2
sg2004
I1
sg2005
I0
sg2006
S'370368'
p2512
sg2008
g15
ssI1120
(dp2513
g1999
F15.1
sg3
I0
sg2000
F40.5
sg2001
I2
sg2002
I0
sg2003
I2
sg2004
I0
sg2005
I0
sg2006
S'C.A. 6212'
p2514
sg2008
g15
ssI1121
(dp2515
g1999
F13.0
sg3
I0
sg2000
F36.0
sg2001
I2
sg2002
I0
sg2003
I1
sg2004
I0
sg2005
I0
sg2006
S'242963'
p2516
sg2008
g15
ssI1122
(dp2517
g1999
F65.0
sg3
I0
sg2000
F14.0
sg2001
I2
sg2002
I0
sg2003
I1
sg2004
I0
sg2005
I0
sg2006
S'220845'
p2518
sg2008
g15
ssI1123
(dp2519
g1999
F26.55
sg3
I1
sg2000
F21.0
sg2001
I2
sg2002
I0
sg2003
I0
sg2004
I1
sg2005
I0
sg2006
S'113795'
p2520
sg2008
g15
ssI1124
(dp2521
g1999
F6.4958
sg3
I0
sg2000
F21.0
sg2001
I2
sg2002
I0
sg2003
I2
sg2004
I0
sg2005
I1
sg2006
S'3101266'
p2522
sg2008
g15
ssI1125
(dp2523
g1999
F7.8792
sg3
I0
sg2000
g15
sg2001
I1
sg2002
I0
sg2003
I2
sg2004
I0
sg2005
I0
sg2006
S'330971'
p2524
sg2008
g15
ssI1126
(dp2525
g1999
F71.2833
sg3
I0
sg2000
F39.0
sg2001
I0
sg2002
I0
sg2003
I0
sg2004
I0
sg2005
I1
sg2006
S'PC 17599'
p2526
sg2008
S'C85'
p2527
ssI1127
(dp2528
g1999
F7.8542
sg3
I0
sg2000
F20.0
sg2001
I2
sg2002
I0
sg2003
I2
sg2004
I0
sg2005
I0
sg2006
S'350416'
p2529
sg2008
g15
ssI1128
(dp2530
g1999
F75.25
sg3
I0
sg2000
F64.0
sg2001
I0
sg2002
I0
sg2003
I0
sg2004
I0
sg2005
I1
sg2006
S'110813'
p2531
sg2008
S'D37'
p2532
ssI1129
(dp2533
g1999
F7.225
sg3
I0
sg2000
F20.0
sg2001
I0
sg2002
I0
sg2003
I2
sg2004
I0
sg2005
I0
sg2006
S'2679'
p2534
sg2008
g15
ssI1130
(dp2535
g1999
F13.0
sg3
I1
sg2000
F18.0
sg2001
I2
sg2002
I1
sg2003
I1
sg2004
I1
sg2005
I1
sg2006
S'250650'
p2536
sg2008
g15
ssI1131
(dp2537
g1999
F106.425
sg3
F0.333333
sg2000
F48.0
sg2001
I0
sg2002
I0
sg2003
I0
sg2004
I1
sg2005
I1
sg2006
S'PC 17761'
p2538
sg2008
S'C86'
p2539
ssI1132
(dp2540
g1999
F27.7208
sg3
F0.333333
sg2000
F55.0
sg2001
I0
sg2002
I0
sg2003
I0
sg2004
I1
sg2005
I0
sg2006
S'112377'
p2541
sg2008
g15
ssI1133
(dp2542
g1999
F30.0
sg3
F0.333333
sg2000
F45.0
sg2001
I2
sg2002
I2
sg2003
I1
sg2004
I1
sg2005
I0
sg2006
S'237789'
p2543
sg2008
g15
ssI1134
(dp2544
g1999
F134.5
sg3
I0
sg2000
F45.0
sg2001
I0
sg2002
I1
sg2003
I0
sg2004
I0
sg2005
I1
sg2006
S'16966'
p2545
sg2008
S'E34'
p2546
ssI1135
(dp2547
g1999
F7.8875
sg3
I0
sg2000
g15
sg2001
I2
sg2002
I0
sg2003
I2
sg2004
I0
sg2005
I0
sg2006
S'3470'
p2548
sg2008
g15
ssI1136
(dp2549
g1999
F23.45
sg3
F0.666666
sg2000
g15
sg2001
I2
sg2002
I2
sg2003
I2
sg2004
I0
sg2005
I1
sg2006
S'W./C. 6607'
p2550
sg2008
g15
ssI1137
(dp2551
g1999
F51.8625
sg3
I0
sg2000
F41.0
sg2001
I2
sg2002
I0
sg2003
I0
sg2004
I0
sg2005
I1
sg2006
S'17464'
p2552
sg2008
S'D21'
p2553
ssI1138
(dp2554
g1999
F21.0
sg3
F0.333333
sg2000
F22.0
sg2001
I2
sg2002
I0
sg2003
I1
sg2004
I1
sg2005
I0
sg2006
S'F.C.C. 13534'
p2555
sg2008
g15
ssI1139
(dp2556
g1999
F32.5
sg3
I0
sg2000
F42.0
sg2001
I2
sg2002
I1
sg2003
I1
sg2004
I0
sg2005
I1
sg2006
S'28220'
p2557
sg2008
g15
ssI1140
(dp2558
g1999
F26.0
sg3
F0.333333
sg2000
F29.0
sg2001
I2
sg2002
I0
sg2003
I1
sg2004
I1
sg2005
I1
sg2006
S'26707'
p2559
sg2008
g15
ssI1141
(dp2560
g1999
F14.4542
sg3
F0.333333
sg2000
g15
sg2001
I0
sg2002
I0
sg2003
I2
sg2004
I1
sg2005
I1
sg2006
S'2660'
p2561
sg2008
g15
ssI1142
(dp2562
g1999
F27.75
sg3
I1
sg2000
F0.92
sg2001
I2
sg2002
I2
sg2003
I1
sg2004
I1
sg2005
I1
sg2006
S'C.A. 34651'
p2563
sg2008
g15
ssI1143
(dp2564
g1999
F7.925
sg3
I0
sg2000
F20.0
sg2001
I2
sg2002
I0
sg2003
I2
sg2004
I0
sg2005
I0
sg2006
S'SOTON/O2 3101284'
p2565
sg2008
g15
ssI1144
(dp2566
g1999
F136.7792
sg3
I0
sg2000
F27.0
sg2001
I0
sg2002
I0
sg2003
I0
sg2004
I0
sg2005
I1
sg2006
S'13508'
p2567
sg2008
S'C89'
p2568
ssI1145
(dp2569
g1999
F9.325
sg3
I0
sg2000
F24.0
sg2001
I2
sg2002
I0
sg2003
I2
sg2004
I0
sg2005
I0
sg2006
S'7266'
p2570
sg2008
g15
ssI1146
(dp2571
g1999
F9.5
sg3
I0
sg2000
F32.5
sg2001
I2
sg2002
I0
sg2003
I2
sg2004
I0
sg2005
I0
sg2006
S'345775'
p2572
sg2008
g15
ssI1147
(dp2573
g1999
F7.55
sg3
I0
sg2000
g15
sg2001
I2
sg2002
I0
sg2003
I2
sg2004
I0
sg2005
I0
sg2006
S'C.A. 42795'
p2574
sg2008
g15
ssI1148
(dp2575
g1999
F7.75
sg3
I0
sg2000
g15
sg2001
I1
sg2002
I0
sg2003
I2
sg2004
I0
sg2005
I0
sg2006
S'AQ/4 3130'
p2576
sg2008
g15
ssI1149
(dp2577
g1999
F8.05
sg3
I0
sg2000
F28.0
sg2001
I2
sg2002
I0
sg2003
I2
sg2004
I0
sg2005
I0
sg2006
S'363611'
p2578
sg2008
g15
ssI1150
(dp2579
g1999
F13.0
sg3
I1
sg2000
F19.0
sg2001
I2
sg2002
I0
sg2003
I1
sg2004
I1
sg2005
I0
sg2006
S'28404'
p2580
sg2008
g15
ssI1151
(dp2581
g1999
F7.775
sg3
I0
sg2000
F21.0
sg2001
I2
sg2002
I0
sg2003
I2
sg2004
I0
sg2005
I0
sg2006
S'345501'
p2582
sg2008
g15
ssI1152
(dp2583
g1999
F17.4
sg3
I4
sg2000
F36.5
sg2001
I2
sg2002
I0
sg2003
I2
sg2004
I0
sg2005
I1
sg2006
S'345572'
p2584
sg2008
g15
ssI1153
(dp2585
g1999
F7.8542
sg3
I0
sg2000
F21.0
sg2001
I2
sg2002
I0
sg2003
I2
sg2004
I0
sg2005
I0
sg2006
S'350410'
p2586
sg2008
g15
ssI1154
(dp2587
g1999
F23.0
sg3
F0.333333
sg2000
F29.0
sg2001
I2
sg2002
I2
sg2003
I1
sg2004
I1
sg2005
I0
sg2006
S'29103'
p2588
sg2008
g15
ssI1155
(dp2589
g1999
F12.1833
sg3
I1
sg2000
F1.0
sg2001
I2
sg2002
I1
sg2003
I2
sg2004
I1
sg2005
I1
sg2006
S'350405'
p2590
sg2008
g15
ssI1156
(dp2591
g1999
F12.7375
sg3
I0
sg2000
F30.0
sg2001
I0
sg2002
I0
sg2003
I1
sg2004
I0
sg2005
I0
sg2006
S'C.A. 34644'
p2592
sg2008
g15
ssI1157
(dp2593
g1999
F7.8958
sg3
I0
sg2000
g15
sg2001
I2
sg2002
I0
sg2003
I2
sg2004
I0
sg2005
I0
sg2006
S'349235'
p2594
sg2008
g15
ssI1158
(dp2595
g1999
F0.0
sg3
I0
sg2000
g15
sg2001
I2
sg2002
I0
sg2003
I0
sg2004
I0
sg2005
I0
sg2006
S'112051'
p2596
sg2008
g15
ssI1159
(dp2597
g1999
F7.55
sg3
I0
sg2000
g15
sg2001
I2
sg2002
I0
sg2003
I2
sg2004
I0
sg2005
I0
sg2006
S'C.A. 49867'
p2598
sg2008
g15
ssI1160
(dp2599
g1999
F8.05
sg3
I1
sg2000
g15
sg2001
I2
sg2002
I0
sg2003
I2
sg2004
I1
sg2005
I0
sg2006
S'A. 2. 39186'
p2600
sg2008
g15
ssI1161
(dp2601
g1999
F8.6625
sg3
I0
sg2000
F17.0
sg2001
I2
sg2002
I0
sg2003
I2
sg2004
I0
sg2005
I0
sg2006
S'315095'
p2602
sg2008
g15
ssI1162
(dp2603
g1999
F75.2417
sg3
I0
sg2000
F46.0
sg2001
I0
sg2002
I0
sg2003
I0
sg2004
I0
sg2005
I0
sg2006
S'13050'
p2604
sg2008
S'C6'
p2605
ssI1163
(dp2606
g1999
F7.75
sg3
I0
sg2000
g15
sg2001
I1
sg2002
I0
sg2003
I2
sg2004
I0
sg2005
I0
sg2006
S'368573'
p2607
sg2008
g15
ssI1164
(dp2608
g1999
F136.7792
sg3
F0.333333
sg2000
F26.0
sg2001
I0
sg2002
I0
sg2003
I0
sg2004
I1
sg2005
I1
sg2006
S'13508'
p2609
sg2008
S'C89'
p2610
ssI1165
(dp2611
g1999
F15.5
sg3
I1
sg2000
g15
sg2001
I1
sg2002
I0
sg2003
I2
sg2004
I1
sg2005
I1
sg2006
S'370371'
p2612
sg2008
g15
ssI1166
(dp2613
g1999
F7.225
sg3
I0
sg2000
g15
sg2001
I0
sg2002
I0
sg2003
I2
sg2004
I0
sg2005
I0
sg2006
S'2676'
p2614
sg2008
g15
ssI1167
(dp2615
g1999
F26.0
sg3
I1
sg2000
F20.0
sg2001
I2
sg2002
I0
sg2003
I1
sg2004
I1
sg2005
I1
sg2006
S'236853'
p2616
sg2008
g15
ssI1168
(dp2617
g1999
F10.5
sg3
I0
sg2000
F28.0
sg2001
I2
sg2002
I0
sg2003
I1
sg2004
I0
sg2005
I0
sg2006
S'SC 14888'
p2618
sg2008
g15
ssI1169
(dp2619
g1999
F26.0
sg3
I0
sg2000
F40.0
sg2001
I2
sg2002
I0
sg2003
I1
sg2004
I0
sg2005
I1
sg2006
S'2926'
p2620
sg2008
g15
ssI1170
(dp2621
g1999
F21.0
sg3
I0
sg2000
F30.0
sg2001
I2
sg2002
I0
sg2003
I1
sg2004
I0
sg2005
I1
sg2006
S'CA 31352'
p2622
sg2008
g15
ssI1171
(dp2623
g1999
F10.5
sg3
I0
sg2000
F22.0
sg2001
I2
sg2002
I0
sg2003
I1
sg2004
I0
sg2005
I0
sg2006
S'W./C. 14260'
p2624
sg2008
g15
ssI1172
(dp2625
g1999
F8.6625
sg3
I1
sg2000
F23.0
sg2001
I2
sg2002
I0
sg2003
I2
sg2004
I1
sg2005
I0
sg2006
S'315085'
p2626
sg2008
g15
ssI1173
(dp2627
g1999
F13.775
sg3
F0.666666
sg2000
F0.75
sg2001
I2
sg2002
I1
sg2003
I2
sg2004
I0
sg2005
I1
sg2006
S'SOTON/O.Q. 3101315'
p2628
sg2008
g15
ssI1174
(dp2629
g1999
F7.75
sg3
I1
sg2000
g15
sg2001
I1
sg2002
I0
sg2003
I2
sg2004
I1
sg2005
I0
sg2006
S'364859'
p2630
sg2008
g15
ssI1175
(dp2631
g1999
F15.2458
sg3
I1
sg2000
F9.0
sg2001
I0
sg2002
I1
sg2003
I2
sg2004
I1
sg2005
I1
sg2006
S'2650'
p2632
sg2008
g15
ssI1176
(dp2633
g1999
F20.2125
sg3
I1
sg2000
F2.0
sg2001
I2
sg2002
I1
sg2003
I2
sg2004
I1
sg2005
I1
sg2006
S'370129'
p2634
sg2008
g15
ssI1177
(dp2635
g1999
F7.25
sg3
I0
sg2000
F36.0
sg2001
I2
sg2002
I0
sg2003
I2
sg2004
I0
sg2005
I0
sg2006
S'A/5 21175'
p2636
sg2008
g15
ssI1178
(dp2637
g1999
F7.25
sg3
I0
sg2000
g15
sg2001
I2
sg2002
I0
sg2003
I2
sg2004
I0
sg2005
I0
sg2006
S'SOTON/O.Q. 3101314'
p2638
sg2008
g15
ssI1179
(dp2639
g1999
F82.2667
sg3
I0
sg2000
F24.0
sg2001
I2
sg2002
I0
sg2003
I0
sg2004
I0
sg2005
I1
sg2006
S'21228'
p2640
sg2008
S'B45'
p2641
ssI1180
(dp2642
g1999
F7.2292
sg3
I0
sg2000
g15
sg2001
I0
sg2002
I0
sg2003
I2
sg2004
I0
sg2005
I0
sg2006
S'2655'
p2643
sg2008
S'F E46'
p2644
ssI1181
(dp2645
g1999
F8.05
sg3
I0
sg2000
g15
sg2001
I2
sg2002
I0
sg2003
I2
sg2004
I0
sg2005
I0
sg2006
S'A/5 1478'
p2646
sg2008
g15
ssI1182
(dp2647
g1999
F39.6
sg3
I0
sg2000
g15
sg2001
I2
sg2002
I0
sg2003
I0
sg2004
I0
sg2005
I0
sg2006
S'PC 17607'
p2648
sg2008
g15
ssI1183
(dp2649
g1999
F6.95
sg3
I1
sg2000
F30.0
sg2001
I1
sg2002
I0
sg2003
I2
sg2004
I1
sg2005
I0
sg2006
S'382650'
p2650
sg2008
g15
ssI1184
(dp2651
g1999
F7.2292
sg3
I0
sg2000
g15
sg2001
I0
sg2002
I0
sg2003
I2
sg2004
I0
sg2005
I0
sg2006
S'2652'
p2652
sg2008
g15
ssI1185
(dp2653
g1999
F81.8583
sg3
I4
sg2000
F53.0
sg2001
I2
sg2002
I1
sg2003
I0
sg2004
I0
sg2005
I1
sg2006
S'33638'
p2654
sg2008
S'A34'
p2655
ssI1186
(dp2656
g1999
F9.5
sg3
I0
sg2000
F36.0
sg2001
I2
sg2002
I0
sg2003
I2
sg2004
I0
sg2005
I0
sg2006
S'345771'
p2657
sg2008
g15
ssI1187
(dp2658
g1999
F7.8958
sg3
I0
sg2000
F26.0
sg2001
I2
sg2002
I0
sg2003
I2
sg2004
I0
sg2005
I0
sg2006
S'349202'
p2659
sg2008
g15
ssI1188
(dp2660
g1999
F41.5792
sg3
I1
sg2000
F1.0
sg2001
I0
sg2002
I2
sg2003
I1
sg2004
I1
sg2005
I1
sg2006
S'SC/Paris 2123'
p2661
sg2008
g15
ssI1189
(dp2662
g1999
F21.6792
sg3
I0
sg2000
g15
sg2001
I0
sg2002
I0
sg2003
I2
sg2004
I0
sg2005
I2
sg2006
S'2662'
p2663
sg2008
g15
ssI1190
(dp2664
g1999
F45.5
sg3
I0
sg2000
F30.0
sg2001
I2
sg2002
I0
sg2003
I0
sg2004
I0
sg2005
I0
sg2006
S'113801'
p2665
sg2008
g15
ssI1191
(dp2666
g1999
F7.8542
sg3
I0
sg2000
F29.0
sg2001
I2
sg2002
I0
sg2003
I2
sg2004
I0
sg2005
I0
sg2006
S'347467'
p2667
sg2008
g15
ssI1192
(dp2668
g1999
F7.775
sg3
I0
sg2000
F32.0
sg2001
I2
sg2002
I0
sg2003
I2
sg2004
I0
sg2005
I0
sg2006
S'347079'
p2669
sg2008
g15
ssI1193
(dp2670
g1999
F15.0458
sg3
I0
sg2000
g15
sg2001
I0
sg2002
I0
sg2003
I1
sg2004
I0
sg2005
I0
sg2006
S'237735'
p2671
sg2008
g659
ssI1194
(dp2672
g1999
F21.0
sg3
I0
sg2000
F43.0
sg2001
I2
sg2002
I1
sg2003
I1
sg2004
I0
sg2005
I0
sg2006
S'S.O./P.P. 2'
p2673
sg2008
g15
ssI1195
(dp2674
g1999
F8.6625
sg3
I0
sg2000
F24.0
sg2001
I2
sg2002
I0
sg2003
I2
sg2004
I0
sg2005
I0
sg2006
S'315092'
p2675
sg2008
g15
ssI1196
(dp2676
g1999
F7.75
sg3
I1
sg2000
g15
sg2001
I1
sg2002
I0
sg2003
I2
sg2004
I1
sg2005
I0
sg2006
S'383123'
p2677
sg2008
g15
ssI1197
(dp2678
g1999
F26.55
sg3
F0.333333
sg2000
F64.0
sg2001
I2
sg2002
I1
sg2003
I0
sg2004
I1
sg2005
I1
sg2006
S'112901'
p2679
sg2008
S'B26'
p2680
ssI1198
(dp2681
g1999
F151.55
sg3
I0
sg2000
F30.0
sg2001
I2
sg2002
I2
sg2003
I0
sg2004
I0
sg2005
I1
sg2006
S'113781'
p2682
sg2008
S'C22 C26'
p2683
ssI1199
(dp2684
g1999
F9.35
sg3
F0.666666
sg2000
F0.83
sg2001
I2
sg2002
I1
sg2003
I2
sg2004
I0
sg2005
I0
sg2006
S'392091'
p2685
sg2008
g15
ssI1200
(dp2686
g1999
F93.5
sg3
I0
sg2000
F55.0
sg2001
I2
sg2002
I1
sg2003
I0
sg2004
I0
sg2005
I1
sg2006
S'12749'
p2687
sg2008
S'B69'
p2688
ssI1201
(dp2689
g1999
F14.1083
sg3
F0.333333
sg2000
F45.0
sg2001
I2
sg2002
I0
sg2003
I2
sg2004
I1
sg2005
I1
sg2006
S'350026'
p2690
sg2008
g15
ssI1202
(dp2691
g1999
F8.6625
sg3
I0
sg2000
F18.0
sg2001
I2
sg2002
I0
sg2003
I2
sg2004
I0
sg2005
I0
sg2006
S'315091'
p2692
sg2008
g15
ssI1203
(dp2693
g1999
F7.225
sg3
I0
sg2000
F22.0
sg2001
I0
sg2002
I0
sg2003
I2
sg2004
I0
sg2005
I0
sg2006
S'2658'
p2694
sg2008
g15
ssI1204
(dp2695
g1999
F7.575
sg3
I0
sg2000
g15
sg2001
I2
sg2002
I0
sg2003
I2
sg2004
I0
sg2005
I0
sg2006
S'LP 1588'
p2696
sg2008
g15
ssI1205
(dp2697
g1999
F7.75
sg3
I1
sg2000
F37.0
sg2001
I1
sg2002
I0
sg2003
I2
sg2004
I1
sg2005
I0
sg2006
S'368364'
p2698
sg2008
g15
ssI1206
(dp2699
g1999
F135.6333
sg3
F0.333333
sg2000
F55.0
sg2001
I0
sg2002
I0
sg2003
I0
sg2004
I1
sg2005
I0
sg2006
S'PC 17760'
p2700
sg2008
S'C32'
p2701
ssI1207
(dp2702
g1999
F7.7333
sg3
I1
sg2000
F17.0
sg2001
I1
sg2002
I0
sg2003
I2
sg2004
I1
sg2005
I0
sg2006
S'AQ/3. 30631'
p2703
sg2008
g15
ssI1208
(dp2704
g1999
F146.5208
sg3
I0
sg2000
F57.0
sg2001
I0
sg2002
I0
sg2003
I0
sg2004
I0
sg2005
I1
sg2006
S'PC 17569'
p2705
sg2008
S'B78'
p2706
ssI1209
(dp2707
g1999
F10.5
sg3
I0
sg2000
F19.0
sg2001
I2
sg2002
I0
sg2003
I1
sg2004
I0
sg2005
I0
sg2006
S'28004'
p2708
sg2008
g15
ssI1210
(dp2709
g1999
F7.8542
sg3
I0
sg2000
F27.0
sg2001
I2
sg2002
I0
sg2003
I2
sg2004
I0
sg2005
I0
sg2006
S'350408'
p2710
sg2008
g15
ssI1211
(dp2711
g1999
F31.5
sg3
I0
sg2000
F22.0
sg2001
I2
sg2002
I0
sg2003
I1
sg2004
I0
sg2005
I2
sg2006
S'C.A. 31029'
p2712
sg2008
g15
ssI1212
(dp2713
g1999
F7.775
sg3
I0
sg2000
F26.0
sg2001
I2
sg2002
I0
sg2003
I2
sg2004
I0
sg2005
I0
sg2006
S'347075'
p2714
sg2008
g15
ssI1213
(dp2715
g1999
F7.2292
sg3
I0
sg2000
F25.0
sg2001
I0
sg2002
I0
sg2003
I2
sg2004
I0
sg2005
I0
sg2006
S'2654'
p2716
sg2008
S'F E57'
p2717
ssI1214
(dp2718
g1999
F13.0
sg3
I0
sg2000
F26.0
sg2001
I2
sg2002
I0
sg2003
I1
sg2004
I0
sg2005
I0
sg2006
S'244368'
p2719
sg2008
S'F2'
p2720
ssI1215
(dp2721
g1999
F26.55
sg3
I0
sg2000
F33.0
sg2001
I2
sg2002
I0
sg2003
I0
sg2004
I0
sg2005
I0
sg2006
S'113790'
p2722
sg2008
g15
ssI1216
(dp2723
g1999
F211.3375
sg3
I1
sg2000
F39.0
sg2001
I2
sg2002
I0
sg2003
I0
sg2004
I1
sg2005
I0
sg2006
S'24160'
p2724
sg2008
g15
ssI1217
(dp2725
g1999
F7.05
sg3
I0
sg2000
F23.0
sg2001
I2
sg2002
I0
sg2003
I2
sg2004
I0
sg2005
I0
sg2006
S'SOTON/O.Q. 3101309'
p2726
sg2008
g15
ssI1218
(dp2727
g1999
F39.0
sg3
I1
sg2000
F12.0
sg2001
I2
sg2002
I1
sg2003
I1
sg2004
I1
sg2005
I2
sg2006
S'230136'
p2728
sg2008
S'F4'
p2729
ssI1219
(dp2730
g1999
F79.2
sg3
I0
sg2000
F46.0
sg2001
I0
sg2002
I0
sg2003
I0
sg2004
I0
sg2005
I0
sg2006
S'PC 17585'
p2731
sg2008
g15
ssI1220
(dp2732
g1999
F26.0
sg3
I0
sg2000
F29.0
sg2001
I2
sg2002
I0
sg2003
I1
sg2004
I0
sg2005
I1
sg2006
S'2003'
p2733
sg2008
g15
ssI1221
(dp2734
g1999
F13.0
sg3
I0
sg2000
F21.0
sg2001
I2
sg2002
I0
sg2003
I1
sg2004
I0
sg2005
I0
sg2006
S'236854'
p2735
sg2008
g15
ssI1222
(dp2736
g1999
F36.75
sg3
F0.333333
sg2000
F48.0
sg2001
I2
sg2002
I2
sg2003
I1
sg2004
I1
sg2005
I0
sg2006
S'C.A. 33112'
p2737
sg2008
g15
ssI1223
(dp2738
g1999
F29.7
sg3
I0
sg2000
F39.0
sg2001
I0
sg2002
I0
sg2003
I0
sg2004
I0
sg2005
I0
sg2006
S'PC 17580'
p2739
sg2008
S'A18'
p2740
ssI1224
(dp2741
g1999
F7.225
sg3
I0
sg2000
g15
sg2001
I0
sg2002
I0
sg2003
I2
sg2004
I0
sg2005
I0
sg2006
S'2684'
p2742
sg2008
g15
ssI1225
(dp2743
g1999
F15.7417
sg3
F0.333333
sg2000
F19.0
sg2001
I0
sg2002
I1
sg2003
I2
sg2004
I1
sg2005
I1
sg2006
S'2653'
p2744
sg2008
g15
ssI1226
(dp2745
g1999
F7.8958
sg3
I0
sg2000
F27.0
sg2001
I2
sg2002
I0
sg2003
I2
sg2004
I0
sg2005
I0
sg2006
S'349229'
p2746
sg2008
g15
ssI1227
(dp2747
g1999
F26.0
sg3
I0
sg2000
F30.0
sg2001
I2
sg2002
I0
sg2003
I0
sg2004
I0
sg2005
I0
sg2006
S'110469'
p2748
sg2008
S'C106'
p2749
ssI1228
(dp2750
g1999
F13.0
sg3
I4
sg2000
F32.0
sg2001
I2
sg2002
I0
sg2003
I1
sg2004
I0
sg2005
I0
sg2006
S'244360'
p2751
sg2008
g15
ssI1229
(dp2752
g1999
F7.2292
sg3
I0
sg2000
F39.0
sg2001
I0
sg2002
I2
sg2003
I2
sg2004
I0
sg2005
I0
sg2006
S'2675'
p2753
sg2008
g15
ssI1230
(dp2754
g1999
F31.5
sg3
I0
sg2000
F25.0
sg2001
I2
sg2002
I0
sg2003
I1
sg2004
I0
sg2005
I0
sg2006
S'C.A. 31029'
p2755
sg2008
g15
ssI1231
(dp2756
g1999
F7.2292
sg3
F0.666666
sg2000
g15
sg2001
I0
sg2002
I0
sg2003
I2
sg2004
I0
sg2005
I0
sg2006
S'2622'
p2757
sg2008
g15
ssI1232
(dp2758
g1999
F10.5
sg3
I0
sg2000
F18.0
sg2001
I2
sg2002
I0
sg2003
I1
sg2004
I0
sg2005
I0
sg2006
S'C.A. 15185'
p2759
sg2008
g15
ssI1233
(dp2760
g1999
F7.5792
sg3
I0
sg2000
F32.0
sg2001
I2
sg2002
I0
sg2003
I2
sg2004
I0
sg2005
I0
sg2006
S'350403'
p2761
sg2008
g15
ssI1234
(dp2762
g1999
F69.55
sg3
I0
sg2000
g15
sg2001
I2
sg2002
I9
sg2003
I2
sg2004
I0
sg2005
I1
sg2006
S'CA. 2343'
p2763
sg2008
g15
ssI1235
(dp2764
g1999
F512.3292
sg3
F0.333333
sg2000
F58.0
sg2001
I0
sg2002
I1
sg2003
I0
sg2004
I1
sg2005
I0
sg2006
S'PC 17755'
p2765
sg2008
S'B51 B53 B55'
p2766
ssI1236
(dp2767
g1999
F14.5
sg3
I4
sg2000
g15
sg2001
I2
sg2002
I1
sg2003
I2
sg2004
I0
sg2005
I1
sg2006
S'A/5. 851'
p2768
sg2008
g15
ssI1237
(dp2769
g1999
F7.65
sg3
I1
sg2000
F16.0
sg2001
I2
sg2002
I0
sg2003
I2
sg2004
I1
sg2005
I0
sg2006
S'348125'
p2770
sg2008
g15
ssI1238
(dp2771
g1999
F13.0
sg3
I0
sg2000
F26.0
sg2001
I2
sg2002
I0
sg2003
I1
sg2004
I0
sg2005
I0
sg2006
S'237670'
p2772
sg2008
g15
ssI1239
(dp2773
g1999
F7.2292
sg3
F0.333333
sg2000
F38.0
sg2001
I0
sg2002
I0
sg2003
I2
sg2004
I1
sg2005
I0
sg2006
S'2688'
p2774
sg2008
g15
ssI1240
(dp2775
g1999
F13.5
sg3
I0
sg2000
F24.0
sg2001
I2
sg2002
I0
sg2003
I1
sg2004
I0
sg2005
I0
sg2006
S'248726'
p2776
sg2008
g15
ssI1241
(dp2777
g1999
F21.0
sg3
I1
sg2000
F31.0
sg2001
I2
sg2002
I0
sg2003
I1
sg2004
I1
sg2005
I0
sg2006
S'F.C.C. 13528'
p2778
sg2008
g15
ssI1242
(dp2779
g1999
F63.3583
sg3
F0.333333
sg2000
F45.0
sg2001
I0
sg2002
I1
sg2003
I0
sg2004
I1
sg2005
I0
sg2006
S'PC 17759'
p2780
sg2008
S'D10 D12'
p2781
ssI1243
(dp2782
g1999
F10.5
sg3
I0
sg2000
F25.0
sg2001
I2
sg2002
I0
sg2003
I1
sg2004
I0
sg2005
I0
sg2006
S'F.C.C. 13540'
p2783
sg2008
g15
ssI1244
(dp2784
g1999
F73.5
sg3
I0
sg2000
F18.0
sg2001
I2
sg2002
I0
sg2003
I1
sg2004
I0
sg2005
I0
sg2006
S'S.O.C. 14879'
p2785
sg2008
g15
ssI1245
(dp2786
g1999
F65.0
sg3
I0
sg2000
F49.0
sg2001
I2
sg2002
I2
sg2003
I1
sg2004
I0
sg2005
I1
sg2006
S'220845'
p2787
sg2008
g15
ssI1246
(dp2788
g1999
F20.575
sg3
I1
sg2000
F0.17
sg2001
I2
sg2002
I2
sg2003
I2
sg2004
I1
sg2005
I1
sg2006
S'C.A. 2315'
p2789
sg2008
g15
ssI1247
(dp2790
g1999
F26.0
sg3
I0
sg2000
F50.0
sg2001
I2
sg2002
I0
sg2003
I0
sg2004
I0
sg2005
I0
sg2006
S'113044'
p2791
sg2008
S'E60'
p2792
ssI1248
(dp2793
g1999
F51.4792
sg3
F0.333333
sg2000
F59.0
sg2001
I2
sg2002
I0
sg2003
I0
sg2004
I1
sg2005
I2
sg2006
S'11769'
p2794
sg2008
S'C101'
p2795
ssI1249
(dp2796
g1999
F7.8792
sg3
I0
sg2000
g15
sg2001
I2
sg2002
I0
sg2003
I2
sg2004
I0
sg2005
I0
sg2006
S'1222'
p2797
sg2008
g15
ssI1250
(dp2798
g1999
F7.75
sg3
I0
sg2000
g15
sg2001
I1
sg2002
I0
sg2003
I2
sg2004
I0
sg2005
I0
sg2006
S'368402'
p2799
sg2008
g15
ssI1251
(dp2800
g1999
F15.55
sg3
F0.333333
sg2000
F30.0
sg2001
I2
sg2002
I0
sg2003
I2
sg2004
I1
sg2005
I1
sg2006
S'349910'
p2801
sg2008
g15
ssI1252
(dp2802
g1999
F69.55
sg3
F0.666666
sg2000
F14.5
sg2001
I2
sg2002
I2
sg2003
I2
sg2004
I0
sg2005
I8
sg2006
S'CA. 2343'
p2803
sg2008
g15
ssI1253
(dp2804
g1999
F37.0042
sg3
F0.333333
sg2000
F24.0
sg2001
I0
sg2002
I1
sg2003
I1
sg2004
I1
sg2005
I1
sg2006
S'S.C./PARIS 2079'
p2805
sg2008
g15
ssI1254
(dp2806
g1999
F21.0
sg3
F0.333333
sg2000
F31.0
sg2001
I2
sg2002
I0
sg2003
I1
sg2004
I1
sg2005
I0
sg2006
S'CA 31352'
p2807
sg2008
g15
ssI1255
(dp2808
g1999
F8.6625
sg3
I0
sg2000
F27.0
sg2001
I2
sg2002
I0
sg2003
I2
sg2004
I0
sg2005
I0
sg2006
S'315083'
p2809
sg2008
g15
ssI1256
(dp2810
g1999
F55.4417
sg3
F0.333333
sg2000
F25.0
sg2001
I0
sg2002
I0
sg2003
I0
sg2004
I1
sg2005
I1
sg2006
S'11765'
p2811
sg2008
S'E50'
p2812
ssI1257
(dp2813
g1999
F69.55
sg3
F0.333333
sg2000
g15
sg2001
I2
sg2002
I9
sg2003
I2
sg2004
I1
sg2005
I1
sg2006
S'CA. 2343'
p2814
sg2008
g15
ssI1258
(dp2815
g1999
F14.4583
sg3
I0
sg2000
g15
sg2001
I0
sg2002
I0
sg2003
I2
sg2004
I0
sg2005
I1
sg2006
S'2689'
p2816
sg2008
g15
ssI1259
(dp2817
g1999
F39.6875
sg3
I1
sg2000
F22.0
sg2001
I2
sg2002
I0
sg2003
I2
sg2004
I1
sg2005
I0
sg2006
S'3101295'
p2818
sg2008
g15
ssI1260
(dp2819
g1999
F59.4
sg3
F0.333333
sg2000
F45.0
sg2001
I0
sg2002
I1
sg2003
I0
sg2004
I1
sg2005
I0
sg2006
S'112378'
p2820
sg2008
g15
ssI1261
(dp2821
g1999
F13.8583
sg3
I4
sg2000
F29.0
sg2001
I0
sg2002
I0
sg2003
I1
sg2004
I0
sg2005
I0
sg2006
S'SC/PARIS 2147'
p2822
sg2008
g15
ssI1262
(dp2823
g1999
F11.5
sg3
I0
sg2000
F21.0
sg2001
I2
sg2002
I0
sg2003
I1
sg2004
I0
sg2005
I1
sg2006
S'28133'
p2824
sg2008
g15
ssI1263
(dp2825
g1999
F134.5
sg3
I1
sg2000
F31.0
sg2001
I0
sg2002
I0
sg2003
I0
sg2004
I1
sg2005
I0
sg2006
S'16966'
p2826
sg2008
S'E39 E41'
p2827
ssI1264
(dp2828
g1999
F0.0
sg3
I0
sg2000
F49.0
sg2001
I2
sg2002
I0
sg2003
I0
sg2004
I0
sg2005
I0
sg2006
S'112058'
p2829
sg2008
S'B52 B54 B56'
p2830
ssI1265
(dp2831
g1999
F13.0
sg3
I0
sg2000
F44.0
sg2001
I2
sg2002
I0
sg2003
I1
sg2004
I0
sg2005
I0
sg2006
S'248746'
p2832
sg2008
g15
ssI1266
(dp2833
g1999
F81.8583
sg3
F0.333333
sg2000
F54.0
sg2001
I2
sg2002
I1
sg2003
I0
sg2004
I1
sg2005
I1
sg2006
S'33638'
p2834
sg2008
S'A34'
p2835
ssI1267
(dp2836
g1999
F262.375
sg3
I1
sg2000
F45.0
sg2001
I0
sg2002
I0
sg2003
I0
sg2004
I1
sg2005
I0
sg2006
S'PC 17608'
p2837
sg2008
g15
ssI1268
(dp2838
g1999
F8.6625
sg3
I1
sg2000
F22.0
sg2001
I2
sg2002
I0
sg2003
I2
sg2004
I1
sg2005
I2
sg2006
S'315152'
p2839
sg2008
g15
ssI1269
(dp2840
g1999
F11.5
sg3
I0
sg2000
F21.0
sg2001
I2
sg2002
I0
sg2003
I1
sg2004
I0
sg2005
I0
sg2006
S'29107'
p2841
sg2008
g15
ssI1270
(dp2842
g1999
F50.0
sg3
I0
sg2000
F55.0
sg2001
I2
sg2002
I0
sg2003
I0
sg2004
I0
sg2005
I0
sg2006
S'680'
p2843
sg2008
S'C39'
p2844
ssI1271
(dp2845
g1999
F31.3875
sg3
F0.666666
sg2000
F5.0
sg2001
I2
sg2002
I2
sg2003
I2
sg2004
I0
sg2005
I4
sg2006
S'347077'
p2846
sg2008
g15
ssI1272
(dp2847
g1999
F7.75
sg3
I0
sg2000
g15
sg2001
I1
sg2002
I0
sg2003
I2
sg2004
I0
sg2005
I0
sg2006
S'366713'
p2848
sg2008
g15
ssI1273
(dp2849
g1999
F7.8792
sg3
I0
sg2000
F26.0
sg2001
I1
sg2002
I0
sg2003
I2
sg2004
I0
sg2005
I0
sg2006
S'330910'
p2850
sg2008
g15
ssI1274
(dp2851
g1999
F14.5
sg3
F0.333333
sg2000
g15
sg2001
I2
sg2002
I0
sg2003
I2
sg2004
I1
sg2005
I0
sg2006
S'364498'
p2852
sg2008
g15
ssI1275
(dp2853
g1999
F16.1
sg3
F0.333333
sg2000
F19.0
sg2001
I2
sg2002
I0
sg2003
I2
sg2004
I1
sg2005
I1
sg2006
S'376566'
p2854
sg2008
g15
ssI1276
(dp2855
g1999
F12.875
sg3
I0
sg2000
g15
sg2001
I2
sg2002
I0
sg2003
I1
sg2004
I0
sg2005
I0
sg2006
S'SC/PARIS 2159'
p2856
sg2008
g15
ssI1277
(dp2857
g1999
F65.0
sg3
I1
sg2000
F24.0
sg2001
I2
sg2002
I2
sg2003
I1
sg2004
I1
sg2005
I1
sg2006
S'220845'
p2858
sg2008
g15
ssI1278
(dp2859
g1999
F7.775
sg3
I0
sg2000
F24.0
sg2001
I2
sg2002
I0
sg2003
I2
sg2004
I0
sg2005
I0
sg2006
S'349911'
p2860
sg2008
g15
ssI1279
(dp2861
g1999
F13.0
sg3
I0
sg2000
F57.0
sg2001
I2
sg2002
I0
sg2003
I1
sg2004
I0
sg2005
I0
sg2006
S'244346'
p2862
sg2008
g15
ssI1280
(dp2863
g1999
F7.75
sg3
I0
sg2000
F21.0
sg2001
I1
sg2002
I0
sg2003
I2
sg2004
I0
sg2005
I0
sg2006
S'364858'
p2864
sg2008
g15
ssI1281
(dp2865
g1999
F21.075
sg3
F0.666666
sg2000
F6.0
sg2001
I2
sg2002
I1
sg2003
I2
sg2004
I0
sg2005
I3
sg2006
S'349909'
p2866
sg2008
g15
ssI1282
(dp2867
g1999
F93.5
sg3
I0
sg2000
F23.0
sg2001
I2
sg2002
I0
sg2003
I0
sg2004
I0
sg2005
I0
sg2006
S'12749'
p2868
sg2008
S'B24'
p2869
ssI1283
(dp2870
g1999
F39.4
sg3
F0.333333
sg2000
F51.0
sg2001
I2
sg2002
I1
sg2003
I0
sg2004
I1
sg2005
I0
sg2006
S'PC 17592'
p2871
sg2008
S'D28'
p2872
ssI1284
(dp2873
g1999
F20.25
sg3
F0.666666
sg2000
F13.0
sg2001
I2
sg2002
I2
sg2003
I2
sg2004
I0
sg2005
I0
sg2006
S'C.A. 2673'
p2874
sg2008
g15
ssI1285
(dp2875
g1999
F10.5
sg3
I0
sg2000
F47.0
sg2001
I2
sg2002
I0
sg2003
I1
sg2004
I0
sg2005
I0
sg2006
S'C.A. 30769'
p2876
sg2008
g15
ssI1286
(dp2877
g1999
F22.025
sg3
I0
sg2000
F29.0
sg2001
I2
sg2002
I1
sg2003
I2
sg2004
I0
sg2005
I3
sg2006
S'315153'
p2878
sg2008
g15
ssI1287
(dp2879
g1999
F60.0
sg3
F0.333333
sg2000
F18.0
sg2001
I2
sg2002
I0
sg2003
I0
sg2004
I1
sg2005
I1
sg2006
S'13695'
p2880
sg2008
S'C31'
p2881
ssI1288
(dp2882
g1999
F7.25
sg3
I0
sg2000
F24.0
sg2001
I1
sg2002
I0
sg2003
I2
sg2004
I0
sg2005
I0
sg2006
S'371109'
p2883
sg2008
g15
ssI1289
(dp2884
g1999
F79.2
sg3
F0.333333
sg2000
F48.0
sg2001
I0
sg2002
I1
sg2003
I0
sg2004
I1
sg2005
I1
sg2006
S'13567'
p2885
sg2008
S'B41'
p2886
ssI1290
(dp2887
g1999
F7.775
sg3
I0
sg2000
F22.0
sg2001
I2
sg2002
I0
sg2003
I2
sg2004
I0
sg2005
I0
sg2006
S'347065'
p2888
sg2008
g15
ssI1291
(dp2889
g1999
F7.7333
sg3
I0
sg2000
F31.0
sg2001
I1
sg2002
I0
sg2003
I2
sg2004
I0
sg2005
I0
sg2006
S'21332'
p2890
sg2008
g15
ssI1292
(dp2891
g1999
F164.8667
sg3
I1
sg2000
F30.0
sg2001
I2
sg2002
I0
sg2003
I0
sg2004
I1
sg2005
I0
sg2006
S'36928'
p2892
sg2008
S'C7'
p2893
ssI1293
(dp2894
g1999
F21.0
sg3
I0
sg2000
F38.0
sg2001
I2
sg2002
I0
sg2003
I1
sg2004
I0
sg2005
I1
sg2006
S'28664'
p2895
sg2008
g15
ssI1294
(dp2896
g1999
F59.4
sg3
I1
sg2000
F22.0
sg2001
I0
sg2002
I1
sg2003
I0
sg2004
I1
sg2005
I0
sg2006
S'112378'
p2897
sg2008
g15
ssI1295
(dp2898
g1999
F47.1
sg3
I0
sg2000
F17.0
sg2001
I2
sg2002
I0
sg2003
I0
sg2004
I0
sg2005
I0
sg2006
S'113059'
p2899
sg2008
g15
ssI1296
(dp2900
g1999
F27.7208
sg3
I0
sg2000
F43.0
sg2001
I0
sg2002
I0
sg2003
I0
sg2004
I0
sg2005
I1
sg2006
S'17765'
p2901
sg2008
S'D40'
p2902
ssI1297
(dp2903
g1999
F13.8625
sg3
I0
sg2000
F20.0
sg2001
I0
sg2002
I0
sg2003
I1
sg2004
I0
sg2005
I0
sg2006
S'SC/PARIS 2166'
p2904
sg2008
S'D38'
p2905
ssI1298
(dp2906
g1999
F10.5
sg3
I0
sg2000
F23.0
sg2001
I2
sg2002
I0
sg2003
I1
sg2004
I0
sg2005
I1
sg2006
S'28666'
p2907
sg2008
g15
ssI1299
(dp2908
g1999
F211.5
sg3
I0
sg2000
F50.0
sg2001
I0
sg2002
I1
sg2003
I0
sg2004
I0
sg2005
I1
sg2006
S'113503'
p2909
sg2008
S'C80'
p2910
ssI1300
(dp2911
g1999
F7.7208
sg3
I1
sg2000
g15
sg2001
I1
sg2002
I0
sg2003
I2
sg2004
I1
sg2005
I0
sg2006
S'334915'
p2912
sg2008
g15
ssI1301
(dp2913
g1999
F13.775
sg3
I1
sg2000
F3.0
sg2001
I2
sg2002
I1
sg2003
I2
sg2004
I1
sg2005
I1
sg2006
S'SOTON/O.Q. 3101315'
p2914
sg2008
g15
ssI1302
(dp2915
g1999
F7.75
sg3
I1
sg2000
g15
sg2001
I1
sg2002
I0
sg2003
I2
sg2004
I1
sg2005
I0
sg2006
S'365237'
p2916
sg2008
g15
ssI1303
(dp2917
g1999
F90.0
sg3
F0.333333
sg2000
F37.0
sg2001
I1
sg2002
I0
sg2003
I0
sg2004
I1
sg2005
I1
sg2006
S'19928'
p2918
sg2008
S'C78'
p2919
ssI1304
(dp2920
g1999
F7.775
sg3
I1
sg2000
F28.0
sg2001
I2
sg2002
I0
sg2003
I2
sg2004
I1
sg2005
I0
sg2006
S'347086'
p2921
sg2008
g15
ssI1305
(dp2922
g1999
F8.05
sg3
I0
sg2000
g15
sg2001
I2
sg2002
I0
sg2003
I2
sg2004
I0
sg2005
I0
sg2006
S'A.5. 3236'
p2923
sg2008
g15
ssI1306
(dp2924
g1999
F108.9
sg3
I4
sg2000
F39.0
sg2001
I0
sg2002
I0
sg2003
I0
sg2004
I1
sg2005
I0
sg2006
S'PC 17758'
p2925
sg2008
S'C105'
p2926
ssI1307
(dp2927
g1999
F7.25
sg3
I0
sg2000
F38.5
sg2001
I2
sg2002
I0
sg2003
I2
sg2004
I0
sg2005
I0
sg2006
S'SOTON/O.Q. 3101262'
p2928
sg2008
g15
ssI1308
(dp2929
g1999
F8.05
sg3
I0
sg2000
g15
sg2001
I2
sg2002
I0
sg2003
I2
sg2004
I0
sg2005
I0
sg2006
S'359309'
p2930
sg2008
g15
ssI1309
(dp2931
g1999
F22.3583
sg3
F0.666666
sg2000
g15
sg2001
I0
sg2002
I1
sg2003
I2
sg2004
I0
sg2005
I1
sg2006
S'2668'
p2932
sg2008
g15
ss.