(dp0
I1
(dp1
S'Fare'
p2
F7.25
sS'Embarked'
p3
I2
sS'Age'
p4
F22.0
sS'Title'
p5
I0
sS'Parch'
p6
I0
sS'Pclass'
p7
I3
sS'Sex'
p8
I0
sS'Ticket_prefix'
p9
I2
sS'Survived'
p10
I0
sS'Family_size'
p11
I1
sS'Ticket'
p12
I21171
sS'SibSp'
p13
I1
sS'Cabin'
p14
S'NaN'
p15
ssI2
(dp16
g2
F71.2833
sg3
I0
sg4
F38.0
sg5
I1
sg6
I0
sg7
I1
sg8
I1
sg9
I0
sg10
I1
sg11
I1
sg12
I17599
sg13
I1
sg14
F2.85
ssI3
(dp17
g2
F7.925
sg3
I2
sg4
F26.0
sg5
I3
sg6
I0
sg7
I3
sg8
I1
sg9
I6
sg10
I1
sg11
I0
sg12
I3101282
sg13
I0
sg14
g15
ssI4
(dp18
g2
F53.1
sg3
I2
sg4
F35.0
sg5
I1
sg6
I0
sg7
I1
sg8
I1
sg9
g15
sg10
I1
sg11
I1
sg12
I113803
sg13
I1
sg14
F2.123
ssI5
(dp19
g2
F8.05
sg3
I2
sg4
F35.0
sg5
I0
sg6
I0
sg7
I3
sg8
I0
sg9
g15
sg10
I0
sg11
I0
sg12
I373450
sg13
I0
sg14
g15
ssI6
(dp20
g2
F8.4583
sg3
I1
sg4
g15
sg5
I0
sg6
I0
sg7
I3
sg8
I0
sg9
g15
sg10
I0
sg11
I0
sg12
I330877
sg13
I0
sg14
g15
ssI7
(dp21
g2
F51.8625
sg3
I2
sg4
F54.0
sg5
I0
sg6
I0
sg7
I1
sg8
I0
sg9
g15
sg10
I0
sg11
I0
sg12
I17463
sg13
I0
sg14
F4.46
ssI8
(dp22
g2
F21.075
sg3
I2
sg4
F2.0
sg5
I2
sg6
I1
sg7
I3
sg8
I0
sg9
g15
sg10
I0
sg11
I4
sg12
I349909
sg13
I3
sg14
g15
ssI9
(dp23
g2
F11.1333
sg3
I2
sg4
F27.0
sg5
I1
sg6
I2
sg7
I3
sg8
I1
sg9
g15
sg10
I1
sg11
I2
sg12
I347742
sg13
I0
sg14
g15
ssI10
(dp24
g2
F30.0708
sg3
I0
sg4
F14.0
sg5
I1
sg6
I0
sg7
I2
sg8
I1
sg9
g15
sg10
I1
sg11
I1
sg12
I237736
sg13
I1
sg14
g15
ssI11
(dp25
g2
F16.7
sg3
I2
sg4
F4.0
sg5
I3
sg6
I1
sg7
I3
sg8
I1
sg9
I6
sg10
I1
sg11
I2
sg12
I9549
sg13
I1
sg14
F6.6
ssI12
(dp26
g2
F26.55
sg3
I2
sg4
F58.0
sg5
I3
sg6
I0
sg7
I1
sg8
I1
sg9
g15
sg10
I1
sg11
I0
sg12
I113783
sg13
I0
sg14
F2.103
ssI13
(dp27
g2
F8.05
sg3
I2
sg4
F20.0
sg5
I0
sg6
I0
sg7
I3
sg8
I0
sg9
I2
sg10
I0
sg11
I0
sg12
I2151
sg13
I0
sg14
g15
ssI14
(dp28
g2
F31.275
sg3
I2
sg4
F39.0
sg5
I0
sg6
I5
sg7
I3
sg8
I0
sg9
g15
sg10
I0
sg11
I6
sg12
I347082
sg13
I1
sg14
g15
ssI15
(dp29
g2
F7.8542
sg3
I2
sg4
F14.0
sg5
I3
sg6
I0
sg7
I3
sg8
I1
sg9
g15
sg10
I0
sg11
I0
sg12
I350406
sg13
I0
sg14
g15
ssI16
(dp30
g2
F16.0
sg3
I2
sg4
F55.0
sg5
I1
sg6
I0
sg7
I2
sg8
I1
sg9
g15
sg10
I1
sg11
I0
sg12
I248706
sg13
I0
sg14
g15
ssI17
(dp31
g2
F29.125
sg3
I1
sg4
F2.0
sg5
I2
sg6
I1
sg7
I3
sg8
I0
sg9
g15
sg10
I0
sg11
I5
sg12
I382652
sg13
I4
sg14
g15
ssI18
(dp32
g2
F13.0
sg3
I2
sg4
g15
sg5
I0
sg6
I0
sg7
I2
sg8
I0
sg9
g15
sg10
I1
sg11
I0
sg12
I244373
sg13
I0
sg14
g15
ssI19
(dp33
g2
F18.0
sg3
I2
sg4
F31.0
sg5
I4
sg6
I0
sg7
I3
sg8
I1
sg9
g15
sg10
I0
sg11
I1
sg12
I345763
sg13
I1
sg14
g15
ssI20
(dp34
g2
F7.225
sg3
I0
sg4
g15
sg5
I1
sg6
I0
sg7
I3
sg8
I1
sg9
g15
sg10
I1
sg11
I0
sg12
I2649
sg13
I0
sg14
g15
ssI21
(dp35
g2
F26.0
sg3
I2
sg4
F35.0
sg5
I0
sg6
I0
sg7
I2
sg8
I0
sg9
g15
sg10
I0
sg11
I0
sg12
I239865
sg13
I0
sg14
g15
ssI22
(dp36
g2
F13.0
sg3
I2
sg4
F34.0
sg5
I0
sg6
I0
sg7
I2
sg8
I0
sg9
g15
sg10
I1
sg11
I0
sg12
I248698
sg13
I0
sg14
F3.56
ssI23
(dp37
g2
F8.0292
sg3
I1
sg4
F15.0
sg5
I3
sg6
I0
sg7
I3
sg8
I1
sg9
g15
sg10
I1
sg11
I0
sg12
I330923
sg13
I0
sg14
g15
ssI24
(dp38
g2
F35.5
sg3
I2
sg4
F28.0
sg5
I0
sg6
I0
sg7
I1
sg8
I0
sg9
g15
sg10
I1
sg11
I0
sg12
I113788
sg13
I0
sg14
F0.6
ssI25
(dp39
g2
F21.075
sg3
I2
sg4
F8.0
sg5
I3
sg6
I1
sg7
I3
sg8
I1
sg9
g15
sg10
I0
sg11
I4
sg12
I349909
sg13
I3
sg14
g15
ssI26
(dp40
g2
F31.3875
sg3
I2
sg4
F38.0
sg5
I1
sg6
I5
sg7
I3
sg8
I1
sg9
g15
sg10
I1
sg11
I6
sg12
I347077
sg13
I1
sg14
g15
ssI27
(dp41
g2
F7.225
sg3
I0
sg4
g15
sg5
I0
sg6
I0
sg7
I3
sg8
I0
sg9
g15
sg10
I0
sg11
I0
sg12
I2631
sg13
I0
sg14
g15
ssI28
(dp42
g2
F263.0
sg3
I2
sg4
F19.0
sg5
I0
sg6
I2
sg7
I1
sg8
I0
sg9
g15
sg10
I0
sg11
I5
sg12
I19950
sg13
I3
sg14
F2.25
ssI29
(dp43
g2
F7.8792
sg3
I1
sg4
g15
sg5
I3
sg6
I0
sg7
I3
sg8
I1
sg9
g15
sg10
I1
sg11
I0
sg12
I330959
sg13
I0
sg14
g15
ssI30
(dp44
g2
F7.8958
sg3
I2
sg4
g15
sg5
I0
sg6
I0
sg7
I3
sg8
I0
sg9
g15
sg10
I0
sg11
I0
sg12
I349216
sg13
I0
sg14
g15
ssI31
(dp45
g2
F27.7208
sg3
I0
sg4
F40.0
sg5
I4
sg6
I0
sg7
I1
sg8
I0
sg9
I0
sg10
I0
sg11
I0
sg12
I17601
sg13
I0
sg14
g15
ssI32
(dp46
g2
F146.5208
sg3
I0
sg4
g15
sg5
I1
sg6
I0
sg7
I1
sg8
I1
sg9
I0
sg10
I1
sg11
I1
sg12
I17569
sg13
I1
sg14
F1.78
ssI33
(dp47
g2
F7.75
sg3
I1
sg4
g15
sg5
I3
sg6
I0
sg7
I3
sg8
I1
sg9
g15
sg10
I1
sg11
I0
sg12
I335677
sg13
I0
sg14
g15
ssI34
(dp48
g2
F10.5
sg3
I2
sg4
F66.0
sg5
I0
sg6
I0
sg7
I2
sg8
I0
sg9
I1
sg10
I0
sg11
I0
sg12
I24579
sg13
I0
sg14
g15
ssI35
(dp49
g2
F82.1708
sg3
I0
sg4
F28.0
sg5
I0
sg6
I0
sg7
I1
sg8
I0
sg9
I0
sg10
I0
sg11
I1
sg12
I17604
sg13
I1
sg14
g15
ssI36
(dp50
g2
F52.0
sg3
I2
sg4
F42.0
sg5
I0
sg6
I0
sg7
I1
sg8
I0
sg9
g15
sg10
I0
sg11
I1
sg12
I113789
sg13
I1
sg14
g15
ssI37
(dp51
g2
F7.2292
sg3
I0
sg4
g15
sg5
I0
sg6
I0
sg7
I3
sg8
I0
sg9
g15
sg10
I1
sg11
I0
sg12
I2677
sg13
I0
sg14
g15
ssI38
(dp52
g2
F8.05
sg3
I2
sg4
F21.0
sg5
I0
sg6
I0
sg7
I3
sg8
I0
sg9
I2
sg10
I0
sg11
I0
sg12
I2152
sg13
I0
sg14
g15
ssI39
(dp53
g2
F18.0
sg3
I2
sg4
F18.0
sg5
I4
sg6
I0
sg7
I3
sg8
I1
sg9
g15
sg10
I0
sg11
I2
sg12
I345764
sg13
I2
sg14
g15
ssI40
(dp54
g2
F11.2417
sg3
I0
sg4
F14.0
sg5
I3
sg6
I0
sg7
I3
sg8
I1
sg9
g15
sg10
I1
sg11
I1
sg12
I2651
sg13
I1
sg14
g15
ssI41
(dp55
g2
F9.475
sg3
I2
sg4
F40.0
sg5
I1
sg6
I0
sg7
I3
sg8
I1
sg9
g15
sg10
I0
sg11
I1
sg12
I7546
sg13
I1
sg14
g15
ssI42
(dp56
g2
F21.0
sg3
I2
sg4
F27.0
sg5
I1
sg6
I0
sg7
I2
sg8
I1
sg9
g15
sg10
I0
sg11
I1
sg12
I11668
sg13
I1
sg14
g15
ssI43
(dp57
g2
F7.8958
sg3
I0
sg4
g15
sg5
I0
sg6
I0
sg7
I3
sg8
I0
sg9
g15
sg10
I0
sg11
I0
sg12
I349253
sg13
I0
sg14
g15
ssI44
(dp58
g2
F41.5792
sg3
I0
sg4
F3.0
sg5
I3
sg6
I2
sg7
I2
sg8
I1
sg9
I6
sg10
I1
sg11
I3
sg12
I2123
sg13
I1
sg14
g15
ssI45
(dp59
g2
F7.8792
sg3
I1
sg4
F19.0
sg5
I3
sg6
I0
sg7
I3
sg8
I1
sg9
g15
sg10
I1
sg11
I0
sg12
I330958
sg13
I0
sg14
g15
ssI46
(dp60
g2
F8.05
sg3
I2
sg4
g15
sg5
I0
sg6
I0
sg7
I3
sg8
I0
sg9
I6
sg10
I0
sg11
I0
sg12
I23567
sg13
I0
sg14
g15
ssI47
(dp61
g2
F15.5
sg3
I1
sg4
g15
sg5
I0
sg6
I0
sg7
I3
sg8
I0
sg9
g15
sg10
I0
sg11
I1
sg12
I370371
sg13
I1
sg14
g15
ssI48
(dp62
g2
F7.75
sg3
I1
sg4
g15
sg5
I3
sg6
I0
sg7
I3
sg8
I1
sg9
g15
sg10
I1
sg11
I0
sg12
I14311
sg13
I0
sg14
g15
ssI49
(dp63
g2
F21.6792
sg3
I0
sg4
g15
sg5
I0
sg6
I0
sg7
I3
sg8
I0
sg9
g15
sg10
I0
sg11
I2
sg12
I2662
sg13
I2
sg14
g15
ssI50
(dp64
g2
F17.8
sg3
I2
sg4
F18.0
sg5
I1
sg6
I0
sg7
I3
sg8
I1
sg9
g15
sg10
I0
sg11
I1
sg12
I349237
sg13
I1
sg14
g15
ssI51
(dp65
g2
F39.6875
sg3
I2
sg4
F7.0
sg5
I2
sg6
I1
sg7
I3
sg8
I0
sg9
g15
sg10
I0
sg11
I5
sg12
I3101295
sg13
I4
sg14
g15
ssI52
(dp66
g2
F7.8
sg3
I2
sg4
F21.0
sg5
I0
sg6
I0
sg7
I3
sg8
I0
sg9
I6
sg10
I0
sg11
I0
sg12
I39886
sg13
I0
sg14
g15
ssI53
(dp67
g2
F76.7292
sg3
I0
sg4
F49.0
sg5
I1
sg6
I0
sg7
I1
sg8
I1
sg9
I0
sg10
I1
sg11
I1
sg12
I17572
sg13
I1
sg14
F3.33
ssI54
(dp68
g2
F26.0
sg3
I2
sg4
F29.0
sg5
I1
sg6
I0
sg7
I2
sg8
I1
sg9
g15
sg10
I1
sg11
I1
sg12
I2926
sg13
I1
sg14
g15
ssI55
(dp69
g2
F61.9792
sg3
I0
sg4
F65.0
sg5
I0
sg6
I1
sg7
I1
sg8
I0
sg9
g15
sg10
I0
sg11
I1
sg12
I113509
sg13
I0
sg14
F1.3
ssI56
(dp70
g2
F35.5
sg3
I2
sg4
g15
sg5
I0
sg6
I0
sg7
I1
sg8
I0
sg9
g15
sg10
I1
sg11
I0
sg12
I19947
sg13
I0
sg14
F2.52
ssI57
(dp71
g2
F10.5
sg3
I2
sg4
F21.0
sg5
I3
sg6
I0
sg7
I2
sg8
I1
sg9
I1
sg10
I1
sg11
I0
sg12
I31026
sg13
I0
sg14
g15
ssI58
(dp72
g2
F7.2292
sg3
I0
sg4
F28.5
sg5
I0
sg6
I0
sg7
I3
sg8
I0
sg9
g15
sg10
I0
sg11
I0
sg12
I2697
sg13
I0
sg14
g15
ssI59
(dp73
g2
F27.75
sg3
I2
sg4
F5.0
sg5
I3
sg6
I2
sg7
I2
sg8
I1
sg9
I1
sg10
I1
sg11
I3
sg12
I34651
sg13
I1
sg14
g15
ssI60
(dp74
g2
F46.9
sg3
I2
sg4
F11.0
sg5
I2
sg6
I2
sg7
I3
sg8
I0
sg9
I1
sg10
I0
sg11
I7
sg12
I2144
sg13
I5
sg14
g15
ssI61
(dp75
g2
F7.2292
sg3
I0
sg4
F22.0
sg5
I0
sg6
I0
sg7
I3
sg8
I0
sg9
g15
sg10
I0
sg11
I0
sg12
I2669
sg13
I0
sg14
g15
ssI62
(dp76
g2
F80.0
sg3
g15
sg4
F38.0
sg5
I3
sg6
I0
sg7
I1
sg8
I1
sg9
g15
sg10
I1
sg11
I0
sg12
I113572
sg13
I0
sg14
F1.28
ssI63
(dp77
g2
F83.475
sg3
I2
sg4
F45.0
sg5
I0
sg6
I0
sg7
I1
sg8
I0
sg9
g15
sg10
I0
sg11
I1
sg12
I36973
sg13
I1
sg14
F2.83
ssI64
(dp78
g2
F27.9
sg3
I2
sg4
F4.0
sg5
I2
sg6
I2
sg7
I3
sg8
I0
sg9
g15
sg10
I0
sg11
I5
sg12
I347088
sg13
I3
sg14
g15
ssI65
(dp79
g2
F27.7208
sg3
I0
sg4
g15
sg5
I0
sg6
I0
sg7
I1
sg8
I0
sg9
I0
sg10
I0
sg11
I0
sg12
I17605
sg13
I0
sg14
g15
ssI66
(dp80
g2
F15.2458
sg3
I0
sg4
g15
sg5
I2
sg6
I1
sg7
I3
sg8
I0
sg9
g15
sg10
I1
sg11
I2
sg12
I2661
sg13
I1
sg14
g15
ssI67
(dp81
g2
F10.5
sg3
I2
sg4
F29.0
sg5
I1
sg6
I0
sg7
I2
sg8
I1
sg9
I1
sg10
I1
sg11
I0
sg12
I29395
sg13
I0
sg14
F5.33
ssI68
(dp82
g2
F8.1583
sg3
I2
sg4
F19.0
sg5
I0
sg6
I0
sg7
I3
sg8
I0
sg9
I6
sg10
I0
sg11
I0
sg12
I3464
sg13
I0
sg14
g15
ssI69
(dp83
g2
F7.925
sg3
I2
sg4
F17.0
sg5
I3
sg6
I2
sg7
I3
sg8
I1
sg9
g15
sg10
I1
sg11
I6
sg12
I3101281
sg13
I4
sg14
g15
ssI70
(dp84
g2
F8.6625
sg3
I2
sg4
F26.0
sg5
I0
sg6
I0
sg7
I3
sg8
I0
sg9
g15
sg10
I0
sg11
I2
sg12
I315151
sg13
I2
sg14
g15
ssI71
(dp85
g2
F10.5
sg3
I2
sg4
F32.0
sg5
I0
sg6
I0
sg7
I2
sg8
I0
sg9
I1
sg10
I0
sg11
I0
sg12
I33111
sg13
I0
sg14
g15
ssI72
(dp86
g2
F46.9
sg3
I2
sg4
F16.0
sg5
I3
sg6
I2
sg7
I3
sg8
I1
sg9
I1
sg10
I0
sg11
I7
sg12
I2144
sg13
I5
sg14
g15
ssI73
(dp87
g2
F73.5
sg3
I2
sg4
F21.0
sg5
I0
sg6
I0
sg7
I2
sg8
I0
sg9
I6
sg10
I0
sg11
I0
sg12
I14879
sg13
I0
sg14
g15
ssI74
(dp88
g2
F14.4542
sg3
I0
sg4
F26.0
sg5
I0
sg6
I0
sg7
I3
sg8
I0
sg9
g15
sg10
I0
sg11
I1
sg12
I2680
sg13
I1
sg14
g15
ssI75
(dp89
g2
F56.4958
sg3
I2
sg4
F32.0
sg5
I0
sg6
I0
sg7
I3
sg8
I0
sg9
g15
sg10
I1
sg11
I0
sg12
I1601
sg13
I0
sg14
g15
ssI76
(dp90
g2
F7.65
sg3
I2
sg4
F25.0
sg5
I0
sg6
I0
sg7
I3
sg8
I0
sg9
g15
sg10
I0
sg11
I0
sg12
I348123
sg13
I0
sg14
F5.865
ssI77
(dp91
g2
F7.8958
sg3
I2
sg4
g15
sg5
I0
sg6
I0
sg7
I3
sg8
I0
sg9
g15
sg10
I0
sg11
I0
sg12
I349208
sg13
I0
sg14
g15
ssI78
(dp92
g2
F8.05
sg3
I2
sg4
g15
sg5
I0
sg6
I0
sg7
I3
sg8
I0
sg9
g15
sg10
I0
sg11
I0
sg12
I374746
sg13
I0
sg14
g15
ssI79
(dp93
g2
F29.0
sg3
I2
sg4
F0.83
sg5
I2
sg6
I2
sg7
I2
sg8
I0
sg9
g15
sg10
I1
sg11
I2
sg12
I248738
sg13
I0
sg14
g15
ssI80
(dp94
g2
F12.475
sg3
I2
sg4
F30.0
sg5
I3
sg6
I0
sg7
I3
sg8
I1
sg9
g15
sg10
I1
sg11
I0
sg12
I364516
sg13
I0
sg14
g15
ssI81
(dp95
g2
F9.0
sg3
I2
sg4
F22.0
sg5
I0
sg6
I0
sg7
I3
sg8
I0
sg9
g15
sg10
I0
sg11
I0
sg12
I345767
sg13
I0
sg14
g15
ssI82
(dp96
g2
F9.5
sg3
I2
sg4
F29.0
sg5
I0
sg6
I0
sg7
I3
sg8
I0
sg9
g15
sg10
I1
sg11
I0
sg12
I345779
sg13
I0
sg14
g15
ssI83
(dp97
g2
F7.7875
sg3
I1
sg4
g15
sg5
I3
sg6
I0
sg7
I3
sg8
I1
sg9
g15
sg10
I1
sg11
I0
sg12
I330932
sg13
I0
sg14
g15
ssI84
(dp98
g2
F47.1
sg3
I2
sg4
F28.0
sg5
I0
sg6
I0
sg7
I1
sg8
I0
sg9
g15
sg10
I0
sg11
I0
sg12
I113059
sg13
I0
sg14
g15
ssI85
(dp99
g2
F10.5
sg3
I2
sg4
F17.0
sg5
I3
sg6
I0
sg7
I2
sg8
I1
sg9
I6
sg10
I1
sg11
I0
sg12
I14885
sg13
I0
sg14
g15
ssI86
(dp100
g2
F15.85
sg3
I2
sg4
F33.0
sg5
I1
sg6
I0
sg7
I3
sg8
I1
sg9
g15
sg10
I1
sg11
I3
sg12
I3101278
sg13
I3
sg14
g15
ssI87
(dp101
g2
F34.375
sg3
I2
sg4
F16.0
sg5
I0
sg6
I3
sg7
I3
sg8
I0
sg9
I5
sg10
I0
sg11
I4
sg12
I6608
sg13
I1
sg14
g15
ssI88
(dp102
g2
F8.05
sg3
I2
sg4
g15
sg5
I0
sg6
I0
sg7
I3
sg8
I0
sg9
I3
sg10
I0
sg11
I0
sg12
I392086
sg13
I0
sg14
g15
ssI89
(dp103
g2
F263.0
sg3
I2
sg4
F23.0
sg5
I3
sg6
I2
sg7
I1
sg8
I1
sg9
g15
sg10
I1
sg11
I5
sg12
I19950
sg13
I3
sg14
F2.25
ssI90
(dp104
g2
F8.05
sg3
I2
sg4
F24.0
sg5
I0
sg6
I0
sg7
I3
sg8
I0
sg9
g15
sg10
I0
sg11
I0
sg12
I343275
sg13
I0
sg14
g15
ssI91
(dp105
g2
F8.05
sg3
I2
sg4
F29.0
sg5
I0
sg6
I0
sg7
I3
sg8
I0
sg9
g15
sg10
I0
sg11
I0
sg12
I343276
sg13
I0
sg14
g15
ssI92
(dp106
g2
F7.8542
sg3
I2
sg4
F20.0
sg5
I0
sg6
I0
sg7
I3
sg8
I0
sg9
g15
sg10
I0
sg11
I0
sg12
I347466
sg13
I0
sg14
g15
ssI93
(dp107
g2
F61.175
sg3
I2
sg4
F46.0
sg5
I0
sg6
I0
sg7
I1
sg8
I0
sg9
I6
sg10
I0
sg11
I1
sg12
I5734
sg13
I1
sg14
F4.31
ssI94
(dp108
g2
F20.575
sg3
I2
sg4
F26.0
sg5
I0
sg6
I2
sg7
I3
sg8
I0
sg9
I1
sg10
I0
sg11
I3
sg12
I2315
sg13
I1
sg14
g15
ssI95
(dp109
g2
F7.25
sg3
I2
sg4
F59.0
sg5
I0
sg6
I0
sg7
I3
sg8
I0
sg9
g15
sg10
I0
sg11
I0
sg12
I364500
sg13
I0
sg14
g15
ssI96
(dp110
g2
F8.05
sg3
I2
sg4
g15
sg5
I0
sg6
I0
sg7
I3
sg8
I0
sg9
g15
sg10
I0
sg11
I0
sg12
I374910
sg13
I0
sg14
g15
ssI97
(dp111
g2
F34.6542
sg3
I0
sg4
F71.0
sg5
I0
sg6
I0
sg7
I1
sg8
I0
sg9
I0
sg10
I0
sg11
I0
sg12
I17754
sg13
I0
sg14
F0.5
ssI98
(dp112
g2
F63.3583
sg3
I0
sg4
F23.0
sg5
I0
sg6
I1
sg7
I1
sg8
I0
sg9
I0
sg10
I1
sg11
I1
sg12
I17759
sg13
I0
sg14
F3.1100000000000003
ssI99
(dp113
g2
F23.0
sg3
I2
sg4
F34.0
sg5
I1
sg6
I1
sg7
I2
sg8
I1
sg9
g15
sg10
I1
sg11
I1
sg12
I231919
sg13
I0
sg14
g15
ssI100
(dp114
g2
F26.0
sg3
I2
sg4
F34.0
sg5
I0
sg6
I0
sg7
I2
sg8
I0
sg9
g15
sg10
I0
sg11
I1
sg12
I244367
sg13
I1
sg14
g15
ssI101
(dp115
g2
F7.8958
sg3
I2
sg4
F28.0
sg5
I3
sg6
I0
sg7
I3
sg8
I1
sg9
g15
sg10
I0
sg11
I0
sg12
I349245
sg13
I0
sg14
g15
ssI102
(dp116
g2
F7.8958
sg3
I2
sg4
g15
sg5
I0
sg6
I0
sg7
I3
sg8
I0
sg9
g15
sg10
I0
sg11
I0
sg12
I349215
sg13
I0
sg14
g15
ssI103
(dp117
g2
F77.2875
sg3
I2
sg4
F21.0
sg5
I0
sg6
I1
sg7
I1
sg8
I0
sg9
g15
sg10
I0
sg11
I1
sg12
I35281
sg13
I0
sg14
F3.26
ssI104
(dp118
g2
F8.6542
sg3
I2
sg4
F33.0
sg5
I0
sg6
I0
sg7
I3
sg8
I0
sg9
g15
sg10
I0
sg11
I0
sg12
I7540
sg13
I0
sg14
g15
ssI105
(dp119
g2
F7.925
sg3
I2
sg4
F37.0
sg5
I0
sg6
I0
sg7
I3
sg8
I0
sg9
g15
sg10
I0
sg11
I2
sg12
I3101276
sg13
I2
sg14
g15
ssI106
(dp120
g2
F7.8958
sg3
I2
sg4
F28.0
sg5
I0
sg6
I0
sg7
I3
sg8
I0
sg9
g15
sg10
I0
sg11
I0
sg12
I349207
sg13
I0
sg14
g15
ssI107
(dp121
g2
F7.65
sg3
I2
sg4
F21.0
sg5
I3
sg6
I0
sg7
I3
sg8
I1
sg9
g15
sg10
I1
sg11
I0
sg12
I343120
sg13
I0
sg14
g15
ssI108
(dp122
g2
F7.775
sg3
I2
sg4
g15
sg5
I0
sg6
I0
sg7
I3
sg8
I0
sg9
g15
sg10
I1
sg11
I0
sg12
I312991
sg13
I0
sg14
g15
ssI109
(dp123
g2
F7.8958
sg3
I2
sg4
F38.0
sg5
I0
sg6
I0
sg7
I3
sg8
I0
sg9
g15
sg10
I0
sg11
I0
sg12
I349249
sg13
I0
sg14
g15
ssI110
(dp124
g2
F24.15
sg3
I1
sg4
g15
sg5
I3
sg6
I0
sg7
I3
sg8
I1
sg9
g15
sg10
I1
sg11
I1
sg12
I371110
sg13
I1
sg14
g15
ssI111
(dp125
g2
F52.0
sg3
I2
sg4
F47.0
sg5
I0
sg6
I0
sg7
I1
sg8
I0
sg9
g15
sg10
I0
sg11
I0
sg12
I110465
sg13
I0
sg14
F2.11
ssI112
(dp126
g2
F14.4542
sg3
I0
sg4
F14.5
sg5
I3
sg6
I0
sg7
I3
sg8
I1
sg9
g15
sg10
I0
sg11
I1
sg12
I2665
sg13
I1
sg14
g15
ssI113
(dp127
g2
F8.05
sg3
I2
sg4
F22.0
sg5
I0
sg6
I0
sg7
I3
sg8
I0
sg9
g15
sg10
I0
sg11
I0
sg12
I324669
sg13
I0
sg14
g15
ssI114
(dp128
g2
F9.825
sg3
I2
sg4
F20.0
sg5
I3
sg6
I0
sg7
I3
sg8
I1
sg9
g15
sg10
I0
sg11
I1
sg12
I4136
sg13
I1
sg14
g15
ssI115
(dp129
g2
F14.4583
sg3
I0
sg4
F17.0
sg5
I3
sg6
I0
sg7
I3
sg8
I1
sg9
g15
sg10
I0
sg11
I0
sg12
I2627
sg13
I0
sg14
g15
ssI116
(dp130
g2
F7.925
sg3
I2
sg4
F21.0
sg5
I0
sg6
I0
sg7
I3
sg8
I0
sg9
I4
sg10
I0
sg11
I0
sg12
I3101294
sg13
I0
sg14
g15
ssI117
(dp131
g2
F7.75
sg3
I1
sg4
F70.5
sg5
I0
sg6
I0
sg7
I3
sg8
I0
sg9
g15
sg10
I0
sg11
I0
sg12
I370369
sg13
I0
sg14
g15
ssI118
(dp132
g2
F21.0
sg3
I2
sg4
F29.0
sg5
I0
sg6
I0
sg7
I2
sg8
I0
sg9
g15
sg10
I0
sg11
I1
sg12
I11668
sg13
I1
sg14
g15
ssI119
(dp133
g2
F247.5208
sg3
I0
sg4
F24.0
sg5
I0
sg6
I1
sg7
I1
sg8
I0
sg9
I0
sg10
I0
sg11
I1
sg12
I17558
sg13
I0
sg14
F1.59
ssI120
(dp134
g2
F31.275
sg3
I2
sg4
F2.0
sg5
I3
sg6
I2
sg7
I3
sg8
I1
sg9
g15
sg10
I0
sg11
I6
sg12
I347082
sg13
I4
sg14
g15
ssI121
(dp135
g2
F73.5
sg3
I2
sg4
F21.0
sg5
I0
sg6
I0
sg7
I2
sg8
I0
sg9
I6
sg10
I0
sg11
I2
sg12
I14879
sg13
I2
sg14
g15
ssI122
(dp136
g2
F8.05
sg3
I2
sg4
g15
sg5
I0
sg6
I0
sg7
I3
sg8
I0
sg9
I6
sg10
I0
sg11
I0
sg12
I54510
sg13
I0
sg14
g15
ssI123
(dp137
g2
F30.0708
sg3
I0
sg4
F32.5
sg5
I0
sg6
I0
sg7
I2
sg8
I0
sg9
g15
sg10
I0
sg11
I1
sg12
I237736
sg13
I1
sg14
g15
ssI124
(dp138
g2
F13.0
sg3
I2
sg4
F32.5
sg5
I3
sg6
I0
sg7
I2
sg8
I1
sg9
g15
sg10
I1
sg11
I0
sg12
I27267
sg13
I0
sg14
F4.101
ssI125
(dp139
g2
F77.2875
sg3
I2
sg4
F54.0
sg5
I0
sg6
I1
sg7
I1
sg8
I0
sg9
g15
sg10
I0
sg11
I1
sg12
I35281
sg13
I0
sg14
F3.26
ssI126
(dp140
g2
F11.2417
sg3
I0
sg4
F12.0
sg5
I2
sg6
I0
sg7
I3
sg8
I0
sg9
g15
sg10
I1
sg11
I1
sg12
I2651
sg13
I1
sg14
g15
ssI127
(dp141
g2
F7.75
sg3
I1
sg4
g15
sg5
I0
sg6
I0
sg7
I3
sg8
I0
sg9
g15
sg10
I0
sg11
I0
sg12
I370372
sg13
I0
sg14
g15
ssI128
(dp142
g2
F7.1417
sg3
I2
sg4
F24.0
sg5
I0
sg6
I0
sg7
I3
sg8
I0
sg9
I6
sg10
I1
sg11
I0
sg12
I17369
sg13
I0
sg14
g15
ssI129
(dp143
g2
F22.3583
sg3
I0
sg4
g15
sg5
I3
sg6
I1
sg7
I3
sg8
I1
sg9
g15
sg10
I1
sg11
I2
sg12
I2668
sg13
I1
sg14
F4.845000000000001
ssI130
(dp144
g2
F6.975
sg3
I2
sg4
F45.0
sg5
I0
sg6
I0
sg7
I3
sg8
I0
sg9
g15
sg10
I0
sg11
I0
sg12
I347061
sg13
I0
sg14
g15
ssI131
(dp145
g2
F7.8958
sg3
I0
sg4
F33.0
sg5
I0
sg6
I0
sg7
I3
sg8
I0
sg9
g15
sg10
I0
sg11
I0
sg12
I349241
sg13
I0
sg14
g15
ssI132
(dp146
g2
F7.05
sg3
I2
sg4
F20.0
sg5
I0
sg6
I0
sg7
I3
sg8
I0
sg9
I3
sg10
I0
sg11
I0
sg12
I3101307
sg13
I0
sg14
g15
ssI133
(dp147
g2
F14.5
sg3
I2
sg4
F47.0
sg5
I1
sg6
I0
sg7
I3
sg8
I1
sg9
I2
sg10
I0
sg11
I1
sg12
I3337
sg13
I1
sg14
g15
ssI134
(dp148
g2
F26.0
sg3
I2
sg4
F29.0
sg5
I1
sg6
I0
sg7
I2
sg8
I1
sg9
g15
sg10
I1
sg11
I1
sg12
I228414
sg13
I1
sg14
g15
ssI135
(dp149
g2
F13.0
sg3
I2
sg4
F25.0
sg5
I0
sg6
I0
sg7
I2
sg8
I0
sg9
I1
sg10
I0
sg11
I0
sg12
I29178
sg13
I0
sg14
g15
ssI136
(dp150
g2
F15.0458
sg3
I0
sg4
F23.0
sg5
I0
sg6
I0
sg7
I2
sg8
I0
sg9
I6
sg10
I0
sg11
I0
sg12
I2133
sg13
I0
sg14
g15
ssI137
(dp151
g2
F26.2833
sg3
I2
sg4
F19.0
sg5
I3
sg6
I2
sg7
I1
sg8
I1
sg9
g15
sg10
I1
sg11
I2
sg12
I11752
sg13
I0
sg14
F3.47
ssI138
(dp152
g2
F53.1
sg3
I2
sg4
F37.0
sg5
I0
sg6
I0
sg7
I1
sg8
I0
sg9
g15
sg10
I0
sg11
I1
sg12
I113803
sg13
I1
sg14
F2.123
ssI139
(dp153
g2
F9.2167
sg3
I2
sg4
F16.0
sg5
I0
sg6
I0
sg7
I3
sg8
I0
sg9
g15
sg10
I0
sg11
I0
sg12
I7534
sg13
I0
sg14
g15
ssI140
(dp154
g2
F79.2
sg3
I0
sg4
F24.0
sg5
I0
sg6
I0
sg7
I1
sg8
I0
sg9
I0
sg10
I0
sg11
I0
sg12
I17593
sg13
I0
sg14
F1.86
ssI141
(dp155
g2
F15.2458
sg3
I0
sg4
g15
sg5
I1
sg6
I2
sg7
I3
sg8
I1
sg9
g15
sg10
I0
sg11
I2
sg12
I2678
sg13
I0
sg14
g15
ssI142
(dp156
g2
F7.75
sg3
I2
sg4
F22.0
sg5
I3
sg6
I0
sg7
I3
sg8
I1
sg9
g15
sg10
I1
sg11
I0
sg12
I347081
sg13
I0
sg14
g15
ssI143
(dp157
g2
F15.85
sg3
I2
sg4
F24.0
sg5
I1
sg6
I0
sg7
I3
sg8
I1
sg9
I6
sg10
I1
sg11
I1
sg12
I3101279
sg13
I1
sg14
g15
ssI144
(dp158
g2
F6.75
sg3
I1
sg4
F19.0
sg5
I0
sg6
I0
sg7
I3
sg8
I0
sg9
g15
sg10
I0
sg11
I0
sg12
I365222
sg13
I0
sg14
g15
ssI145
(dp159
g2
F11.5
sg3
I2
sg4
F18.0
sg5
I0
sg6
I0
sg7
I2
sg8
I0
sg9
g15
sg10
I0
sg11
I0
sg12
I231945
sg13
I0
sg14
g15
ssI146
(dp160
g2
F36.75
sg3
I2
sg4
F19.0
sg5
I0
sg6
I1
sg7
I2
sg8
I0
sg9
I1
sg10
I0
sg11
I2
sg12
I33112
sg13
I1
sg14
g15
ssI147
(dp161
g2
F7.7958
sg3
I2
sg4
F27.0
sg5
I0
sg6
I0
sg7
I3
sg8
I0
sg9
g15
sg10
I1
sg11
I0
sg12
I350043
sg13
I0
sg14
g15
ssI148
(dp162
g2
F34.375
sg3
I2
sg4
F9.0
sg5
I3
sg6
I2
sg7
I3
sg8
I1
sg9
I5
sg10
I0
sg11
I4
sg12
I6608
sg13
I2
sg14
g15
ssI149
(dp163
g2
F26.0
sg3
I2
sg4
F36.5
sg5
I0
sg6
I2
sg7
I2
sg8
I0
sg9
g15
sg10
I0
sg11
I2
sg12
I230080
sg13
I0
sg14
F5.2
ssI150
(dp164
g2
F13.0
sg3
I2
sg4
F42.0
sg5
I4
sg6
I0
sg7
I2
sg8
I0
sg9
g15
sg10
I0
sg11
I0
sg12
I244310
sg13
I0
sg14
g15
ssI151
(dp165
g2
F12.525
sg3
I2
sg4
F51.0
sg5
I4
sg6
I0
sg7
I2
sg8
I0
sg9
I6
sg10
I0
sg11
I0
sg12
I1166
sg13
I0
sg14
g15
ssI152
(dp166
g2
F66.6
sg3
I2
sg4
F22.0
sg5
I1
sg6
I0
sg7
I1
sg8
I1
sg9
g15
sg10
I1
sg11
I1
sg12
I113776
sg13
I1
sg14
F2.2
ssI153
(dp167
g2
F8.05
sg3
I2
sg4
F55.5
sg5
I0
sg6
I0
sg7
I3
sg8
I0
sg9
I2
sg10
I0
sg11
I0
sg12
I11206
sg13
I0
sg14
g15
ssI154
(dp168
g2
F14.5
sg3
I2
sg4
F40.5
sg5
I4
sg6
I2
sg7
I3
sg8
I0
sg9
I2
sg10
I0
sg11
I2
sg12
I851
sg13
I0
sg14
g15
ssI155
(dp169
g2
F7.3125
sg3
I2
sg4
g15
sg5
I0
sg6
I0
sg7
I3
sg8
I0
sg9
I6
sg10
I0
sg11
I0
sg12
I265302
sg13
I0
sg14
g15
ssI156
(dp170
g2
F61.3792
sg3
I0
sg4
F51.0
sg5
I0
sg6
I1
sg7
I1
sg8
I0
sg9
I0
sg10
I0
sg11
I1
sg12
I17597
sg13
I0
sg14
g15
ssI157
(dp171
g2
F7.7333
sg3
I1
sg4
F16.0
sg5
I3
sg6
I0
sg7
I3
sg8
I1
sg9
g15
sg10
I1
sg11
I0
sg12
I35851
sg13
I0
sg14
g15
ssI158
(dp172
g2
F8.05
sg3
I2
sg4
F30.0
sg5
I0
sg6
I0
sg7
I3
sg8
I0
sg9
I3
sg10
I0
sg11
I0
sg12
I392090
sg13
I0
sg14
g15
ssI159
(dp173
g2
F8.6625
sg3
I2
sg4
g15
sg5
I0
sg6
I0
sg7
I3
sg8
I0
sg9
g15
sg10
I0
sg11
I0
sg12
I315037
sg13
I0
sg14
g15
ssI160
(dp174
g2
F69.55
sg3
I2
sg4
g15
sg5
I2
sg6
I2
sg7
I3
sg8
I0
sg9
I1
sg10
I0
sg11
I10
sg12
I2343
sg13
I8
sg14
g15
ssI161
(dp175
g2
F16.1
sg3
I2
sg4
F44.0
sg5
I0
sg6
I1
sg7
I3
sg8
I0
sg9
g15
sg10
I0
sg11
I1
sg12
I371362
sg13
I0
sg14
g15
ssI162
(dp176
g2
F15.75
sg3
I2
sg4
F40.0
sg5
I1
sg6
I0
sg7
I2
sg8
I1
sg9
I1
sg10
I1
sg11
I0
sg12
I33595
sg13
I0
sg14
g15
ssI163
(dp177
g2
F7.775
sg3
I2
sg4
F26.0
sg5
I0
sg6
I0
sg7
I3
sg8
I0
sg9
g15
sg10
I0
sg11
I0
sg12
I347068
sg13
I0
sg14
g15
ssI164
(dp178
g2
F8.6625
sg3
I2
sg4
F17.0
sg5
I0
sg6
I0
sg7
I3
sg8
I0
sg9
g15
sg10
I0
sg11
I0
sg12
I315093
sg13
I0
sg14
g15
ssI165
(dp179
g2
F39.6875
sg3
I2
sg4
F1.0
sg5
I2
sg6
I1
sg7
I3
sg8
I0
sg9
g15
sg10
I0
sg11
I5
sg12
I3101295
sg13
I4
sg14
g15
ssI166
(dp180
g2
F20.525
sg3
I2
sg4
F9.0
sg5
I2
sg6
I2
sg7
I3
sg8
I0
sg9
g15
sg10
I1
sg11
I2
sg12
I363291
sg13
I0
sg14
g15
ssI167
(dp181
g2
F55.0
sg3
I2
sg4
g15
sg5
I1
sg6
I1
sg7
I1
sg8
I1
sg9
g15
sg10
I1
sg11
I1
sg12
I113505
sg13
I0
sg14
F4.33
ssI168
(dp182
g2
F27.9
sg3
I2
sg4
F45.0
sg5
I1
sg6
I4
sg7
I3
sg8
I1
sg9
g15
sg10
I0
sg11
I5
sg12
I347088
sg13
I1
sg14
g15
ssI169
(dp183
g2
F25.925
sg3
I2
sg4
g15
sg5
I0
sg6
I0
sg7
I1
sg8
I0
sg9
I0
sg10
I0
sg11
I0
sg12
I17318
sg13
I0
sg14
g15
ssI170
(dp184
g2
F56.4958
sg3
I2
sg4
F28.0
sg5
I0
sg6
I0
sg7
I3
sg8
I0
sg9
g15
sg10
I0
sg11
I0
sg12
I1601
sg13
I0
sg14
g15
ssI171
(dp185
g2
F33.5
sg3
I2
sg4
F61.0
sg5
I4
sg6
I0
sg7
I1
sg8
I0
sg9
g15
sg10
I0
sg11
I0
sg12
I111240
sg13
I0
sg14
F1.19
ssI172
(dp186
g2
F29.125
sg3
I1
sg4
F4.0
sg5
I2
sg6
I1
sg7
I3
sg8
I0
sg9
g15
sg10
I0
sg11
I5
sg12
I382652
sg13
I4
sg14
g15
ssI173
(dp187
g2
F11.1333
sg3
I2
sg4
F1.0
sg5
I3
sg6
I1
sg7
I3
sg8
I1
sg9
g15
sg10
I1
sg11
I2
sg12
I347742
sg13
I1
sg14
g15
ssI174
(dp188
g2
F7.925
sg3
I2
sg4
F21.0
sg5
I0
sg6
I0
sg7
I3
sg8
I0
sg9
I4
sg10
I0
sg11
I0
sg12
I3101280
sg13
I0
sg14
g15
ssI175
(dp189
g2
F30.6958
sg3
I0
sg4
F56.0
sg5
I0
sg6
I0
sg7
I1
sg8
I0
sg9
g15
sg10
I0
sg11
I0
sg12
I17764
sg13
I0
sg14
F0.7
ssI176
(dp190
g2
F7.8542
sg3
I2
sg4
F18.0
sg5
I0
sg6
I1
sg7
I3
sg8
I0
sg9
g15
sg10
I0
sg11
I2
sg12
I350404
sg13
I1
sg14
g15
ssI177
(dp191
g2
F25.4667
sg3
I2
sg4
g15
sg5
I2
sg6
I1
sg7
I3
sg8
I0
sg9
g15
sg10
I0
sg11
I4
sg12
I4133
sg13
I3
sg14
g15
ssI178
(dp192
g2
F28.7125
sg3
I0
sg4
F50.0
sg5
I3
sg6
I0
sg7
I1
sg8
I1
sg9
I0
sg10
I0
sg11
I0
sg12
I17595
sg13
I0
sg14
F2.49
ssI179
(dp193
g2
F13.0
sg3
I2
sg4
F30.0
sg5
I0
sg6
I0
sg7
I2
sg8
I0
sg9
g15
sg10
I0
sg11
I0
sg12
I250653
sg13
I0
sg14
g15
ssI180
(dp194
g2
F0.0
sg3
I2
sg4
F36.0
sg5
I0
sg6
I0
sg7
I3
sg8
I0
sg9
I-2
sg10
I0
sg11
I0
sg12
g15
sg13
I0
sg14
g15
ssI181
(dp195
g2
F69.55
sg3
I2
sg4
g15
sg5
I3
sg6
I2
sg7
I3
sg8
I1
sg9
I1
sg10
I0
sg11
I10
sg12
I2343
sg13
I8
sg14
g15
ssI182
(dp196
g2
F15.05
sg3
I0
sg4
g15
sg5
I0
sg6
I0
sg7
I2
sg8
I0
sg9
I6
sg10
I0
sg11
I0
sg12
I2131
sg13
I0
sg14
g15
ssI183
(dp197
g2
F31.3875
sg3
I2
sg4
F9.0
sg5
I2
sg6
I2
sg7
I3
sg8
I0
sg9
g15
sg10
I0
sg11
I6
sg12
I347077
sg13
I4
sg14
g15
ssI184
(dp198
g2
F39.0
sg3
I2
sg4
F1.0
sg5
I2
sg6
I1
sg7
I2
sg8
I0
sg9
g15
sg10
I1
sg11
I3
sg12
I230136
sg13
I2
sg14
F5.4
ssI185
(dp199
g2
F22.025
sg3
I2
sg4
F4.0
sg5
I3
sg6
I2
sg7
I3
sg8
I1
sg9
g15
sg10
I1
sg11
I2
sg12
I315153
sg13
I0
sg14
g15
ssI186
(dp200
g2
F50.0
sg3
I2
sg4
g15
sg5
I0
sg6
I0
sg7
I1
sg8
I0
sg9
g15
sg10
I0
sg11
I0
sg12
I113767
sg13
I0
sg14
F0.32
ssI187
(dp201
g2
F15.5
sg3
I1
sg4
g15
sg5
I1
sg6
I0
sg7
I3
sg8
I1
sg9
g15
sg10
I1
sg11
I1
sg12
I370365
sg13
I1
sg14
g15
ssI188
(dp202
g2
F26.55
sg3
I2
sg4
F45.0
sg5
I0
sg6
I0
sg7
I1
sg8
I0
sg9
g15
sg10
I1
sg11
I0
sg12
I111428
sg13
I0
sg14
g15
ssI189
(dp203
g2
F15.5
sg3
I1
sg4
F40.0
sg5
I0
sg6
I1
sg7
I3
sg8
I0
sg9
g15
sg10
I0
sg11
I2
sg12
I364849
sg13
I1
sg14
g15
ssI190
(dp204
g2
F7.8958
sg3
I2
sg4
F36.0
sg5
I0
sg6
I0
sg7
I3
sg8
I0
sg9
g15
sg10
I0
sg11
I0
sg12
I349247
sg13
I0
sg14
g15
ssI191
(dp205
g2
F13.0
sg3
I2
sg4
F32.0
sg5
I1
sg6
I0
sg7
I2
sg8
I1
sg9
g15
sg10
I1
sg11
I0
sg12
I234604
sg13
I0
sg14
g15
ssI192
(dp206
g2
F13.0
sg3
I2
sg4
F19.0
sg5
I0
sg6
I0
sg7
I2
sg8
I0
sg9
g15
sg10
I0
sg11
I0
sg12
I28424
sg13
I0
sg14
g15
ssI193
(dp207
g2
F7.8542
sg3
I2
sg4
F19.0
sg5
I3
sg6
I0
sg7
I3
sg8
I1
sg9
g15
sg10
I1
sg11
I1
sg12
I350046
sg13
I1
sg14
g15
ssI194
(dp208
g2
F26.0
sg3
I2
sg4
F3.0
sg5
I2
sg6
I1
sg7
I2
sg8
I0
sg9
g15
sg10
I1
sg11
I2
sg12
I230080
sg13
I1
sg14
F5.2
ssI195
(dp209
g2
F27.7208
sg3
I0
sg4
F44.0
sg5
I1
sg6
I0
sg7
I1
sg8
I1
sg9
I0
sg10
I1
sg11
I0
sg12
I17610
sg13
I0
sg14
F1.4
ssI196
(dp210
g2
F146.5208
sg3
I0
sg4
F58.0
sg5
I3
sg6
I0
sg7
I1
sg8
I1
sg9
I0
sg10
I1
sg11
I0
sg12
I17569
sg13
I0
sg14
F1.8
ssI197
(dp211
g2
F7.75
sg3
I1
sg4
g15
sg5
I0
sg6
I0
sg7
I3
sg8
I0
sg9
g15
sg10
I0
sg11
I0
sg12
I368703
sg13
I0
sg14
g15
ssI198
(dp212
g2
F8.4042
sg3
I2
sg4
F42.0
sg5
I0
sg6
I1
sg7
I3
sg8
I0
sg9
g15
sg10
I0
sg11
I1
sg12
I4579
sg13
I0
sg14
g15
ssI199
(dp213
g2
F7.75
sg3
I1
sg4
g15
sg5
I3
sg6
I0
sg7
I3
sg8
I1
sg9
g15
sg10
I1
sg11
I0
sg12
I370370
sg13
I0
sg14
g15
ssI200
(dp214
g2
F13.0
sg3
I2
sg4
F24.0
sg5
I3
sg6
I0
sg7
I2
sg8
I1
sg9
g15
sg10
I0
sg11
I0
sg12
I248747
sg13
I0
sg14
g15
ssI201
(dp215
g2
F9.5
sg3
I2
sg4
F28.0
sg5
I4
sg6
I0
sg7
I3
sg8
I0
sg9
g15
sg10
I0
sg11
I0
sg12
I345770
sg13
I0
sg14
g15
ssI202
(dp216
g2
F69.55
sg3
I2
sg4
g15
sg5
I0
sg6
I2
sg7
I3
sg8
I0
sg9
I1
sg10
I0
sg11
I10
sg12
I2343
sg13
I8
sg14
g15
ssI203
(dp217
g2
F6.4958
sg3
I2
sg4
F34.0
sg5
I0
sg6
I0
sg7
I3
sg8
I0
sg9
g15
sg10
I0
sg11
I0
sg12
I3101264
sg13
I0
sg14
g15
ssI204
(dp218
g2
F7.225
sg3
I0
sg4
F45.5
sg5
I0
sg6
I0
sg7
I3
sg8
I0
sg9
g15
sg10
I0
sg11
I0
sg12
I2628
sg13
I0
sg14
g15
ssI205
(dp219
g2
F8.05
sg3
I2
sg4
F18.0
sg5
I0
sg6
I0
sg7
I3
sg8
I0
sg9
I2
sg10
I1
sg11
I0
sg12
I3540
sg13
I0
sg14
g15
ssI206
(dp220
g2
F10.4625
sg3
I2
sg4
F2.0
sg5
I3
sg6
I1
sg7
I3
sg8
I1
sg9
g15
sg10
I0
sg11
I1
sg12
I347054
sg13
I0
sg14
F6.6
ssI207
(dp221
g2
F15.85
sg3
I2
sg4
F32.0
sg5
I0
sg6
I0
sg7
I3
sg8
I0
sg9
g15
sg10
I0
sg11
I1
sg12
I3101278
sg13
I1
sg14
g15
ssI208
(dp222
g2
F18.7875
sg3
I0
sg4
F26.0
sg5
I0
sg6
I0
sg7
I3
sg8
I0
sg9
g15
sg10
I1
sg11
I0
sg12
I2699
sg13
I0
sg14
g15
ssI209
(dp223
g2
F7.75
sg3
I1
sg4
F16.0
sg5
I3
sg6
I0
sg7
I3
sg8
I1
sg9
g15
sg10
I1
sg11
I0
sg12
I367231
sg13
I0
sg14
g15
ssI210
(dp224
g2
F31.0
sg3
I0
sg4
F40.0
sg5
I0
sg6
I0
sg7
I1
sg8
I0
sg9
g15
sg10
I1
sg11
I0
sg12
I112277
sg13
I0
sg14
F0.31
ssI211
(dp225
g2
F7.05
sg3
I2
sg4
F24.0
sg5
I0
sg6
I0
sg7
I3
sg8
I0
sg9
I3
sg10
I0
sg11
I0
sg12
I3101311
sg13
I0
sg14
g15
ssI212
(dp226
g2
F21.0
sg3
I2
sg4
F35.0
sg5
I3
sg6
I0
sg7
I2
sg8
I1
sg9
I6
sg10
I1
sg11
I0
sg12
I13528
sg13
I0
sg14
g15
ssI213
(dp227
g2
F7.25
sg3
I2
sg4
F22.0
sg5
I0
sg6
I0
sg7
I3
sg8
I0
sg9
I2
sg10
I0
sg11
I0
sg12
I21174
sg13
I0
sg14
g15
ssI214
(dp228
g2
F13.0
sg3
I2
sg4
F30.0
sg5
I0
sg6
I0
sg7
I2
sg8
I0
sg9
g15
sg10
I0
sg11
I0
sg12
I250646
sg13
I0
sg14
g15
ssI215
(dp229
g2
F7.75
sg3
I1
sg4
g15
sg5
I0
sg6
I0
sg7
I3
sg8
I0
sg9
g15
sg10
I0
sg11
I1
sg12
I367229
sg13
I1
sg14
g15
ssI216
(dp230
g2
F113.275
sg3
I0
sg4
F31.0
sg5
I3
sg6
I0
sg7
I1
sg8
I1
sg9
g15
sg10
I1
sg11
I1
sg12
I35273
sg13
I1
sg14
F3.36
ssI217
(dp231
g2
F7.925
sg3
I2
sg4
F27.0
sg5
I3
sg6
I0
sg7
I3
sg8
I1
sg9
I6
sg10
I1
sg11
I0
sg12
I3101283
sg13
I0
sg14
g15
ssI218
(dp232
g2
F27.0
sg3
I2
sg4
F42.0
sg5
I0
sg6
I0
sg7
I2
sg8
I0
sg9
g15
sg10
I0
sg11
I1
sg12
I243847
sg13
I1
sg14
g15
ssI219
(dp233
g2
F76.2917
sg3
I0
sg4
F32.0
sg5
I3
sg6
I0
sg7
I1
sg8
I1
sg9
g15
sg10
I1
sg11
I0
sg12
I11813
sg13
I0
sg14
F3.15
ssI220
(dp234
g2
F10.5
sg3
I2
sg4
F30.0
sg5
I0
sg6
I0
sg7
I2
sg8
I0
sg9
I5
sg10
I0
sg11
I0
sg12
I14208
sg13
I0
sg14
g15
ssI221
(dp235
g2
F8.05
sg3
I2
sg4
F16.0
sg5
I0
sg6
I0
sg7
I3
sg8
I0
sg9
I3
sg10
I1
sg11
I0
sg12
I392089
sg13
I0
sg14
g15
ssI222
(dp236
g2
F13.0
sg3
I2
sg4
F27.0
sg5
I0
sg6
I0
sg7
I2
sg8
I0
sg9
g15
sg10
I0
sg11
I0
sg12
I220367
sg13
I0
sg14
g15
ssI223
(dp237
g2
F8.05
sg3
I2
sg4
F51.0
sg5
I0
sg6
I0
sg7
I3
sg8
I0
sg9
g15
sg10
I0
sg11
I0
sg12
I21440
sg13
I0
sg14
g15
ssI224
(dp238
g2
F7.8958
sg3
I2
sg4
g15
sg5
I0
sg6
I0
sg7
I3
sg8
I0
sg9
g15
sg10
I0
sg11
I0
sg12
I349234
sg13
I0
sg14
g15
ssI225
(dp239
g2
F90.0
sg3
I2
sg4
F38.0
sg5
I0
sg6
I0
sg7
I1
sg8
I0
sg9
g15
sg10
I1
sg11
I1
sg12
I19943
sg13
I1
sg14
F2.93
ssI226
(dp240
g2
F9.35
sg3
I2
sg4
F22.0
sg5
I0
sg6
I0
sg7
I3
sg8
I0
sg9
I6
sg10
I0
sg11
I0
sg12
I4348
sg13
I0
sg14
g15
ssI227
(dp241
g2
F10.5
sg3
I2
sg4
F19.0
sg5
I0
sg6
I0
sg7
I2
sg8
I0
sg9
I6
sg10
I1
sg11
I0
sg12
I751
sg13
I0
sg14
g15
ssI228
(dp242
g2
F7.25
sg3
I2
sg4
F20.5
sg5
I0
sg6
I0
sg7
I3
sg8
I0
sg9
I2
sg10
I0
sg11
I0
sg12
I21173
sg13
I0
sg14
g15
ssI229
(dp243
g2
F13.0
sg3
I2
sg4
F18.0
sg5
I0
sg6
I0
sg7
I2
sg8
I0
sg9
g15
sg10
I0
sg11
I0
sg12
I236171
sg13
I0
sg14
g15
ssI230
(dp244
g2
F25.4667
sg3
I2
sg4
g15
sg5
I3
sg6
I1
sg7
I3
sg8
I1
sg9
g15
sg10
I0
sg11
I4
sg12
I4133
sg13
I3
sg14
g15
ssI231
(dp245
g2
F83.475
sg3
I2
sg4
F35.0
sg5
I1
sg6
I0
sg7
I1
sg8
I1
sg9
g15
sg10
I1
sg11
I1
sg12
I36973
sg13
I1
sg14
F2.83
ssI232
(dp246
g2
F7.775
sg3
I2
sg4
F29.0
sg5
I0
sg6
I0
sg7
I3
sg8
I0
sg9
g15
sg10
I0
sg11
I0
sg12
I347067
sg13
I0
sg14
g15
ssI233
(dp247
g2
F13.5
sg3
I2
sg4
F59.0
sg5
I0
sg6
I0
sg7
I2
sg8
I0
sg9
g15
sg10
I0
sg11
I0
sg12
I237442
sg13
I0
sg14
g15
ssI234
(dp248
g2
F31.3875
sg3
I2
sg4
F5.0
sg5
I3
sg6
I2
sg7
I3
sg8
I1
sg9
g15
sg10
I1
sg11
I6
sg12
I347077
sg13
I4
sg14
g15
ssI235
(dp249
g2
F10.5
sg3
I2
sg4
F24.0
sg5
I0
sg6
I0
sg7
I2
sg8
I0
sg9
I1
sg10
I0
sg11
I0
sg12
I29566
sg13
I0
sg14
g15
ssI236
(dp250
g2
F7.55
sg3
I2
sg4
g15
sg5
I3
sg6
I0
sg7
I3
sg8
I1
sg9
I5
sg10
I0
sg11
I0
sg12
I6609
sg13
I0
sg14
g15
ssI237
(dp251
g2
F26.0
sg3
I2
sg4
F44.0
sg5
I0
sg6
I0
sg7
I2
sg8
I0
sg9
g15
sg10
I0
sg11
I1
sg12
I26707
sg13
I1
sg14
g15
ssI238
(dp252
g2
F26.25
sg3
I2
sg4
F8.0
sg5
I3
sg6
I2
sg7
I2
sg8
I1
sg9
I1
sg10
I1
sg11
I2
sg12
I31921
sg13
I0
sg14
g15
ssI239
(dp253
g2
F10.5
sg3
I2
sg4
F19.0
sg5
I0
sg6
I0
sg7
I2
sg8
I0
sg9
g15
sg10
I0
sg11
I0
sg12
I28665
sg13
I0
sg14
g15
ssI240
(dp254
g2
F12.275
sg3
I2
sg4
F33.0
sg5
I0
sg6
I0
sg7
I2
sg8
I0
sg9
I6
sg10
I0
sg11
I0
sg12
I1585
sg13
I0
sg14
g15
ssI241
(dp255
g2
F14.4542
sg3
I0
sg4
g15
sg5
I3
sg6
I0
sg7
I3
sg8
I1
sg9
g15
sg10
I0
sg11
I1
sg12
I2665
sg13
I1
sg14
g15
ssI242
(dp256
g2
F15.5
sg3
I1
sg4
g15
sg5
I3
sg6
I0
sg7
I3
sg8
I1
sg9
g15
sg10
I1
sg11
I1
sg12
I367230
sg13
I1
sg14
g15
ssI243
(dp257
g2
F10.5
sg3
I2
sg4
F29.0
sg5
I0
sg6
I0
sg7
I2
sg8
I0
sg9
I5
sg10
I0
sg11
I0
sg12
I14263
sg13
I0
sg14
g15
ssI244
(dp258
g2
F7.125
sg3
I2
sg4
F22.0
sg5
I0
sg6
I0
sg7
I3
sg8
I0
sg9
I4
sg10
I0
sg11
I0
sg12
I3101275
sg13
I0
sg14
g15
ssI245
(dp259
g2
F7.225
sg3
I0
sg4
F30.0
sg5
I0
sg6
I0
sg7
I3
sg8
I0
sg9
g15
sg10
I0
sg11
I0
sg12
I2694
sg13
I0
sg14
g15
ssI246
(dp260
g2
F90.0
sg3
I1
sg4
F44.0
sg5
I4
sg6
I0
sg7
I1
sg8
I0
sg9
g15
sg10
I0
sg11
I2
sg12
I19928
sg13
I2
sg14
F2.78
ssI247
(dp261
g2
F7.775
sg3
I2
sg4
F25.0
sg5
I3
sg6
I0
sg7
I3
sg8
I1
sg9
g15
sg10
I0
sg11
I0
sg12
I347071
sg13
I0
sg14
g15
ssI248
(dp262
g2
F14.5
sg3
I2
sg4
F24.0
sg5
I1
sg6
I2
sg7
I2
sg8
I1
sg9
g15
sg10
I1
sg11
I2
sg12
I250649
sg13
I0
sg14
g15
ssI249
(dp263
g2
F52.5542
sg3
I2
sg4
F37.0
sg5
I0
sg6
I1
sg7
I1
sg8
I0
sg9
g15
sg10
I1
sg11
I2
sg12
I11751
sg13
I1
sg14
F3.35
ssI250
(dp264
g2
F26.0
sg3
I2
sg4
F54.0
sg5
I4
sg6
I0
sg7
I2
sg8
I0
sg9
g15
sg10
I0
sg11
I1
sg12
I244252
sg13
I1
sg14
g15
ssI251
(dp265
g2
F7.25
sg3
I2
sg4
g15
sg5
I0
sg6
I0
sg7
I3
sg8
I0
sg9
g15
sg10
I0
sg11
I0
sg12
I362316
sg13
I0
sg14
g15
ssI252
(dp266
g2
F10.4625
sg3
I2
sg4
F29.0
sg5
I1
sg6
I1
sg7
I3
sg8
I1
sg9
g15
sg10
I0
sg11
I2
sg12
I347054
sg13
I1
sg14
F6.6
ssI253
(dp267
g2
F26.55
sg3
I2
sg4
F62.0
sg5
I0
sg6
I0
sg7
I1
sg8
I0
sg9
g15
sg10
I0
sg11
I0
sg12
I113514
sg13
I0
sg14
F2.87
ssI254
(dp268
g2
F16.1
sg3
I2
sg4
F30.0
sg5
I0
sg6
I0
sg7
I3
sg8
I0
sg9
I2
sg10
I0
sg11
I1
sg12
I3336
sg13
I1
sg14
g15
ssI255
(dp269
g2
F20.2125
sg3
I2
sg4
F41.0
sg5
I1
sg6
I2
sg7
I3
sg8
I1
sg9
g15
sg10
I0
sg11
I2
sg12
I370129
sg13
I0
sg14
g15
ssI256
(dp270
g2
F15.2458
sg3
I0
sg4
F29.0
sg5
I1
sg6
I2
sg7
I3
sg8
I1
sg9
g15
sg10
I1
sg11
I2
sg12
I2650
sg13
I0
sg14
g15
ssI257
(dp271
g2
F79.2
sg3
I0
sg4
g15
sg5
I1
sg6
I0
sg7
I1
sg8
I1
sg9
I0
sg10
I1
sg11
I0
sg12
I17585
sg13
I0
sg14
g15
ssI258
(dp272
g2
F86.5
sg3
I2
sg4
F30.0
sg5
I3
sg6
I0
sg7
I1
sg8
I1
sg9
g15
sg10
I1
sg11
I0
sg12
I110152
sg13
I0
sg14
F1.77
ssI259
(dp273
g2
F512.3292
sg3
I0
sg4
F35.0
sg5
I3
sg6
I0
sg7
I1
sg8
I1
sg9
I0
sg10
I1
sg11
I0
sg12
I17755
sg13
I0
sg14
g15
ssI260
(dp274
g2
F26.0
sg3
I2
sg4
F50.0
sg5
I1
sg6
I1
sg7
I2
sg8
I1
sg9
g15
sg10
I1
sg11
I1
sg12
I230433
sg13
I0
sg14
g15
ssI261
(dp275
g2
F7.75
sg3
I1
sg4
g15
sg5
I0
sg6
I0
sg7
I3
sg8
I0
sg9
g15
sg10
I0
sg11
I0
sg12
I384461
sg13
I0
sg14
g15
ssI262
(dp276
g2
F31.3875
sg3
I2
sg4
F3.0
sg5
I2
sg6
I2
sg7
I3
sg8
I0
sg9
g15
sg10
I1
sg11
I6
sg12
I347077
sg13
I4
sg14
g15
ssI263
(dp277
g2
F79.65
sg3
I2
sg4
F52.0
sg5
I0
sg6
I1
sg7
I1
sg8
I0
sg9
g15
sg10
I0
sg11
I2
sg12
I110413
sg13
I1
sg14
F4.67
ssI264
(dp278
g2
F0.0
sg3
I2
sg4
F40.0
sg5
I0
sg6
I0
sg7
I1
sg8
I0
sg9
g15
sg10
I0
sg11
I0
sg12
I112059
sg13
I0
sg14
F1.94
ssI265
(dp279
g2
F7.75
sg3
I1
sg4
g15
sg5
I3
sg6
I0
sg7
I3
sg8
I1
sg9
g15
sg10
I0
sg11
I0
sg12
I382649
sg13
I0
sg14
g15
ssI266
(dp280
g2
F10.5
sg3
I2
sg4
F36.0
sg5
I0
sg6
I0
sg7
I2
sg8
I0
sg9
I1
sg10
I0
sg11
I0
sg12
I17248
sg13
I0
sg14
g15
ssI267
(dp281
g2
F39.6875
sg3
I2
sg4
F16.0
sg5
I0
sg6
I1
sg7
I3
sg8
I0
sg9
g15
sg10
I0
sg11
I5
sg12
I3101295
sg13
I4
sg14
g15
ssI268
(dp282
g2
F7.775
sg3
I2
sg4
F25.0
sg5
I0
sg6
I0
sg7
I3
sg8
I0
sg9
g15
sg10
I1
sg11
I1
sg12
I347083
sg13
I1
sg14
g15
ssI269
(dp283
g2
F153.4625
sg3
I2
sg4
F58.0
sg5
I1
sg6
I1
sg7
I1
sg8
I1
sg9
I0
sg10
I1
sg11
I1
sg12
I17582
sg13
I0
sg14
F2.125
ssI270
(dp284
g2
F135.6333
sg3
I2
sg4
F35.0
sg5
I3
sg6
I0
sg7
I1
sg8
I1
sg9
I0
sg10
I1
sg11
I0
sg12
I17760
sg13
I0
sg14
F2.99
ssI271
(dp285
g2
F31.0
sg3
I2
sg4
g15
sg5
I0
sg6
I0
sg7
I1
sg8
I0
sg9
g15
sg10
I0
sg11
I0
sg12
I113798
sg13
I0
sg14
g15
ssI272
(dp286
g2
F0.0
sg3
I2
sg4
F25.0
sg5
I0
sg6
I0
sg7
I3
sg8
I0
sg9
I-2
sg10
I1
sg11
I0
sg12
g15
sg13
I0
sg14
g15
ssI273
(dp287
g2
F19.5
sg3
I2
sg4
F41.0
sg5
I1
sg6
I1
sg7
I2
sg8
I1
sg9
g15
sg10
I1
sg11
I1
sg12
I250644
sg13
I0
sg14
g15
ssI274
(dp288
g2
F29.7
sg3
I0
sg4
F37.0
sg5
I0
sg6
I1
sg7
I1
sg8
I0
sg9
I0
sg10
I0
sg11
I1
sg12
I17596
sg13
I0
sg14
F2.118
ssI275
(dp289
g2
F7.75
sg3
I1
sg4
g15
sg5
I3
sg6
I0
sg7
I3
sg8
I1
sg9
g15
sg10
I1
sg11
I0
sg12
I370375
sg13
I0
sg14
g15
ssI276
(dp290
g2
F77.9583
sg3
I2
sg4
F63.0
sg5
I3
sg6
I0
sg7
I1
sg8
I1
sg9
g15
sg10
I1
sg11
I1
sg12
I13502
sg13
I1
sg14
F3.7
ssI277
(dp291
g2
F7.75
sg3
I2
sg4
F45.0
sg5
I3
sg6
I0
sg7
I3
sg8
I1
sg9
g15
sg10
I0
sg11
I0
sg12
I347073
sg13
I0
sg14
g15
ssI278
(dp292
g2
F0.0
sg3
I2
sg4
g15
sg5
I0
sg6
I0
sg7
I2
sg8
I0
sg9
g15
sg10
I0
sg11
I0
sg12
I239853
sg13
I0
sg14
g15
ssI279
(dp293
g2
F29.125
sg3
I1
sg4
F7.0
sg5
I2
sg6
I1
sg7
I3
sg8
I0
sg9
g15
sg10
I0
sg11
I5
sg12
I382652
sg13
I4
sg14
g15
ssI280
(dp294
g2
F20.25
sg3
I2
sg4
F35.0
sg5
I1
sg6
I1
sg7
I3
sg8
I1
sg9
I1
sg10
I1
sg11
I2
sg12
I2673
sg13
I1
sg14
g15
ssI281
(dp295
g2
F7.75
sg3
I1
sg4
F65.0
sg5
I0
sg6
I0
sg7
I3
sg8
I0
sg9
g15
sg10
I0
sg11
I0
sg12
I336439
sg13
I0
sg14
g15
ssI282
(dp296
g2
F7.8542
sg3
I2
sg4
F28.0
sg5
I0
sg6
I0
sg7
I3
sg8
I0
sg9
g15
sg10
I0
sg11
I0
sg12
I347464
sg13
I0
sg14
g15
ssI283
(dp297
g2
F9.5
sg3
I2
sg4
F16.0
sg5
I4
sg6
I0
sg7
I3
sg8
I0
sg9
g15
sg10
I0
sg11
I0
sg12
I345778
sg13
I0
sg14
g15
ssI284
(dp298
g2
F8.05
sg3
I2
sg4
F19.0
sg5
I0
sg6
I0
sg7
I3
sg8
I0
sg9
I2
sg10
I1
sg11
I0
sg12
I10482
sg13
I0
sg14
g15
ssI285
(dp299
g2
F26.0
sg3
I2
sg4
g15
sg5
I0
sg6
I0
sg7
I1
sg8
I0
sg9
g15
sg10
I0
sg11
I0
sg12
I113056
sg13
I0
sg14
F0.19
ssI286
(dp300
g2
F8.6625
sg3
I0
sg4
F33.0
sg5
I0
sg6
I0
sg7
I3
sg8
I0
sg9
g15
sg10
I0
sg11
I0
sg12
I349239
sg13
I0
sg14
g15
ssI287
(dp301
g2
F9.5
sg3
I2
sg4
F30.0
sg5
I4
sg6
I0
sg7
I3
sg8
I0
sg9
g15
sg10
I1
sg11
I0
sg12
I345774
sg13
I0
sg14
g15
ssI288
(dp302
g2
F7.8958
sg3
I2
sg4
F22.0
sg5
I0
sg6
I0
sg7
I3
sg8
I0
sg9
g15
sg10
I0
sg11
I0
sg12
I349206
sg13
I0
sg14
g15
ssI289
(dp303
g2
F13.0
sg3
I2
sg4
F42.0
sg5
I0
sg6
I0
sg7
I2
sg8
I0
sg9
g15
sg10
I1
sg11
I0
sg12
I237798
sg13
I0
sg14
g15
ssI290
(dp304
g2
F7.75
sg3
I1
sg4
F22.0
sg5
I3
sg6
I0
sg7
I3
sg8
I1
sg9
g15
sg10
I1
sg11
I0
sg12
I370373
sg13
I0
sg14
g15
ssI291
(dp305
g2
F78.85
sg3
I2
sg4
F26.0
sg5
I3
sg6
I0
sg7
I1
sg8
I1
sg9
g15
sg10
I1
sg11
I0
sg12
I19877
sg13
I0
sg14
g15
ssI292
(dp306
g2
F91.0792
sg3
I0
sg4
F19.0
sg5
I1
sg6
I0
sg7
I1
sg8
I1
sg9
g15
sg10
I1
sg11
I1
sg12
I11967
sg13
I1
sg14
F1.49
ssI293
(dp307
g2
F12.875
sg3
I0
sg4
F36.0
sg5
I0
sg6
I0
sg7
I2
sg8
I0
sg9
I6
sg10
I0
sg11
I0
sg12
I2163
sg13
I0
sg14
F3.0
ssI294
(dp308
g2
F8.85
sg3
I2
sg4
F24.0
sg5
I3
sg6
I0
sg7
I3
sg8
I1
sg9
g15
sg10
I0
sg11
I0
sg12
I349236
sg13
I0
sg14
g15
ssI295
(dp309
g2
F7.8958
sg3
I2
sg4
F24.0
sg5
I0
sg6
I0
sg7
I3
sg8
I0
sg9
g15
sg10
I0
sg11
I0
sg12
I349233
sg13
I0
sg14
g15
ssI296
(dp310
g2
F27.7208
sg3
I0
sg4
g15
sg5
I0
sg6
I0
sg7
I1
sg8
I0
sg9
I0
sg10
I0
sg11
I0
sg12
I17612
sg13
I0
sg14
g15
ssI297
(dp311
g2
F7.2292
sg3
I0
sg4
F23.5
sg5
I0
sg6
I0
sg7
I3
sg8
I0
sg9
g15
sg10
I0
sg11
I0
sg12
I2693
sg13
I0
sg14
g15
ssI298
(dp312
g2
F151.55
sg3
I2
sg4
F2.0
sg5
I3
sg6
I2
sg7
I1
sg8
I1
sg9
g15
sg10
I0
sg11
I3
sg12
I113781
sg13
I1
sg14
F2.24
ssI299
(dp313
g2
F30.5
sg3
I2
sg4
g15
sg5
I0
sg6
I0
sg7
I1
sg8
I0
sg9
g15
sg10
I1
sg11
I0
sg12
I19988
sg13
I0
sg14
F2.106
ssI300
(dp314
g2
F247.5208
sg3
I0
sg4
F50.0
sg5
I1
sg6
I1
sg7
I1
sg8
I1
sg9
I0
sg10
I1
sg11
I1
sg12
I17558
sg13
I0
sg14
F1.59
ssI301
(dp315
g2
F7.75
sg3
I1
sg4
g15
sg5
I3
sg6
I0
sg7
I3
sg8
I1
sg9
g15
sg10
I1
sg11
I0
sg12
I9234
sg13
I0
sg14
g15
ssI302
(dp316
g2
F23.25
sg3
I1
sg4
g15
sg5
I0
sg6
I0
sg7
I3
sg8
I0
sg9
g15
sg10
I1
sg11
I2
sg12
I367226
sg13
I2
sg14
g15
ssI303
(dp317
g2
F0.0
sg3
I2
sg4
F19.0
sg5
I0
sg6
I0
sg7
I3
sg8
I0
sg9
I-2
sg10
I0
sg11
I0
sg12
g15
sg13
I0
sg14
g15
ssI304
(dp318
g2
F12.35
sg3
I1
sg4
g15
sg5
I3
sg6
I0
sg7
I2
sg8
I1
sg9
g15
sg10
I1
sg11
I0
sg12
I226593
sg13
I0
sg14
F4.101
ssI305
(dp319
g2
F8.05
sg3
I2
sg4
g15
sg5
I0
sg6
I0
sg7
I3
sg8
I0
sg9
I2
sg10
I0
sg11
I0
sg12
I2466
sg13
I0
sg14
g15
ssI306
(dp320
g2
F151.55
sg3
I2
sg4
F0.92
sg5
I2
sg6
I2
sg7
I1
sg8
I0
sg9
g15
sg10
I1
sg11
I3
sg12
I113781
sg13
I1
sg14
F2.24
ssI307
(dp321
g2
F110.8833
sg3
I0
sg4
g15
sg5
I3
sg6
I0
sg7
I1
sg8
I1
sg9
g15
sg10
I1
sg11
I0
sg12
I17421
sg13
I0
sg14
g15
ssI308
(dp322
g2
F108.9
sg3
I0
sg4
F17.0
sg5
I4
sg6
I0
sg7
I1
sg8
I1
sg9
I0
sg10
I1
sg11
I1
sg12
I17758
sg13
I1
sg14
F2.65
ssI309
(dp323
g2
F24.0
sg3
I0
sg4
F30.0
sg5
I0
sg6
I0
sg7
I2
sg8
I0
sg9
I6
sg10
I0
sg11
I1
sg12
I3381
sg13
I1
sg14
g15
ssI310
(dp324
g2
F56.9292
sg3
I0
sg4
F30.0
sg5
I3
sg6
I0
sg7
I1
sg8
I1
sg9
I0
sg10
I1
sg11
I0
sg12
I17485
sg13
I0
sg14
F4.36
ssI311
(dp325
g2
F83.1583
sg3
I0
sg4
F24.0
sg5
I3
sg6
I0
sg7
I1
sg8
I1
sg9
g15
sg10
I1
sg11
I0
sg12
I11767
sg13
I0
sg14
F2.54
ssI312
(dp326
g2
F262.375
sg3
I0
sg4
F18.0
sg5
I3
sg6
I2
sg7
I1
sg8
I1
sg9
I0
sg10
I1
sg11
I4
sg12
I17608
sg13
I2
sg14
F1.6125
ssI313
(dp327
g2
F26.0
sg3
I2
sg4
F26.0
sg5
I1
sg6
I1
sg7
I2
sg8
I1
sg9
g15
sg10
I0
sg11
I2
sg12
I250651
sg13
I1
sg14
g15
ssI314
(dp328
g2
F7.8958
sg3
I2
sg4
F28.0
sg5
I0
sg6
I0
sg7
I3
sg8
I0
sg9
g15
sg10
I0
sg11
I0
sg12
I349243
sg13
I0
sg14
g15
ssI315
(dp329
g2
F26.25
sg3
I2
sg4
F43.0
sg5
I0
sg6
I1
sg7
I2
sg8
I0
sg9
I6
sg10
I0
sg11
I2
sg12
I13529
sg13
I1
sg14
g15
ssI316
(dp330
g2
F7.8542
sg3
I2
sg4
F26.0
sg5
I3
sg6
I0
sg7
I3
sg8
I1
sg9
g15
sg10
I1
sg11
I0
sg12
I347470
sg13
I0
sg14
g15
ssI317
(dp331
g2
F26.0
sg3
I2
sg4
F24.0
sg5
I1
sg6
I0
sg7
I2
sg8
I1
sg9
g15
sg10
I1
sg11
I1
sg12
I244367
sg13
I1
sg14
g15
ssI318
(dp332
g2
F14.0
sg3
I2
sg4
F54.0
sg5
I4
sg6
I0
sg7
I2
sg8
I0
sg9
g15
sg10
I0
sg11
I0
sg12
I29011
sg13
I0
sg14
g15
ssI319
(dp333
g2
F164.8667
sg3
I2
sg4
F31.0
sg5
I3
sg6
I2
sg7
I1
sg8
I1
sg9
g15
sg10
I1
sg11
I2
sg12
I36928
sg13
I0
sg14
F2.7
ssI320
(dp334
g2
F134.5
sg3
I0
sg4
F40.0
sg5
I1
sg6
I1
sg7
I1
sg8
I1
sg9
g15
sg10
I1
sg11
I2
sg12
I16966
sg13
I1
sg14
F4.34
ssI321
(dp335
g2
F7.25
sg3
I2
sg4
F22.0
sg5
I0
sg6
I0
sg7
I3
sg8
I0
sg9
I2
sg10
I0
sg11
I0
sg12
I21172
sg13
I0
sg14
g15
ssI322
(dp336
g2
F7.8958
sg3
I2
sg4
F27.0
sg5
I0
sg6
I0
sg7
I3
sg8
I0
sg9
g15
sg10
I0
sg11
I0
sg12
I349219
sg13
I0
sg14
g15
ssI323
(dp337
g2
F12.35
sg3
I1
sg4
F30.0
sg5
I3
sg6
I0
sg7
I2
sg8
I1
sg9
g15
sg10
I1
sg11
I0
sg12
I234818
sg13
I0
sg14
g15
ssI324
(dp338
g2
F29.0
sg3
I2
sg4
F22.0
sg5
I1
sg6
I1
sg7
I2
sg8
I1
sg9
g15
sg10
I1
sg11
I2
sg12
I248738
sg13
I1
sg14
g15
ssI325
(dp339
g2
F69.55
sg3
I2
sg4
g15
sg5
I0
sg6
I2
sg7
I3
sg8
I0
sg9
I1
sg10
I0
sg11
I10
sg12
I2343
sg13
I8
sg14
g15
ssI326
(dp340
g2
F135.6333
sg3
I0
sg4
F36.0
sg5
I3
sg6
I0
sg7
I1
sg8
I1
sg9
I0
sg10
I1
sg11
I0
sg12
I17760
sg13
I0
sg14
F2.32
ssI327
(dp341
g2
F6.2375
sg3
I2
sg4
F61.0
sg5
I0
sg6
I0
sg7
I3
sg8
I0
sg9
g15
sg10
I0
sg11
I0
sg12
I345364
sg13
I0
sg14
g15
ssI328
(dp342
g2
F13.0
sg3
I2
sg4
F36.0
sg5
I1
sg6
I0
sg7
I2
sg8
I1
sg9
g15
sg10
I1
sg11
I0
sg12
I28551
sg13
I0
sg14
F3.0
ssI329
(dp343
g2
F20.525
sg3
I2
sg4
F31.0
sg5
I1
sg6
I1
sg7
I3
sg8
I1
sg9
g15
sg10
I1
sg11
I2
sg12
I363291
sg13
I1
sg14
g15
ssI330
(dp344
g2
F57.9792
sg3
I0
sg4
F16.0
sg5
I3
sg6
I1
sg7
I1
sg8
I1
sg9
g15
sg10
I1
sg11
I1
sg12
I111361
sg13
I0
sg14
F1.18
ssI331
(dp345
g2
F23.25
sg3
I1
sg4
g15
sg5
I3
sg6
I0
sg7
I3
sg8
I1
sg9
g15
sg10
I1
sg11
I2
sg12
I367226
sg13
I2
sg14
g15
ssI332
(dp346
g2
F28.5
sg3
I2
sg4
F45.5
sg5
I0
sg6
I0
sg7
I1
sg8
I0
sg9
g15
sg10
I0
sg11
I0
sg12
I113043
sg13
I0
sg14
F2.124
ssI333
(dp347
g2
F153.4625
sg3
I2
sg4
F38.0
sg5
I0
sg6
I1
sg7
I1
sg8
I0
sg9
I0
sg10
I0
sg11
I1
sg12
I17582
sg13
I0
sg14
F2.91
ssI334
(dp348
g2
F18.0
sg3
I2
sg4
F16.0
sg5
I4
sg6
I0
sg7
I3
sg8
I0
sg9
g15
sg10
I0
sg11
I2
sg12
I345764
sg13
I2
sg14
g15
ssI335
(dp349
g2
F133.65
sg3
I2
sg4
g15
sg5
I1
sg6
I0
sg7
I1
sg8
I1
sg9
I0
sg10
I1
sg11
I1
sg12
I17611
sg13
I1
sg14
g15
ssI336
(dp350
g2
F7.8958
sg3
I2
sg4
g15
sg5
I0
sg6
I0
sg7
I3
sg8
I0
sg9
g15
sg10
I0
sg11
I0
sg12
I349225
sg13
I0
sg14
g15
ssI337
(dp351
g2
F66.6
sg3
I2
sg4
F29.0
sg5
I0
sg6
I0
sg7
I1
sg8
I0
sg9
g15
sg10
I0
sg11
I1
sg12
I113776
sg13
I1
sg14
F2.2
ssI338
(dp352
g2
F134.5
sg3
I0
sg4
F41.0
sg5
I3
sg6
I0
sg7
I1
sg8
I1
sg9
g15
sg10
I1
sg11
I0
sg12
I16966
sg13
I0
sg14
F4.4
ssI339
(dp353
g2
F8.05
sg3
I2
sg4
F45.0
sg5
I0
sg6
I0
sg7
I3
sg8
I0
sg9
g15
sg10
I1
sg11
I0
sg12
I7598
sg13
I0
sg14
g15
ssI340
(dp354
g2
F35.5
sg3
I2
sg4
F45.0
sg5
I0
sg6
I0
sg7
I1
sg8
I0
sg9
g15
sg10
I0
sg11
I0
sg12
I113784
sg13
I0
sg14
g15
ssI341
(dp355
g2
F26.0
sg3
I2
sg4
F2.0
sg5
I2
sg6
I1
sg7
I2
sg8
I0
sg9
g15
sg10
I1
sg11
I2
sg12
I230080
sg13
I1
sg14
F5.2
ssI342
(dp356
g2
F263.0
sg3
I2
sg4
F24.0
sg5
I3
sg6
I2
sg7
I1
sg8
I1
sg9
g15
sg10
I1
sg11
I5
sg12
I19950
sg13
I3
sg14
F2.25
ssI343
(dp357
g2
F13.0
sg3
I2
sg4
F28.0
sg5
I0
sg6
I0
sg7
I2
sg8
I0
sg9
g15
sg10
I0
sg11
I0
sg12
I248740
sg13
I0
sg14
g15
ssI344
(dp358
g2
F13.0
sg3
I2
sg4
F25.0
sg5
I0
sg6
I0
sg7
I2
sg8
I0
sg9
g15
sg10
I0
sg11
I0
sg12
I244361
sg13
I0
sg14
g15
ssI345
(dp359
g2
F13.0
sg3
I2
sg4
F36.0
sg5
I0
sg6
I0
sg7
I2
sg8
I0
sg9
g15
sg10
I0
sg11
I0
sg12
I229236
sg13
I0
sg14
g15
ssI346
(dp360
g2
F13.0
sg3
I2
sg4
F24.0
sg5
I3
sg6
I0
sg7
I2
sg8
I1
sg9
g15
sg10
I1
sg11
I0
sg12
I248733
sg13
I0
sg14
F5.33
ssI347
(dp361
g2
F13.0
sg3
I2
sg4
F40.0
sg5
I3
sg6
I0
sg7
I2
sg8
I1
sg9
g15
sg10
I1
sg11
I0
sg12
I31418
sg13
I0
sg14
g15
ssI348
(dp362
g2
F16.1
sg3
I2
sg4
g15
sg5
I1
sg6
I0
sg7
I3
sg8
I1
sg9
g15
sg10
I1
sg11
I1
sg12
I386525
sg13
I1
sg14
g15
ssI349
(dp363
g2
F15.9
sg3
I2
sg4
F3.0
sg5
I2
sg6
I1
sg7
I3
sg8
I0
sg9
I1
sg10
I1
sg11
I2
sg12
I37671
sg13
I1
sg14
g15
ssI350
(dp364
g2
F8.6625
sg3
I2
sg4
F42.0
sg5
I0
sg6
I0
sg7
I3
sg8
I0
sg9
g15
sg10
I0
sg11
I0
sg12
I315088
sg13
I0
sg14
g15
ssI351
(dp365
g2
F9.225
sg3
I2
sg4
F23.0
sg5
I0
sg6
I0
sg7
I3
sg8
I0
sg9
g15
sg10
I0
sg11
I0
sg12
I7267
sg13
I0
sg14
g15
ssI352
(dp366
g2
F35.0
sg3
I2
sg4
g15
sg5
I0
sg6
I0
sg7
I1
sg8
I0
sg9
g15
sg10
I0
sg11
I0
sg12
I113510
sg13
I0
sg14
F2.128
ssI353
(dp367
g2
F7.2292
sg3
I0
sg4
F15.0
sg5
I0
sg6
I1
sg7
I3
sg8
I0
sg9
g15
sg10
I0
sg11
I2
sg12
I2695
sg13
I1
sg14
g15
ssI354
(dp368
g2
F17.8
sg3
I2
sg4
F25.0
sg5
I0
sg6
I0
sg7
I3
sg8
I0
sg9
g15
sg10
I0
sg11
I1
sg12
I349237
sg13
I1
sg14
g15
ssI355
(dp369
g2
F7.225
sg3
I0
sg4
g15
sg5
I0
sg6
I0
sg7
I3
sg8
I0
sg9
g15
sg10
I0
sg11
I0
sg12
I2647
sg13
I0
sg14
g15
ssI356
(dp370
g2
F9.5
sg3
I2
sg4
F28.0
sg5
I4
sg6
I0
sg7
I3
sg8
I0
sg9
g15
sg10
I0
sg11
I0
sg12
I345783
sg13
I0
sg14
g15
ssI357
(dp371
g2
F55.0
sg3
I2
sg4
F22.0
sg5
I3
sg6
I1
sg7
I1
sg8
I1
sg9
g15
sg10
I1
sg11
I1
sg12
I113505
sg13
I0
sg14
F4.33
ssI358
(dp372
g2
F13.0
sg3
I2
sg4
F38.0
sg5
I3
sg6
I0
sg7
I2
sg8
I1
sg9
g15
sg10
I0
sg11
I0
sg12
I237671
sg13
I0
sg14
g15
ssI359
(dp373
g2
F7.8792
sg3
I1
sg4
g15
sg5
I3
sg6
I0
sg7
I3
sg8
I1
sg9
g15
sg10
I1
sg11
I0
sg12
I330931
sg13
I0
sg14
g15
ssI360
(dp374
g2
F7.8792
sg3
I1
sg4
g15
sg5
I3
sg6
I0
sg7
I3
sg8
I1
sg9
g15
sg10
I1
sg11
I0
sg12
I330980
sg13
I0
sg14
g15
ssI361
(dp375
g2
F27.9
sg3
I2
sg4
F40.0
sg5
I0
sg6
I4
sg7
I3
sg8
I0
sg9
g15
sg10
I0
sg11
I5
sg12
I347088
sg13
I1
sg14
g15
ssI362
(dp376
g2
F27.7208
sg3
I0
sg4
F29.0
sg5
I4
sg6
I0
sg7
I2
sg8
I0
sg9
I6
sg10
I0
sg11
I1
sg12
I2167
sg13
I1
sg14
g15
ssI363
(dp377
g2
F14.4542
sg3
I0
sg4
F45.0
sg5
I1
sg6
I1
sg7
I3
sg8
I1
sg9
g15
sg10
I0
sg11
I1
sg12
I2691
sg13
I0
sg14
g15
ssI364
(dp378
g2
F7.05
sg3
I2
sg4
F35.0
sg5
I0
sg6
I0
sg7
I3
sg8
I0
sg9
I3
sg10
I0
sg11
I0
sg12
I3101310
sg13
I0
sg14
g15
ssI365
(dp379
g2
F15.5
sg3
I1
sg4
g15
sg5
I0
sg6
I0
sg7
I3
sg8
I0
sg9
g15
sg10
I0
sg11
I1
sg12
I370365
sg13
I1
sg14
g15
ssI366
(dp380
g2
F7.25
sg3
I2
sg4
F30.0
sg5
I0
sg6
I0
sg7
I3
sg8
I0
sg9
I6
sg10
I0
sg11
I0
sg12
I7076
sg13
I0
sg14
g15
ssI367
(dp381
g2
F75.25
sg3
I0
sg4
F60.0
sg5
I1
sg6
I0
sg7
I1
sg8
I1
sg9
g15
sg10
I1
sg11
I1
sg12
I110813
sg13
I1
sg14
F3.37
ssI368
(dp382
g2
F7.2292
sg3
I0
sg4
g15
sg5
I1
sg6
I0
sg7
I3
sg8
I1
sg9
g15
sg10
I1
sg11
I0
sg12
I2626
sg13
I0
sg14
g15
ssI369
(dp383
g2
F7.75
sg3
I1
sg4
g15
sg5
I3
sg6
I0
sg7
I3
sg8
I1
sg9
g15
sg10
I1
sg11
I0
sg12
I14313
sg13
I0
sg14
g15
ssI370
(dp384
g2
F69.3
sg3
I0
sg4
F24.0
sg5
I4
sg6
I0
sg7
I1
sg8
I1
sg9
I0
sg10
I1
sg11
I0
sg12
I17477
sg13
I0
sg14
F1.35
ssI371
(dp385
g2
F55.4417
sg3
I0
sg4
F25.0
sg5
I0
sg6
I0
sg7
I1
sg8
I0
sg9
g15
sg10
I1
sg11
I1
sg12
I11765
sg13
I1
sg14
F4.5
ssI372
(dp386
g2
F6.4958
sg3
I2
sg4
F18.0
sg5
I0
sg6
I0
sg7
I3
sg8
I0
sg9
g15
sg10
I0
sg11
I1
sg12
I3101267
sg13
I1
sg14
g15
ssI373
(dp387
g2
F8.05
sg3
I2
sg4
F19.0
sg5
I0
sg6
I0
sg7
I3
sg8
I0
sg9
g15
sg10
I0
sg11
I0
sg12
I323951
sg13
I0
sg14
g15
ssI374
(dp388
g2
F135.6333
sg3
I0
sg4
F22.0
sg5
I0
sg6
I0
sg7
I1
sg8
I0
sg9
I0
sg10
I0
sg11
I0
sg12
I17760
sg13
I0
sg14
g15
ssI375
(dp389
g2
F21.075
sg3
I2
sg4
F3.0
sg5
I3
sg6
I1
sg7
I3
sg8
I1
sg9
g15
sg10
I0
sg11
I4
sg12
I349909
sg13
I3
sg14
g15
ssI376
(dp390
g2
F82.1708
sg3
I0
sg4
g15
sg5
I1
sg6
I0
sg7
I1
sg8
I1
sg9
I0
sg10
I1
sg11
I1
sg12
I17604
sg13
I1
sg14
g15
ssI377
(dp391
g2
F7.25
sg3
I2
sg4
F22.0
sg5
I3
sg6
I0
sg7
I3
sg8
I1
sg9
I6
sg10
I1
sg11
I0
sg12
I7077
sg13
I0
sg14
g15
ssI378
(dp392
g2
F211.5
sg3
I0
sg4
F27.0
sg5
I0
sg6
I2
sg7
I1
sg8
I0
sg9
g15
sg10
I0
sg11
I2
sg12
I113503
sg13
I0
sg14
F2.82
ssI379
(dp393
g2
F4.0125
sg3
I0
sg4
F20.0
sg5
I0
sg6
I0
sg7
I3
sg8
I0
sg9
g15
sg10
I0
sg11
I0
sg12
I2648
sg13
I0
sg14
g15
ssI380
(dp394
g2
F7.775
sg3
I2
sg4
F19.0
sg5
I0
sg6
I0
sg7
I3
sg8
I0
sg9
g15
sg10
I0
sg11
I0
sg12
I347069
sg13
I0
sg14
g15
ssI381
(dp395
g2
F227.525
sg3
I0
sg4
F42.0
sg5
I3
sg6
I0
sg7
I1
sg8
I1
sg9
I0
sg10
I1
sg11
I0
sg12
I17757
sg13
I0
sg14
g15
ssI382
(dp396
g2
F15.7417
sg3
I0
sg4
F1.0
sg5
I3
sg6
I2
sg7
I3
sg8
I1
sg9
g15
sg10
I1
sg11
I2
sg12
I2653
sg13
I0
sg14
g15
ssI383
(dp397
g2
F7.925
sg3
I2
sg4
F32.0
sg5
I0
sg6
I0
sg7
I3
sg8
I0
sg9
I4
sg10
I0
sg11
I0
sg12
I3101293
sg13
I0
sg14
g15
ssI384
(dp398
g2
F52.0
sg3
I2
sg4
F35.0
sg5
I1
sg6
I0
sg7
I1
sg8
I1
sg9
g15
sg10
I1
sg11
I1
sg12
I113789
sg13
I1
sg14
g15
ssI385
(dp399
g2
F7.8958
sg3
I2
sg4
g15
sg5
I0
sg6
I0
sg7
I3
sg8
I0
sg9
g15
sg10
I0
sg11
I0
sg12
I349227
sg13
I0
sg14
g15
ssI386
(dp400
g2
F73.5
sg3
I2
sg4
F18.0
sg5
I0
sg6
I0
sg7
I2
sg8
I0
sg9
I6
sg10
I0
sg11
I0
sg12
I14879
sg13
I0
sg14
g15
ssI387
(dp401
g2
F46.9
sg3
I2
sg4
F1.0
sg5
I2
sg6
I2
sg7
I3
sg8
I0
sg9
I1
sg10
I0
sg11
I7
sg12
I2144
sg13
I5
sg14
g15
ssI388
(dp402
g2
F13.0
sg3
I2
sg4
F36.0
sg5
I3
sg6
I0
sg7
I2
sg8
I1
sg9
g15
sg10
I1
sg11
I0
sg12
I27849
sg13
I0
sg14
g15
ssI389
(dp403
g2
F7.7292
sg3
I1
sg4
g15
sg5
I0
sg6
I0
sg7
I3
sg8
I0
sg9
g15
sg10
I0
sg11
I0
sg12
I367655
sg13
I0
sg14
g15
ssI390
(dp404
g2
F12.0
sg3
I0
sg4
F17.0
sg5
I3
sg6
I0
sg7
I2
sg8
I1
sg9
I6
sg10
I1
sg11
I0
sg12
I1748
sg13
I0
sg14
g15
ssI391
(dp405
g2
F120.0
sg3
I2
sg4
F36.0
sg5
I0
sg6
I2
sg7
I1
sg8
I0
sg9
g15
sg10
I1
sg11
I3
sg12
I113760
sg13
I1
sg14
F1.97
ssI392
(dp406
g2
F7.7958
sg3
I2
sg4
F21.0
sg5
I0
sg6
I0
sg7
I3
sg8
I0
sg9
g15
sg10
I1
sg11
I0
sg12
I350034
sg13
I0
sg14
g15
ssI393
(dp407
g2
F7.925
sg3
I2
sg4
F28.0
sg5
I0
sg6
I0
sg7
I3
sg8
I0
sg9
g15
sg10
I0
sg11
I2
sg12
I3101277
sg13
I2
sg14
g15
ssI394
(dp408
g2
F113.275
sg3
I0
sg4
F23.0
sg5
I3
sg6
I0
sg7
I1
sg8
I1
sg9
g15
sg10
I1
sg11
I1
sg12
I35273
sg13
I1
sg14
F3.36
ssI395
(dp409
g2
F16.7
sg3
I2
sg4
F24.0
sg5
I1
sg6
I2
sg7
I3
sg8
I1
sg9
I6
sg10
I1
sg11
I2
sg12
I9549
sg13
I0
sg14
F6.6
ssI396
(dp410
g2
F7.7958
sg3
I2
sg4
F22.0
sg5
I0
sg6
I0
sg7
I3
sg8
I0
sg9
g15
sg10
I0
sg11
I0
sg12
I350052
sg13
I0
sg14
g15
ssI397
(dp411
g2
F7.8542
sg3
I2
sg4
F31.0
sg5
I3
sg6
I0
sg7
I3
sg8
I1
sg9
g15
sg10
I0
sg11
I0
sg12
I350407
sg13
I0
sg14
g15
ssI398
(dp412
g2
F26.0
sg3
I2
sg4
F46.0
sg5
I0
sg6
I0
sg7
I2
sg8
I0
sg9
g15
sg10
I0
sg11
I0
sg12
I28403
sg13
I0
sg14
g15
ssI399
(dp413
g2
F10.5
sg3
I2
sg4
F23.0
sg5
I4
sg6
I0
sg7
I2
sg8
I0
sg9
g15
sg10
I0
sg11
I0
sg12
I244278
sg13
I0
sg14
g15
ssI400
(dp414
g2
F12.65
sg3
I2
sg4
F28.0
sg5
I1
sg6
I0
sg7
I2
sg8
I1
sg9
g15
sg10
I1
sg11
I0
sg12
I240929
sg13
I0
sg14
g15
ssI401
(dp415
g2
F7.925
sg3
I2
sg4
F39.0
sg5
I0
sg6
I0
sg7
I3
sg8
I0
sg9
I4
sg10
I1
sg11
I0
sg12
I3101289
sg13
I0
sg14
g15
ssI402
(dp416
g2
F8.05
sg3
I2
sg4
F26.0
sg5
I0
sg6
I0
sg7
I3
sg8
I0
sg9
g15
sg10
I0
sg11
I0
sg12
I341826
sg13
I0
sg14
g15
ssI403
(dp417
g2
F9.825
sg3
I2
sg4
F21.0
sg5
I3
sg6
I0
sg7
I3
sg8
I1
sg9
g15
sg10
I0
sg11
I1
sg12
I4137
sg13
I1
sg14
g15
ssI404
(dp418
g2
F15.85
sg3
I2
sg4
F28.0
sg5
I0
sg6
I0
sg7
I3
sg8
I0
sg9
I6
sg10
I0
sg11
I1
sg12
I3101279
sg13
I1
sg14
g15
ssI405
(dp419
g2
F8.6625
sg3
I2
sg4
F20.0
sg5
I3
sg6
I0
sg7
I3
sg8
I1
sg9
g15
sg10
I0
sg11
I0
sg12
I315096
sg13
I0
sg14
g15
ssI406
(dp420
g2
F21.0
sg3
I2
sg4
F34.0
sg5
I0
sg6
I0
sg7
I2
sg8
I0
sg9
g15
sg10
I0
sg11
I1
sg12
I28664
sg13
I1
sg14
g15
ssI407
(dp421
g2
F7.75
sg3
I2
sg4
F51.0
sg5
I0
sg6
I0
sg7
I3
sg8
I0
sg9
g15
sg10
I0
sg11
I0
sg12
I347064
sg13
I0
sg14
g15
ssI408
(dp422
g2
F18.75
sg3
I2
sg4
F3.0
sg5
I2
sg6
I1
sg7
I2
sg8
I0
sg9
g15
sg10
I1
sg11
I2
sg12
I29106
sg13
I1
sg14
g15
ssI409
(dp423
g2
F7.775
sg3
I2
sg4
F21.0
sg5
I0
sg6
I0
sg7
I3
sg8
I0
sg9
g15
sg10
I0
sg11
I0
sg12
I312992
sg13
I0
sg14
g15
ssI410
(dp424
g2
F25.4667
sg3
I2
sg4
g15
sg5
I3
sg6
I1
sg7
I3
sg8
I1
sg9
g15
sg10
I0
sg11
I4
sg12
I4133
sg13
I3
sg14
g15
ssI411
(dp425
g2
F7.8958
sg3
I2
sg4
g15
sg5
I0
sg6
I0
sg7
I3
sg8
I0
sg9
g15
sg10
I0
sg11
I0
sg12
I349222
sg13
I0
sg14
g15
ssI412
(dp426
g2
F6.8583
sg3
I1
sg4
g15
sg5
I0
sg6
I0
sg7
I3
sg8
I0
sg9
g15
sg10
I0
sg11
I0
sg12
I394140
sg13
I0
sg14
g15
ssI413
(dp427
g2
F90.0
sg3
I1
sg4
F33.0
sg5
I3
sg6
I0
sg7
I1
sg8
I1
sg9
g15
sg10
I1
sg11
I1
sg12
I19928
sg13
I1
sg14
F2.78
ssI414
(dp428
g2
F0.0
sg3
I2
sg4
g15
sg5
I0
sg6
I0
sg7
I2
sg8
I0
sg9
g15
sg10
I0
sg11
I0
sg12
I239853
sg13
I0
sg14
g15
ssI415
(dp429
g2
F7.925
sg3
I2
sg4
F44.0
sg5
I0
sg6
I0
sg7
I3
sg8
I0
sg9
I4
sg10
I1
sg11
I0
sg12
I3101269
sg13
I0
sg14
g15
ssI416
(dp430
g2
F8.05
sg3
I2
sg4
g15
sg5
I1
sg6
I0
sg7
I3
sg8
I1
sg9
g15
sg10
I0
sg11
I0
sg12
I343095
sg13
I0
sg14
g15
ssI417
(dp431
g2
F32.5
sg3
I2
sg4
F34.0
sg5
I1
sg6
I1
sg7
I2
sg8
I1
sg9
g15
sg10
I1
sg11
I2
sg12
I28220
sg13
I1
sg14
g15
ssI418
(dp432
g2
F13.0
sg3
I2
sg4
F18.0
sg5
I3
sg6
I2
sg7
I2
sg8
I1
sg9
g15
sg10
I1
sg11
I2
sg12
I250652
sg13
I0
sg14
g15
ssI419
(dp433
g2
F13.0
sg3
I2
sg4
F30.0
sg5
I0
sg6
I0
sg7
I2
sg8
I0
sg9
g15
sg10
I0
sg11
I0
sg12
I28228
sg13
I0
sg14
g15
ssI420
(dp434
g2
F24.15
sg3
I2
sg4
F10.0
sg5
I4
sg6
I2
sg7
I3
sg8
I1
sg9
g15
sg10
I0
sg11
I2
sg12
I345773
sg13
I0
sg14
g15
ssI421
(dp435
g2
F7.8958
sg3
I0
sg4
g15
sg5
I0
sg6
I0
sg7
I3
sg8
I0
sg9
g15
sg10
I0
sg11
I0
sg12
I349254
sg13
I0
sg14
g15
ssI422
(dp436
g2
F7.7333
sg3
I1
sg4
F21.0
sg5
I0
sg6
I0
sg7
I3
sg8
I0
sg9
I2
sg10
I0
sg11
I0
sg12
I13032
sg13
I0
sg14
g15
ssI423
(dp437
g2
F7.875
sg3
I2
sg4
F29.0
sg5
I0
sg6
I0
sg7
I3
sg8
I0
sg9
g15
sg10
I0
sg11
I0
sg12
I315082
sg13
I0
sg14
g15
ssI424
(dp438
g2
F14.4
sg3
I2
sg4
F28.0
sg5
I1
sg6
I1
sg7
I3
sg8
I1
sg9
g15
sg10
I0
sg11
I2
sg12
I347080
sg13
I1
sg14
g15
ssI425
(dp439
g2
F20.2125
sg3
I2
sg4
F18.0
sg5
I0
sg6
I1
sg7
I3
sg8
I0
sg9
g15
sg10
I0
sg11
I2
sg12
I370129
sg13
I1
sg14
g15
ssI426
(dp440
g2
F7.25
sg3
I2
sg4
g15
sg5
I0
sg6
I0
sg7
I3
sg8
I0
sg9
I6
sg10
I0
sg11
I0
sg12
I34244
sg13
I0
sg14
g15
ssI427
(dp441
g2
F26.0
sg3
I2
sg4
F28.0
sg5
I1
sg6
I0
sg7
I2
sg8
I1
sg9
g15
sg10
I1
sg11
I1
sg12
I2003
sg13
I1
sg14
g15
ssI428
(dp442
g2
F26.0
sg3
I2
sg4
F19.0
sg5
I3
sg6
I0
sg7
I2
sg8
I1
sg9
g15
sg10
I1
sg11
I0
sg12
I250655
sg13
I0
sg14
g15
ssI429
(dp443
g2
F7.75
sg3
I1
sg4
g15
sg5
I0
sg6
I0
sg7
I3
sg8
I0
sg9
g15
sg10
I0
sg11
I0
sg12
I364851
sg13
I0
sg14
g15
ssI430
(dp444
g2
F8.05
sg3
I2
sg4
F32.0
sg5
I0
sg6
I0
sg7
I3
sg8
I0
sg9
I3
sg10
I1
sg11
I0
sg12
I392078
sg13
I0
sg14
F4.1
ssI431
(dp445
g2
F26.55
sg3
I2
sg4
F28.0
sg5
I0
sg6
I0
sg7
I1
sg8
I0
sg9
g15
sg10
I1
sg11
I0
sg12
I110564
sg13
I0
sg14
F2.52
ssI432
(dp446
g2
F16.1
sg3
I2
sg4
g15
sg5
I1
sg6
I0
sg7
I3
sg8
I1
sg9
g15
sg10
I1
sg11
I1
sg12
I376564
sg13
I1
sg14
g15
ssI433
(dp447
g2
F26.0
sg3
I2
sg4
F42.0
sg5
I1
sg6
I0
sg7
I2
sg8
I1
sg9
I6
sg10
I1
sg11
I1
sg12
I3085
sg13
I1
sg14
g15
ssI434
(dp448
g2
F7.125
sg3
I2
sg4
F17.0
sg5
I0
sg6
I0
sg7
I3
sg8
I0
sg9
I4
sg10
I0
sg11
I0
sg12
I3101274
sg13
I0
sg14
g15
ssI435
(dp449
g2
F55.9
sg3
I2
sg4
F50.0
sg5
I0
sg6
I0
sg7
I1
sg8
I0
sg9
g15
sg10
I0
sg11
I1
sg12
I13507
sg13
I1
sg14
F4.44
ssI436
(dp450
g2
F120.0
sg3
I2
sg4
F14.0
sg5
I3
sg6
I2
sg7
I1
sg8
I1
sg9
g15
sg10
I1
sg11
I3
sg12
I113760
sg13
I1
sg14
F1.97
ssI437
(dp451
g2
F34.375
sg3
I2
sg4
F21.0
sg5
I3
sg6
I2
sg7
I3
sg8
I1
sg9
I5
sg10
I0
sg11
I4
sg12
I6608
sg13
I2
sg14
g15
ssI438
(dp452
g2
F18.75
sg3
I2
sg4
F24.0
sg5
I1
sg6
I3
sg7
I2
sg8
I1
sg9
g15
sg10
I1
sg11
I5
sg12
I29106
sg13
I2
sg14
g15
ssI439
(dp453
g2
F263.0
sg3
I2
sg4
F64.0
sg5
I0
sg6
I4
sg7
I1
sg8
I0
sg9
g15
sg10
I0
sg11
I5
sg12
I19950
sg13
I1
sg14
F2.25
ssI440
(dp454
g2
F10.5
sg3
I2
sg4
F31.0
sg5
I0
sg6
I0
sg7
I2
sg8
I0
sg9
I1
sg10
I0
sg11
I0
sg12
I18723
sg13
I0
sg14
g15
ssI441
(dp455
g2
F26.25
sg3
I2
sg4
F45.0
sg5
I1
sg6
I1
sg7
I2
sg8
I1
sg9
I6
sg10
I1
sg11
I2
sg12
I13529
sg13
I1
sg14
g15
ssI442
(dp456
g2
F9.5
sg3
I2
sg4
F20.0
sg5
I0
sg6
I0
sg7
I3
sg8
I0
sg9
g15
sg10
I0
sg11
I0
sg12
I345769
sg13
I0
sg14
g15
ssI443
(dp457
g2
F7.775
sg3
I2
sg4
F25.0
sg5
I0
sg6
I0
sg7
I3
sg8
I0
sg9
g15
sg10
I0
sg11
I1
sg12
I347076
sg13
I1
sg14
g15
ssI444
(dp458
g2
F13.0
sg3
I2
sg4
F28.0
sg5
I4
sg6
I0
sg7
I2
sg8
I1
sg9
g15
sg10
I1
sg11
I0
sg12
I230434
sg13
I0
sg14
g15
ssI445
(dp459
g2
F8.1125
sg3
I2
sg4
g15
sg5
I0
sg6
I0
sg7
I3
sg8
I0
sg9
g15
sg10
I1
sg11
I0
sg12
I65306
sg13
I0
sg14
g15
ssI446
(dp460
g2
F81.8583
sg3
I2
sg4
F4.0
sg5
I2
sg6
I2
sg7
I1
sg8
I0
sg9
g15
sg10
I1
sg11
I2
sg12
I33638
sg13
I0
sg14
F0.34
ssI447
(dp461
g2
F19.5
sg3
I2
sg4
F13.0
sg5
I3
sg6
I1
sg7
I2
sg8
I1
sg9
g15
sg10
I1
sg11
I1
sg12
I250644
sg13
I0
sg14
g15
ssI448
(dp462
g2
F26.55
sg3
I2
sg4
F34.0
sg5
I0
sg6
I0
sg7
I1
sg8
I0
sg9
g15
sg10
I1
sg11
I0
sg12
I113794
sg13
I0
sg14
g15
ssI449
(dp463
g2
F19.2583
sg3
I0
sg4
F5.0
sg5
I3
sg6
I1
sg7
I3
sg8
I1
sg9
g15
sg10
I1
sg11
I3
sg12
I2666
sg13
I2
sg14
g15
ssI450
(dp464
g2
F30.5
sg3
I2
sg4
F52.0
sg5
I4
sg6
I0
sg7
I1
sg8
I0
sg9
g15
sg10
I1
sg11
I0
sg12
I113786
sg13
I0
sg14
F2.104
ssI451
(dp465
g2
F27.75
sg3
I2
sg4
F36.0
sg5
I0
sg6
I2
sg7
I2
sg8
I0
sg9
I1
sg10
I0
sg11
I3
sg12
I34651
sg13
I1
sg14
g15
ssI452
(dp466
g2
F19.9667
sg3
I2
sg4
g15
sg5
I0
sg6
I0
sg7
I3
sg8
I0
sg9
g15
sg10
I0
sg11
I1
sg12
I65303
sg13
I1
sg14
g15
ssI453
(dp467
g2
F27.75
sg3
I0
sg4
F30.0
sg5
I0
sg6
I0
sg7
I1
sg8
I0
sg9
g15
sg10
I0
sg11
I0
sg12
I113051
sg13
I0
sg14
F2.111
ssI454
(dp468
g2
F89.1042
sg3
I0
sg4
F49.0
sg5
I0
sg6
I0
sg7
I1
sg8
I0
sg9
g15
sg10
I1
sg11
I1
sg12
I17453
sg13
I1
sg14
F2.92
ssI455
(dp469
g2
F8.05
sg3
I2
sg4
g15
sg5
I0
sg6
I0
sg7
I3
sg8
I0
sg9
I2
sg10
I0
sg11
I0
sg12
I2817
sg13
I0
sg14
g15
ssI456
(dp470
g2
F7.8958
sg3
I0
sg4
F29.0
sg5
I0
sg6
I0
sg7
I3
sg8
I0
sg9
g15
sg10
I1
sg11
I0
sg12
I349240
sg13
I0
sg14
g15
ssI457
(dp471
g2
F26.55
sg3
I2
sg4
F65.0
sg5
I0
sg6
I0
sg7
I1
sg8
I0
sg9
g15
sg10
I0
sg11
I0
sg12
I13509
sg13
I0
sg14
F4.38
ssI458
(dp472
g2
F51.8625
sg3
I2
sg4
g15
sg5
I1
sg6
I0
sg7
I1
sg8
I1
sg9
g15
sg10
I1
sg11
I1
sg12
I17464
sg13
I1
sg14
F3.21
ssI459
(dp473
g2
F10.5
sg3
I2
sg4
F50.0
sg5
I3
sg6
I0
sg7
I2
sg8
I1
sg9
I6
sg10
I1
sg11
I0
sg12
I13531
sg13
I0
sg14
g15
ssI460
(dp474
g2
F7.75
sg3
I1
sg4
g15
sg5
I0
sg6
I0
sg7
I3
sg8
I0
sg9
g15
sg10
I0
sg11
I0
sg12
I371060
sg13
I0
sg14
g15
ssI461
(dp475
g2
F26.55
sg3
I2
sg4
F48.0
sg5
I0
sg6
I0
sg7
I1
sg8
I0
sg9
g15
sg10
I1
sg11
I0
sg12
I19952
sg13
I0
sg14
F4.12
ssI462
(dp476
g2
F8.05
sg3
I2
sg4
F34.0
sg5
I0
sg6
I0
sg7
I3
sg8
I0
sg9
g15
sg10
I0
sg11
I0
sg12
I364506
sg13
I0
sg14
g15
ssI463
(dp477
g2
F38.5
sg3
I2
sg4
F47.0
sg5
I0
sg6
I0
sg7
I1
sg8
I0
sg9
g15
sg10
I0
sg11
I0
sg12
I111320
sg13
I0
sg14
F4.63
ssI464
(dp478
g2
F13.0
sg3
I2
sg4
F48.0
sg5
I0
sg6
I0
sg7
I2
sg8
I0
sg9
g15
sg10
I0
sg11
I0
sg12
I234360
sg13
I0
sg14
g15
ssI465
(dp479
g2
F8.05
sg3
I2
sg4
g15
sg5
I0
sg6
I0
sg7
I3
sg8
I0
sg9
I6
sg10
I0
sg11
I0
sg12
I2816
sg13
I0
sg14
g15
ssI466
(dp480
g2
F7.05
sg3
I2
sg4
F38.0
sg5
I0
sg6
I0
sg7
I3
sg8
I0
sg9
I3
sg10
I0
sg11
I0
sg12
I3101306
sg13
I0
sg14
g15
ssI467
(dp481
g2
F0.0
sg3
I2
sg4
g15
sg5
I0
sg6
I0
sg7
I2
sg8
I0
sg9
g15
sg10
I0
sg11
I0
sg12
I239853
sg13
I0
sg14
g15
ssI468
(dp482
g2
F26.55
sg3
I2
sg4
F56.0
sg5
I0
sg6
I0
sg7
I1
sg8
I0
sg9
g15
sg10
I0
sg11
I0
sg12
I113792
sg13
I0
sg14
g15
ssI469
(dp483
g2
F7.725
sg3
I1
sg4
g15
sg5
I0
sg6
I0
sg7
I3
sg8
I0
sg9
g15
sg10
I0
sg11
I0
sg12
I36209
sg13
I0
sg14
g15
ssI470
(dp484
g2
F19.2583
sg3
I0
sg4
F0.75
sg5
I3
sg6
I1
sg7
I3
sg8
I1
sg9
g15
sg10
I1
sg11
I3
sg12
I2666
sg13
I2
sg14
g15
ssI471
(dp485
g2
F7.25
sg3
I2
sg4
g15
sg5
I0
sg6
I0
sg7
I3
sg8
I0
sg9
g15
sg10
I0
sg11
I0
sg12
I323592
sg13
I0
sg14
g15
ssI472
(dp486
g2
F8.6625
sg3
I2
sg4
F38.0
sg5
I0
sg6
I0
sg7
I3
sg8
I0
sg9
g15
sg10
I0
sg11
I0
sg12
I315089
sg13
I0
sg14
g15
ssI473
(dp487
g2
F27.75
sg3
I2
sg4
F33.0
sg5
I1
sg6
I2
sg7
I2
sg8
I1
sg9
I1
sg10
I1
sg11
I3
sg12
I34651
sg13
I1
sg14
g15
ssI474
(dp488
g2
F13.7917
sg3
I0
sg4
F23.0
sg5
I1
sg6
I0
sg7
I2
sg8
I1
sg9
I6
sg10
I1
sg11
I0
sg12
I541
sg13
I0
sg14
F3.0
ssI475
(dp489
g2
F9.8375
sg3
I2
sg4
F22.0
sg5
I3
sg6
I0
sg7
I3
sg8
I1
sg9
g15
sg10
I0
sg11
I0
sg12
I7553
sg13
I0
sg14
g15
ssI476
(dp490
g2
F52.0
sg3
I2
sg4
g15
sg5
I0
sg6
I0
sg7
I1
sg8
I0
sg9
g15
sg10
I0
sg11
I0
sg12
I110465
sg13
I0
sg14
F0.14
ssI477
(dp491
g2
F21.0
sg3
I2
sg4
F34.0
sg5
I0
sg6
I0
sg7
I2
sg8
I0
sg9
g15
sg10
I0
sg11
I1
sg12
I31027
sg13
I1
sg14
g15
ssI478
(dp492
g2
F7.0458
sg3
I2
sg4
F29.0
sg5
I0
sg6
I0
sg7
I3
sg8
I0
sg9
g15
sg10
I0
sg11
I1
sg12
I3460
sg13
I1
sg14
g15
ssI479
(dp493
g2
F7.5208
sg3
I2
sg4
F22.0
sg5
I0
sg6
I0
sg7
I3
sg8
I0
sg9
g15
sg10
I0
sg11
I0
sg12
I350060
sg13
I0
sg14
g15
ssI480
(dp494
g2
F12.2875
sg3
I2
sg4
F2.0
sg5
I3
sg6
I1
sg7
I3
sg8
I1
sg9
g15
sg10
I1
sg11
I1
sg12
I3101298
sg13
I0
sg14
g15
ssI481
(dp495
g2
F46.9
sg3
I2
sg4
F9.0
sg5
I2
sg6
I2
sg7
I3
sg8
I0
sg9
I1
sg10
I0
sg11
I7
sg12
I2144
sg13
I5
sg14
g15
ssI482
(dp496
g2
F0.0
sg3
I2
sg4
g15
sg5
I0
sg6
I0
sg7
I2
sg8
I0
sg9
g15
sg10
I0
sg11
I0
sg12
I239854
sg13
I0
sg14
g15
ssI483
(dp497
g2
F8.05
sg3
I2
sg4
F50.0
sg5
I0
sg6
I0
sg7
I3
sg8
I0
sg9
I2
sg10
I0
sg11
I0
sg12
I3594
sg13
I0
sg14
g15
ssI484
(dp498
g2
F9.5875
sg3
I2
sg4
F63.0
sg5
I1
sg6
I0
sg7
I3
sg8
I1
sg9
g15
sg10
I1
sg11
I0
sg12
I4134
sg13
I0
sg14
g15
ssI485
(dp499
g2
F91.0792
sg3
I0
sg4
F25.0
sg5
I0
sg6
I0
sg7
I1
sg8
I0
sg9
g15
sg10
I1
sg11
I1
sg12
I11967
sg13
I1
sg14
F1.49
ssI486
(dp500
g2
F25.4667
sg3
I2
sg4
g15
sg5
I3
sg6
I1
sg7
I3
sg8
I1
sg9
g15
sg10
I0
sg11
I4
sg12
I4133
sg13
I3
sg14
g15
ssI487
(dp501
g2
F90.0
sg3
I2
sg4
F35.0
sg5
I1
sg6
I0
sg7
I1
sg8
I1
sg9
g15
sg10
I1
sg11
I1
sg12
I19943
sg13
I1
sg14
F2.93
ssI488
(dp502
g2
F29.7
sg3
I0
sg4
F58.0
sg5
I0
sg6
I0
sg7
I1
sg8
I0
sg9
g15
sg10
I0
sg11
I0
sg12
I11771
sg13
I0
sg14
F1.37
ssI489
(dp503
g2
F8.05
sg3
I2
sg4
F30.0
sg5
I0
sg6
I0
sg7
I3
sg8
I0
sg9
I2
sg10
I0
sg11
I0
sg12
I18509
sg13
I0
sg14
g15
ssI490
(dp504
g2
F15.9
sg3
I2
sg4
F9.0
sg5
I2
sg6
I1
sg7
I3
sg8
I0
sg9
I1
sg10
I1
sg11
I2
sg12
I37671
sg13
I1
sg14
g15
ssI491
(dp505
g2
F19.9667
sg3
I2
sg4
g15
sg5
I0
sg6
I0
sg7
I3
sg8
I0
sg9
g15
sg10
I0
sg11
I1
sg12
I65304
sg13
I1
sg14
g15
ssI492
(dp506
g2
F7.25
sg3
I2
sg4
F21.0
sg5
I0
sg6
I0
sg7
I3
sg8
I0
sg9
I3
sg10
I0
sg11
I0
sg12
I3101317
sg13
I0
sg14
g15
ssI493
(dp507
g2
F30.5
sg3
I2
sg4
F55.0
sg5
I0
sg6
I0
sg7
I1
sg8
I0
sg9
g15
sg10
I0
sg11
I0
sg12
I113787
sg13
I0
sg14
F2.3
ssI494
(dp508
g2
F49.5042
sg3
I0
sg4
F71.0
sg5
I0
sg6
I0
sg7
I1
sg8
I0
sg9
I0
sg10
I0
sg11
I0
sg12
I17609
sg13
I0
sg14
g15
ssI495
(dp509
g2
F8.05
sg3
I2
sg4
F21.0
sg5
I0
sg6
I0
sg7
I3
sg8
I0
sg9
I6
sg10
I0
sg11
I0
sg12
I45380
sg13
I0
sg14
g15
ssI496
(dp510
g2
F14.4583
sg3
I0
sg4
g15
sg5
I0
sg6
I0
sg7
I3
sg8
I0
sg9
g15
sg10
I0
sg11
I0
sg12
I2627
sg13
I0
sg14
g15
ssI497
(dp511
g2
F78.2667
sg3
I0
sg4
F54.0
sg5
I3
sg6
I0
sg7
I1
sg8
I1
sg9
g15
sg10
I1
sg11
I1
sg12
I36947
sg13
I1
sg14
F3.2
ssI498
(dp512
g2
F15.1
sg3
I2
sg4
g15
sg5
I0
sg6
I0
sg7
I3
sg8
I0
sg9
I1
sg10
I0
sg11
I0
sg12
I6212
sg13
I0
sg14
g15
ssI499
(dp513
g2
F151.55
sg3
I2
sg4
F25.0
sg5
I1
sg6
I2
sg7
I1
sg8
I1
sg9
g15
sg10
I0
sg11
I3
sg12
I113781
sg13
I1
sg14
F2.24
ssI500
(dp514
g2
F7.7958
sg3
I2
sg4
F24.0
sg5
I0
sg6
I0
sg7
I3
sg8
I0
sg9
g15
sg10
I0
sg11
I0
sg12
I350035
sg13
I0
sg14
g15
ssI501
(dp515
g2
F8.6625
sg3
I2
sg4
F17.0
sg5
I0
sg6
I0
sg7
I3
sg8
I0
sg9
g15
sg10
I0
sg11
I0
sg12
I315086
sg13
I0
sg14
g15
ssI502
(dp516
g2
F7.75
sg3
I1
sg4
F21.0
sg5
I3
sg6
I0
sg7
I3
sg8
I1
sg9
g15
sg10
I0
sg11
I0
sg12
I364846
sg13
I0
sg14
g15
ssI503
(dp517
g2
F7.6292
sg3
I1
sg4
g15
sg5
I3
sg6
I0
sg7
I3
sg8
I1
sg9
g15
sg10
I0
sg11
I0
sg12
I330909
sg13
I0
sg14
g15
ssI504
(dp518
g2
F9.5875
sg3
I2
sg4
F37.0
sg5
I3
sg6
I0
sg7
I3
sg8
I1
sg9
g15
sg10
I0
sg11
I0
sg12
I4135
sg13
I0
sg14
g15
ssI505
(dp519
g2
F86.5
sg3
I2
sg4
F16.0
sg5
I3
sg6
I0
sg7
I1
sg8
I1
sg9
g15
sg10
I1
sg11
I0
sg12
I110152
sg13
I0
sg14
F1.79
ssI506
(dp520
g2
F108.9
sg3
I0
sg4
F18.0
sg5
I4
sg6
I0
sg7
I1
sg8
I0
sg9
I0
sg10
I0
sg11
I1
sg12
I17758
sg13
I1
sg14
F2.65
ssI507
(dp521
g2
F26.0
sg3
I2
sg4
F33.0
sg5
I1
sg6
I2
sg7
I2
sg8
I1
sg9
g15
sg10
I1
sg11
I2
sg12
I26360
sg13
I0
sg14
g15
ssI508
(dp522
g2
F26.55
sg3
I2
sg4
g15
sg5
I0
sg6
I0
sg7
I1
sg8
I0
sg9
g15
sg10
I1
sg11
I0
sg12
I111427
sg13
I0
sg14
g15
ssI509
(dp523
g2
F22.525
sg3
I2
sg4
F28.0
sg5
I0
sg6
I0
sg7
I3
sg8
I0
sg9
I6
sg10
I0
sg11
I0
sg12
I4001
sg13
I0
sg14
g15
ssI510
(dp524
g2
F56.4958
sg3
I2
sg4
F26.0
sg5
I0
sg6
I0
sg7
I3
sg8
I0
sg9
g15
sg10
I1
sg11
I0
sg12
I1601
sg13
I0
sg14
g15
ssI511
(dp525
g2
F7.75
sg3
I1
sg4
F29.0
sg5
I0
sg6
I0
sg7
I3
sg8
I0
sg9
g15
sg10
I1
sg11
I0
sg12
I382651
sg13
I0
sg14
g15
ssI512
(dp526
g2
F8.05
sg3
I2
sg4
g15
sg5
I0
sg6
I0
sg7
I3
sg8
I0
sg9
I3
sg10
I0
sg11
I0
sg12
I3101316
sg13
I0
sg14
g15
ssI513
(dp527
g2
F26.2875
sg3
I2
sg4
F36.0
sg5
I0
sg6
I0
sg7
I1
sg8
I0
sg9
I0
sg10
I1
sg11
I0
sg12
I17473
sg13
I0
sg14
F4.25
ssI514
(dp528
g2
F59.4
sg3
I0
sg4
F54.0
sg5
I1
sg6
I0
sg7
I1
sg8
I1
sg9
I0
sg10
I1
sg11
I1
sg12
I17603
sg13
I1
sg14
g15
ssI515
(dp529
g2
F7.4958
sg3
I2
sg4
F24.0
sg5
I0
sg6
I0
sg7
I3
sg8
I0
sg9
g15
sg10
I0
sg11
I0
sg12
I349209
sg13
I0
sg14
g15
ssI516
(dp530
g2
F34.0208
sg3
I2
sg4
F47.0
sg5
I0
sg6
I0
sg7
I1
sg8
I0
sg9
g15
sg10
I0
sg11
I0
sg12
I36967
sg13
I0
sg14
F3.46
ssI517
(dp531
g2
F10.5
sg3
I2
sg4
F34.0
sg5
I1
sg6
I0
sg7
I2
sg8
I1
sg9
I1
sg10
I1
sg11
I0
sg12
I34260
sg13
I0
sg14
F5.33
ssI518
(dp532
g2
F24.15
sg3
I1
sg4
g15
sg5
I0
sg6
I0
sg7
I3
sg8
I0
sg9
g15
sg10
I0
sg11
I0
sg12
I371110
sg13
I0
sg14
g15
ssI519
(dp533
g2
F26.0
sg3
I2
sg4
F36.0
sg5
I1
sg6
I0
sg7
I2
sg8
I1
sg9
g15
sg10
I1
sg11
I1
sg12
I226875
sg13
I1
sg14
g15
ssI520
(dp534
g2
F7.8958
sg3
I2
sg4
F32.0
sg5
I0
sg6
I0
sg7
I3
sg8
I0
sg9
g15
sg10
I0
sg11
I0
sg12
I349242
sg13
I0
sg14
g15
ssI521
(dp535
g2
F93.5
sg3
I2
sg4
F30.0
sg5
I3
sg6
I0
sg7
I1
sg8
I1
sg9
g15
sg10
I1
sg11
I0
sg12
I12749
sg13
I0
sg14
F1.73
ssI522
(dp536
g2
F7.8958
sg3
I2
sg4
F22.0
sg5
I0
sg6
I0
sg7
I3
sg8
I0
sg9
g15
sg10
I0
sg11
I0
sg12
I349252
sg13
I0
sg14
g15
ssI523
(dp537
g2
F7.225
sg3
I0
sg4
g15
sg5
I0
sg6
I0
sg7
I3
sg8
I0
sg9
g15
sg10
I0
sg11
I0
sg12
I2624
sg13
I0
sg14
g15
ssI524
(dp538
g2
F57.9792
sg3
I0
sg4
F44.0
sg5
I1
sg6
I1
sg7
I1
sg8
I1
sg9
g15
sg10
I1
sg11
I1
sg12
I111361
sg13
I0
sg14
F1.18
ssI525
(dp539
g2
F7.2292
sg3
I0
sg4
g15
sg5
I0
sg6
I0
sg7
I3
sg8
I0
sg9
g15
sg10
I0
sg11
I0
sg12
I2700
sg13
I0
sg14
g15
ssI526
(dp540
g2
F7.75
sg3
I1
sg4
F40.5
sg5
I0
sg6
I0
sg7
I3
sg8
I0
sg9
g15
sg10
I0
sg11
I0
sg12
I367232
sg13
I0
sg14
g15
ssI527
(dp541
g2
F10.5
sg3
I2
sg4
F50.0
sg5
I3
sg6
I0
sg7
I2
sg8
I1
sg9
I5
sg10
I1
sg11
I0
sg12
I14258
sg13
I0
sg14
g15
ssI528
(dp542
g2
F221.7792
sg3
I2
sg4
g15
sg5
I0
sg6
I0
sg7
I1
sg8
I0
sg9
I0
sg10
I0
sg11
I0
sg12
I17483
sg13
I0
sg14
F2.95
ssI529
(dp543
g2
F7.925
sg3
I2
sg4
F39.0
sg5
I0
sg6
I0
sg7
I3
sg8
I0
sg9
g15
sg10
I0
sg11
I0
sg12
I3101296
sg13
I0
sg14
g15
ssI530
(dp544
g2
F11.5
sg3
I2
sg4
F23.0
sg5
I0
sg6
I1
sg7
I2
sg8
I0
sg9
g15
sg10
I0
sg11
I3
sg12
I29104
sg13
I2
sg14
g15
ssI531
(dp545
g2
F26.0
sg3
I2
sg4
F2.0
sg5
I3
sg6
I1
sg7
I2
sg8
I1
sg9
g15
sg10
I1
sg11
I2
sg12
I26360
sg13
I1
sg14
g15
ssI532
(dp546
g2
F7.2292
sg3
I0
sg4
g15
sg5
I0
sg6
I0
sg7
I3
sg8
I0
sg9
g15
sg10
I0
sg11
I0
sg12
I2641
sg13
I0
sg14
g15
ssI533
(dp547
g2
F7.2292
sg3
I0
sg4
F17.0
sg5
I0
sg6
I1
sg7
I3
sg8
I0
sg9
g15
sg10
I0
sg11
I2
sg12
I2690
sg13
I1
sg14
g15
ssI534
(dp548
g2
F22.3583
sg3
I0
sg4
g15
sg5
I1
sg6
I2
sg7
I3
sg8
I1
sg9
g15
sg10
I1
sg11
I2
sg12
I2668
sg13
I0
sg14
g15
ssI535
(dp549
g2
F8.6625
sg3
I2
sg4
F30.0
sg5
I3
sg6
I0
sg7
I3
sg8
I1
sg9
g15
sg10
I0
sg11
I0
sg12
I315084
sg13
I0
sg14
g15
ssI536
(dp550
g2
F26.25
sg3
I2
sg4
F7.0
sg5
I3
sg6
I2
sg7
I2
sg8
I1
sg9
I6
sg10
I1
sg11
I2
sg12
I13529
sg13
I0
sg14
g15
ssI537
(dp551
g2
F26.55
sg3
I2
sg4
F45.0
sg5
I4
sg6
I0
sg7
I1
sg8
I0
sg9
g15
sg10
I0
sg11
I0
sg12
I113050
sg13
I0
sg14
F1.38
ssI538
(dp552
g2
F106.425
sg3
I0
sg4
F30.0
sg5
I3
sg6
I0
sg7
I1
sg8
I1
sg9
I0
sg10
I1
sg11
I0
sg12
I17761
sg13
I0
sg14
g15
ssI539
(dp553
g2
F14.5
sg3
I2
sg4
g15
sg5
I0
sg6
I0
sg7
I3
sg8
I0
sg9
g15
sg10
I0
sg11
I0
sg12
I364498
sg13
I0
sg14
g15
ssI540
(dp554
g2
F49.5
sg3
I0
sg4
F22.0
sg5
I3
sg6
I2
sg7
I1
sg8
I1
sg9
g15
sg10
I1
sg11
I2
sg12
I13568
sg13
I0
sg14
F1.39
ssI541
(dp555
g2
F71.0
sg3
I2
sg4
F36.0
sg5
I3
sg6
I2
sg7
I1
sg8
I1
sg9
I6
sg10
I1
sg11
I2
sg12
I5735
sg13
I0
sg14
F1.22
ssI542
(dp556
g2
F31.275
sg3
I2
sg4
F9.0
sg5
I3
sg6
I2
sg7
I3
sg8
I1
sg9
g15
sg10
I0
sg11
I6
sg12
I347082
sg13
I4
sg14
g15
ssI543
(dp557
g2
F31.275
sg3
I2
sg4
F11.0
sg5
I3
sg6
I2
sg7
I3
sg8
I1
sg9
g15
sg10
I0
sg11
I6
sg12
I347082
sg13
I4
sg14
g15
ssI544
(dp558
g2
F26.0
sg3
I2
sg4
F32.0
sg5
I0
sg6
I0
sg7
I2
sg8
I0
sg9
g15
sg10
I1
sg11
I1
sg12
I2908
sg13
I1
sg14
g15
ssI545
(dp559
g2
F106.425
sg3
I0
sg4
F50.0
sg5
I0
sg6
I0
sg7
I1
sg8
I0
sg9
I0
sg10
I0
sg11
I1
sg12
I17761
sg13
I1
sg14
F2.86
ssI546
(dp560
g2
F26.0
sg3
I2
sg4
F64.0
sg5
I0
sg6
I0
sg7
I1
sg8
I0
sg9
g15
sg10
I0
sg11
I0
sg12
I693
sg13
I0
sg14
g15
ssI547
(dp561
g2
F26.0
sg3
I2
sg4
F19.0
sg5
I1
sg6
I0
sg7
I2
sg8
I1
sg9
g15
sg10
I1
sg11
I1
sg12
I2908
sg13
I1
sg14
g15
ssI548
(dp562
g2
F13.8625
sg3
I0
sg4
g15
sg5
I4
sg6
I0
sg7
I2
sg8
I0
sg9
I6
sg10
I1
sg11
I0
sg12
I2146
sg13
I0
sg14
g15
ssI549
(dp563
g2
F20.525
sg3
I2
sg4
F33.0
sg5
I0
sg6
I1
sg7
I3
sg8
I0
sg9
g15
sg10
I0
sg11
I2
sg12
I363291
sg13
I1
sg14
g15
ssI550
(dp564
g2
F36.75
sg3
I2
sg4
F8.0
sg5
I2
sg6
I1
sg7
I2
sg8
I0
sg9
I1
sg10
I1
sg11
I2
sg12
I33112
sg13
I1
sg14
g15
ssI551
(dp565
g2
F110.8833
sg3
I0
sg4
F17.0
sg5
I0
sg6
I2
sg7
I1
sg8
I0
sg9
g15
sg10
I1
sg11
I2
sg12
I17421
sg13
I0
sg14
F2.7
ssI552
(dp566
g2
F26.0
sg3
I2
sg4
F27.0
sg5
I0
sg6
I0
sg7
I2
sg8
I0
sg9
g15
sg10
I0
sg11
I0
sg12
I244358
sg13
I0
sg14
g15
ssI553
(dp567
g2
F7.8292
sg3
I1
sg4
g15
sg5
I0
sg6
I0
sg7
I3
sg8
I0
sg9
g15
sg10
I0
sg11
I0
sg12
I330979
sg13
I0
sg14
g15
ssI554
(dp568
g2
F7.225
sg3
I0
sg4
F22.0
sg5
I0
sg6
I0
sg7
I3
sg8
I0
sg9
g15
sg10
I1
sg11
I0
sg12
I2620
sg13
I0
sg14
g15
ssI555
(dp569
g2
F7.775
sg3
I2
sg4
F22.0
sg5
I3
sg6
I0
sg7
I3
sg8
I1
sg9
g15
sg10
I1
sg11
I0
sg12
I347085
sg13
I0
sg14
g15
ssI556
(dp570
g2
F26.55
sg3
I2
sg4
F62.0
sg5
I0
sg6
I0
sg7
I1
sg8
I0
sg9
g15
sg10
I0
sg11
I0
sg12
I113807
sg13
I0
sg14
g15
ssI557
(dp571
g2
F39.6
sg3
I0
sg4
F48.0
sg5
I4
sg6
I0
sg7
I1
sg8
I1
sg9
g15
sg10
I1
sg11
I1
sg12
I11755
sg13
I1
sg14
F0.16
ssI558
(dp572
g2
F227.525
sg3
I0
sg4
g15
sg5
I0
sg6
I0
sg7
I1
sg8
I0
sg9
I0
sg10
I0
sg11
I0
sg12
I17757
sg13
I0
sg14
g15
ssI559
(dp573
g2
F79.65
sg3
I2
sg4
F39.0
sg5
I1
sg6
I1
sg7
I1
sg8
I1
sg9
g15
sg10
I1
sg11
I2
sg12
I110413
sg13
I1
sg14
F4.67
ssI560
(dp574
g2
F17.4
sg3
I2
sg4
F36.0
sg5
I4
sg6
I0
sg7
I3
sg8
I1
sg9
g15
sg10
I1
sg11
I1
sg12
I345572
sg13
I1
sg14
g15
ssI561
(dp575
g2
F7.75
sg3
I1
sg4
g15
sg5
I0
sg6
I0
sg7
I3
sg8
I0
sg9
g15
sg10
I0
sg11
I0
sg12
I372622
sg13
I0
sg14
g15
ssI562
(dp576
g2
F7.8958
sg3
I2
sg4
F40.0
sg5
I0
sg6
I0
sg7
I3
sg8
I0
sg9
g15
sg10
I0
sg11
I0
sg12
I349251
sg13
I0
sg14
g15
ssI563
(dp577
g2
F13.5
sg3
I2
sg4
F28.0
sg5
I0
sg6
I0
sg7
I2
sg8
I0
sg9
g15
sg10
I0
sg11
I0
sg12
I218629
sg13
I0
sg14
g15
ssI564
(dp578
g2
F8.05
sg3
I2
sg4
g15
sg5
I0
sg6
I0
sg7
I3
sg8
I0
sg9
I3
sg10
I0
sg11
I0
sg12
I392082
sg13
I0
sg14
g15
ssI565
(dp579
g2
F8.05
sg3
I2
sg4
g15
sg5
I3
sg6
I0
sg7
I3
sg8
I1
sg9
I3
sg10
I0
sg11
I0
sg12
I392087
sg13
I0
sg14
g15
ssI566
(dp580
g2
F24.15
sg3
I2
sg4
F24.0
sg5
I0
sg6
I0
sg7
I3
sg8
I0
sg9
I6
sg10
I0
sg11
I2
sg12
I48871
sg13
I2
sg14
g15
ssI567
(dp581
g2
F7.8958
sg3
I2
sg4
F19.0
sg5
I0
sg6
I0
sg7
I3
sg8
I0
sg9
g15
sg10
I0
sg11
I0
sg12
I349205
sg13
I0
sg14
g15
ssI568
(dp582
g2
F21.075
sg3
I2
sg4
F29.0
sg5
I1
sg6
I4
sg7
I3
sg8
I1
sg9
g15
sg10
I0
sg11
I4
sg12
I349909
sg13
I0
sg14
g15
ssI569
(dp583
g2
F7.2292
sg3
I0
sg4
g15
sg5
I0
sg6
I0
sg7
I3
sg8
I0
sg9
g15
sg10
I0
sg11
I0
sg12
I2686
sg13
I0
sg14
g15
ssI570
(dp584
g2
F7.8542
sg3
I2
sg4
F32.0
sg5
I0
sg6
I0
sg7
I3
sg8
I0
sg9
g15
sg10
I1
sg11
I0
sg12
I350417
sg13
I0
sg14
g15
ssI571
(dp585
g2
F10.5
sg3
I2
sg4
F62.0
sg5
I0
sg6
I0
sg7
I2
sg8
I0
sg9
I6
sg10
I1
sg11
I0
sg12
I752
sg13
I0
sg14
g15
ssI572
(dp586
g2
F51.4792
sg3
I2
sg4
F53.0
sg5
I1
sg6
I0
sg7
I1
sg8
I1
sg9
g15
sg10
I1
sg11
I2
sg12
I11769
sg13
I2
sg14
F2.101
ssI573
(dp587
g2
F26.3875
sg3
I2
sg4
F36.0
sg5
I0
sg6
I0
sg7
I1
sg8
I0
sg9
I0
sg10
I1
sg11
I0
sg12
I17474
sg13
I0
sg14
F4.25
ssI574
(dp588
g2
F7.75
sg3
I1
sg4
g15
sg5
I3
sg6
I0
sg7
I3
sg8
I1
sg9
g15
sg10
I1
sg11
I0
sg12
I14312
sg13
I0
sg14
g15
ssI575
(dp589
g2
F8.05
sg3
I2
sg4
F16.0
sg5
I0
sg6
I0
sg7
I3
sg8
I0
sg9
I6
sg10
I0
sg11
I0
sg12
I20589
sg13
I0
sg14
g15
ssI576
(dp590
g2
F14.5
sg3
I2
sg4
F19.0
sg5
I0
sg6
I0
sg7
I3
sg8
I0
sg9
g15
sg10
I0
sg11
I0
sg12
I358585
sg13
I0
sg14
g15
ssI577
(dp591
g2
F13.0
sg3
I2
sg4
F34.0
sg5
I3
sg6
I0
sg7
I2
sg8
I1
sg9
g15
sg10
I1
sg11
I0
sg12
I243880
sg13
I0
sg14
g15
ssI578
(dp592
g2
F55.9
sg3
I2
sg4
F39.0
sg5
I1
sg6
I0
sg7
I1
sg8
I1
sg9
g15
sg10
I1
sg11
I1
sg12
I13507
sg13
I1
sg14
F4.44
ssI579
(dp593
g2
F14.4583
sg3
I0
sg4
g15
sg5
I1
sg6
I0
sg7
I3
sg8
I1
sg9
g15
sg10
I0
sg11
I1
sg12
I2689
sg13
I1
sg14
g15
ssI580
(dp594
g2
F7.925
sg3
I2
sg4
F32.0
sg5
I0
sg6
I0
sg7
I3
sg8
I0
sg9
I4
sg10
I1
sg11
I0
sg12
I3101286
sg13
I0
sg14
g15
ssI581
(dp595
g2
F30.0
sg3
I2
sg4
F25.0
sg5
I3
sg6
I1
sg7
I2
sg8
I1
sg9
g15
sg10
I1
sg11
I2
sg12
I237789
sg13
I1
sg14
g15
ssI582
(dp596
g2
F110.8833
sg3
I0
sg4
F39.0
sg5
I1
sg6
I1
sg7
I1
sg8
I1
sg9
g15
sg10
I1
sg11
I2
sg12
I17421
sg13
I1
sg14
F2.68
ssI583
(dp597
g2
F26.0
sg3
I2
sg4
F54.0
sg5
I0
sg6
I0
sg7
I2
sg8
I0
sg9
g15
sg10
I0
sg11
I0
sg12
I28403
sg13
I0
sg14
g15
ssI584
(dp598
g2
F40.125
sg3
I0
sg4
F36.0
sg5
I0
sg6
I0
sg7
I1
sg8
I0
sg9
g15
sg10
I0
sg11
I0
sg12
I13049
sg13
I0
sg14
F0.1
ssI585
(dp599
g2
F8.7125
sg3
I0
sg4
g15
sg5
I0
sg6
I0
sg7
I3
sg8
I0
sg9
g15
sg10
I0
sg11
I0
sg12
I3411
sg13
I0
sg14
g15
ssI586
(dp600
g2
F79.65
sg3
I2
sg4
F18.0
sg5
I3
sg6
I2
sg7
I1
sg8
I1
sg9
g15
sg10
I1
sg11
I2
sg12
I110413
sg13
I0
sg14
F4.68
ssI587
(dp601
g2
F15.0
sg3
I2
sg4
F47.0
sg5
I0
sg6
I0
sg7
I2
sg8
I0
sg9
g15
sg10
I0
sg11
I0
sg12
I237565
sg13
I0
sg14
g15
ssI588
(dp602
g2
F79.2
sg3
I0
sg4
F60.0
sg5
I0
sg6
I1
sg7
I1
sg8
I0
sg9
g15
sg10
I1
sg11
I2
sg12
I13567
sg13
I1
sg14
F1.41
ssI589
(dp603
g2
F8.05
sg3
I2
sg4
F22.0
sg5
I0
sg6
I0
sg7
I3
sg8
I0
sg9
g15
sg10
I0
sg11
I0
sg12
I14973
sg13
I0
sg14
g15
ssI590
(dp604
g2
F8.05
sg3
I2
sg4
g15
sg5
I0
sg6
I0
sg7
I3
sg8
I0
sg9
I2
sg10
I0
sg11
I0
sg12
I3235
sg13
I0
sg14
g15
ssI591
(dp605
g2
F7.125
sg3
I2
sg4
F35.0
sg5
I0
sg6
I0
sg7
I3
sg8
I0
sg9
I4
sg10
I0
sg11
I0
sg12
I3101273
sg13
I0
sg14
g15
ssI592
(dp606
g2
F78.2667
sg3
I0
sg4
F52.0
sg5
I1
sg6
I0
sg7
I1
sg8
I1
sg9
g15
sg10
I1
sg11
I1
sg12
I36947
sg13
I1
sg14
F3.2
ssI593
(dp607
g2
F7.25
sg3
I2
sg4
F47.0
sg5
I0
sg6
I0
sg7
I3
sg8
I0
sg9
I2
sg10
I0
sg11
I0
sg12
I3902
sg13
I0
sg14
g15
ssI594
(dp608
g2
F7.75
sg3
I1
sg4
g15
sg5
I3
sg6
I2
sg7
I3
sg8
I1
sg9
g15
sg10
I0
sg11
I2
sg12
I364848
sg13
I0
sg14
g15
ssI595
(dp609
g2
F26.0
sg3
I2
sg4
F37.0
sg5
I0
sg6
I0
sg7
I2
sg8
I0
sg9
I6
sg10
I0
sg11
I1
sg12
I29037
sg13
I1
sg14
g15
ssI596
(dp610
g2
F24.15
sg3
I2
sg4
F36.0
sg5
I4
sg6
I1
sg7
I3
sg8
I0
sg9
g15
sg10
I0
sg11
I2
sg12
I345773
sg13
I1
sg14
g15
ssI597
(dp611
g2
F33.0
sg3
I2
sg4
g15
sg5
I3
sg6
I0
sg7
I2
sg8
I1
sg9
g15
sg10
I1
sg11
I0
sg12
I248727
sg13
I0
sg14
g15
ssI598
(dp612
g2
F0.0
sg3
I2
sg4
F49.0
sg5
I0
sg6
I0
sg7
I3
sg8
I0
sg9
I-2
sg10
I0
sg11
I0
sg12
g15
sg13
I0
sg14
g15
ssI599
(dp613
g2
F7.225
sg3
I0
sg4
g15
sg5
I0
sg6
I0
sg7
I3
sg8
I0
sg9
g15
sg10
I0
sg11
I0
sg12
I2664
sg13
I0
sg14
g15
ssI600
(dp614
g2
F56.9292
sg3
I0
sg4
F49.0
sg5
I4
sg6
I0
sg7
I1
sg8
I0
sg9
I0
sg10
I1
sg11
I1
sg12
I17485
sg13
I1
sg14
F0.2
ssI601
(dp615
g2
F27.0
sg3
I2
sg4
F24.0
sg5
I1
sg6
I1
sg7
I2
sg8
I1
sg9
g15
sg10
I1
sg11
I3
sg12
I243847
sg13
I2
sg14
g15
ssI602
(dp616
g2
F7.8958
sg3
I2
sg4
g15
sg5
I0
sg6
I0
sg7
I3
sg8
I0
sg9
g15
sg10
I0
sg11
I0
sg12
I349214
sg13
I0
sg14
g15
ssI603
(dp617
g2
F42.4
sg3
I2
sg4
g15
sg5
I0
sg6
I0
sg7
I1
sg8
I0
sg9
g15
sg10
I0
sg11
I0
sg12
I113796
sg13
I0
sg14
g15
ssI604
(dp618
g2
F8.05
sg3
I2
sg4
F44.0
sg5
I0
sg6
I0
sg7
I3
sg8
I0
sg9
g15
sg10
I0
sg11
I0
sg12
I364511
sg13
I0
sg14
g15
ssI605
(dp619
g2
F26.55
sg3
I0
sg4
F35.0
sg5
I0
sg6
I0
sg7
I1
sg8
I0
sg9
g15
sg10
I1
sg11
I0
sg12
I111426
sg13
I0
sg14
g15
ssI606
(dp620
g2
F15.55
sg3
I2
sg4
F36.0
sg5
I0
sg6
I0
sg7
I3
sg8
I0
sg9
g15
sg10
I0
sg11
I1
sg12
I349910
sg13
I1
sg14
g15
ssI607
(dp621
g2
F7.8958
sg3
I2
sg4
F30.0
sg5
I0
sg6
I0
sg7
I3
sg8
I0
sg9
g15
sg10
I0
sg11
I0
sg12
I349246
sg13
I0
sg14
g15
ssI608
(dp622
g2
F30.5
sg3
I2
sg4
F27.0
sg5
I0
sg6
I0
sg7
I1
sg8
I0
sg9
g15
sg10
I1
sg11
I0
sg12
I113804
sg13
I0
sg14
g15
ssI609
(dp623
g2
F41.5792
sg3
I0
sg4
F22.0
sg5
I1
sg6
I2
sg7
I2
sg8
I1
sg9
I6
sg10
I1
sg11
I3
sg12
I2123
sg13
I1
sg14
g15
ssI610
(dp624
g2
F153.4625
sg3
I2
sg4
F40.0
sg5
I3
sg6
I0
sg7
I1
sg8
I1
sg9
I0
sg10
I1
sg11
I0
sg12
I17582
sg13
I0
sg14
F2.125
ssI611
(dp625
g2
F31.275
sg3
I2
sg4
F39.0
sg5
I1
sg6
I5
sg7
I3
sg8
I1
sg9
g15
sg10
I0
sg11
I6
sg12
I347082
sg13
I1
sg14
g15
ssI612
(dp626
g2
F7.05
sg3
I2
sg4
g15
sg5
I0
sg6
I0
sg7
I3
sg8
I0
sg9
I3
sg10
I0
sg11
I0
sg12
I3101305
sg13
I0
sg14
g15
ssI613
(dp627
g2
F15.5
sg3
I1
sg4
g15
sg5
I3
sg6
I0
sg7
I3
sg8
I1
sg9
g15
sg10
I1
sg11
I1
sg12
I367230
sg13
I1
sg14
g15
ssI614
(dp628
g2
F7.75
sg3
I1
sg4
g15
sg5
I0
sg6
I0
sg7
I3
sg8
I0
sg9
g15
sg10
I0
sg11
I0
sg12
I370377
sg13
I0
sg14
g15
ssI615
(dp629
g2
F8.05
sg3
I2
sg4
F35.0
sg5
I0
sg6
I0
sg7
I3
sg8
I0
sg9
g15
sg10
I0
sg11
I0
sg12
I364512
sg13
I0
sg14
g15
ssI616
(dp630
g2
F65.0
sg3
I2
sg4
F24.0
sg5
I3
sg6
I2
sg7
I2
sg8
I1
sg9
g15
sg10
I1
sg11
I3
sg12
I220845
sg13
I1
sg14
g15
ssI617
(dp631
g2
F14.4
sg3
I2
sg4
F34.0
sg5
I0
sg6
I1
sg7
I3
sg8
I0
sg9
g15
sg10
I0
sg11
I2
sg12
I347080
sg13
I1
sg14
g15
ssI618
(dp632
g2
F16.1
sg3
I2
sg4
F26.0
sg5
I1
sg6
I0
sg7
I3
sg8
I1
sg9
I2
sg10
I0
sg11
I1
sg12
I3336
sg13
I1
sg14
g15
ssI619
(dp633
g2
F39.0
sg3
I2
sg4
F4.0
sg5
I3
sg6
I1
sg7
I2
sg8
I1
sg9
g15
sg10
I1
sg11
I3
sg12
I230136
sg13
I2
sg14
F5.4
ssI620
(dp634
g2
F10.5
sg3
I2
sg4
F26.0
sg5
I0
sg6
I0
sg7
I2
sg8
I0
sg9
g15
sg10
I0
sg11
I0
sg12
I31028
sg13
I0
sg14
g15
ssI621
(dp635
g2
F14.4542
sg3
I0
sg4
F27.0
sg5
I0
sg6
I0
sg7
I3
sg8
I0
sg9
g15
sg10
I0
sg11
I1
sg12
I2659
sg13
I1
sg14
g15
ssI622
(dp636
g2
F52.5542
sg3
I2
sg4
F42.0
sg5
I0
sg6
I0
sg7
I1
sg8
I0
sg9
g15
sg10
I1
sg11
I1
sg12
I11753
sg13
I1
sg14
F3.19
ssI623
(dp637
g2
F15.7417
sg3
I0
sg4
F20.0
sg5
I0
sg6
I1
sg7
I3
sg8
I0
sg9
g15
sg10
I1
sg11
I2
sg12
I2653
sg13
I1
sg14
g15
ssI624
(dp638
g2
F7.8542
sg3
I2
sg4
F21.0
sg5
I0
sg6
I0
sg7
I3
sg8
I0
sg9
g15
sg10
I0
sg11
I0
sg12
I350029
sg13
I0
sg14
g15
ssI625
(dp639
g2
F16.1
sg3
I2
sg4
F21.0
sg5
I0
sg6
I0
sg7
I3
sg8
I0
sg9
g15
sg10
I0
sg11
I0
sg12
I54636
sg13
I0
sg14
g15
ssI626
(dp640
g2
F32.3208
sg3
I2
sg4
F61.0
sg5
I0
sg6
I0
sg7
I1
sg8
I0
sg9
g15
sg10
I0
sg11
I0
sg12
I36963
sg13
I0
sg14
F3.5
ssI627
(dp641
g2
F12.35
sg3
I1
sg4
F57.0
sg5
I4
sg6
I0
sg7
I2
sg8
I0
sg9
g15
sg10
I0
sg11
I0
sg12
I219533
sg13
I0
sg14
g15
ssI628
(dp642
g2
F77.9583
sg3
I2
sg4
F21.0
sg5
I3
sg6
I0
sg7
I1
sg8
I1
sg9
g15
sg10
I1
sg11
I0
sg12
I13502
sg13
I0
sg14
F3.9
ssI629
(dp643
g2
F7.8958
sg3
I2
sg4
F26.0
sg5
I0
sg6
I0
sg7
I3
sg8
I0
sg9
g15
sg10
I0
sg11
I0
sg12
I349224
sg13
I0
sg14
g15
ssI630
(dp644
g2
F7.7333
sg3
I1
sg4
g15
sg5
I0
sg6
I0
sg7
I3
sg8
I0
sg9
g15
sg10
I0
sg11
I0
sg12
I334912
sg13
I0
sg14
g15
ssI631
(dp645
g2
F30.0
sg3
I2
sg4
F80.0
sg5
I0
sg6
I0
sg7
I1
sg8
I0
sg9
g15
sg10
I1
sg11
I0
sg12
I27042
sg13
I0
sg14
F0.23
ssI632
(dp646
g2
F7.0542
sg3
I2
sg4
F51.0
sg5
I0
sg6
I0
sg7
I3
sg8
I0
sg9
g15
sg10
I0
sg11
I0
sg12
I347743
sg13
I0
sg14
g15
ssI633
(dp647
g2
F30.5
sg3
I0
sg4
F32.0
sg5
I4
sg6
I0
sg7
I1
sg8
I0
sg9
g15
sg10
I1
sg11
I0
sg12
I13214
sg13
I0
sg14
F1.5
ssI634
(dp648
g2
F0.0
sg3
I2
sg4
g15
sg5
I0
sg6
I0
sg7
I1
sg8
I0
sg9
g15
sg10
I0
sg11
I0
sg12
I112052
sg13
I0
sg14
g15
ssI635
(dp649
g2
F27.9
sg3
I2
sg4
F9.0
sg5
I3
sg6
I2
sg7
I3
sg8
I1
sg9
g15
sg10
I0
sg11
I5
sg12
I347088
sg13
I3
sg14
g15
ssI636
(dp650
g2
F13.0
sg3
I2
sg4
F28.0
sg5
I3
sg6
I0
sg7
I2
sg8
I1
sg9
g15
sg10
I1
sg11
I0
sg12
I237668
sg13
I0
sg14
g15
ssI637
(dp651
g2
F7.925
sg3
I2
sg4
F32.0
sg5
I0
sg6
I0
sg7
I3
sg8
I0
sg9
I4
sg10
I0
sg11
I0
sg12
I3101292
sg13
I0
sg14
g15
ssI638
(dp652
g2
F26.25
sg3
I2
sg4
F31.0
sg5
I0
sg6
I1
sg7
I2
sg8
I0
sg9
I1
sg10
I0
sg11
I2
sg12
I31921
sg13
I1
sg14
g15
ssI639
(dp653
g2
F39.6875
sg3
I2
sg4
F41.0
sg5
I1
sg6
I5
sg7
I3
sg8
I1
sg9
g15
sg10
I0
sg11
I5
sg12
I3101295
sg13
I0
sg14
g15
ssI640
(dp654
g2
F16.1
sg3
I2
sg4
g15
sg5
I0
sg6
I0
sg7
I3
sg8
I0
sg9
g15
sg10
I0
sg11
I1
sg12
I376564
sg13
I1
sg14
g15
ssI641
(dp655
g2
F7.8542
sg3
I2
sg4
F20.0
sg5
I0
sg6
I0
sg7
I3
sg8
I0
sg9
g15
sg10
I0
sg11
I0
sg12
I350050
sg13
I0
sg14
g15
ssI642
(dp656
g2
F69.3
sg3
I0
sg4
F24.0
sg5
I4
sg6
I0
sg7
I1
sg8
I1
sg9
I0
sg10
I1
sg11
I0
sg12
I17477
sg13
I0
sg14
F1.35
ssI643
(dp657
g2
F27.9
sg3
I2
sg4
F2.0
sg5
I3
sg6
I2
sg7
I3
sg8
I1
sg9
g15
sg10
I0
sg11
I5
sg12
I347088
sg13
I3
sg14
g15
ssI644
(dp658
g2
F56.4958
sg3
I2
sg4
g15
sg5
I0
sg6
I0
sg7
I3
sg8
I0
sg9
g15
sg10
I1
sg11
I0
sg12
I1601
sg13
I0
sg14
g15
ssI645
(dp659
g2
F19.2583
sg3
I0
sg4
F0.75
sg5
I3
sg6
I1
sg7
I3
sg8
I1
sg9
g15
sg10
I1
sg11
I3
sg12
I2666
sg13
I2
sg14
g15
ssI646
(dp660
g2
F76.7292
sg3
I0
sg4
F48.0
sg5
I0
sg6
I0
sg7
I1
sg8
I0
sg9
I0
sg10
I1
sg11
I1
sg12
I17572
sg13
I1
sg14
F3.33
ssI647
(dp661
g2
F7.8958
sg3
I2
sg4
F19.0
sg5
I0
sg6
I0
sg7
I3
sg8
I0
sg9
g15
sg10
I0
sg11
I0
sg12
I349231
sg13
I0
sg14
g15
ssI648
(dp662
g2
F35.5
sg3
I0
sg4
F56.0
sg5
I4
sg6
I0
sg7
I1
sg8
I0
sg9
g15
sg10
I1
sg11
I0
sg12
I13213
sg13
I0
sg14
F0.26
ssI649
(dp663
g2
F7.55
sg3
I2
sg4
g15
sg5
I0
sg6
I0
sg7
I3
sg8
I0
sg9
I6
sg10
I0
sg11
I0
sg12
I751
sg13
I0
sg14
g15
ssI650
(dp664
g2
F7.55
sg3
I2
sg4
F23.0
sg5
I3
sg6
I0
sg7
I3
sg8
I1
sg9
I1
sg10
I1
sg11
I0
sg12
I2314
sg13
I0
sg14
g15
ssI651
(dp665
g2
F7.8958
sg3
I2
sg4
g15
sg5
I0
sg6
I0
sg7
I3
sg8
I0
sg9
g15
sg10
I0
sg11
I0
sg12
I349221
sg13
I0
sg14
g15
ssI652
(dp666
g2
F23.0
sg3
I2
sg4
F18.0
sg5
I3
sg6
I1
sg7
I2
sg8
I1
sg9
g15
sg10
I1
sg11
I1
sg12
I231919
sg13
I0
sg14
g15
ssI653
(dp667
g2
F8.4333
sg3
I2
sg4
F21.0
sg5
I0
sg6
I0
sg7
I3
sg8
I0
sg9
g15
sg10
I0
sg11
I0
sg12
I8475
sg13
I0
sg14
g15
ssI654
(dp668
g2
F7.8292
sg3
I1
sg4
g15
sg5
I3
sg6
I0
sg7
I3
sg8
I1
sg9
g15
sg10
I1
sg11
I0
sg12
I330919
sg13
I0
sg14
g15
ssI655
(dp669
g2
F6.75
sg3
I1
sg4
F18.0
sg5
I3
sg6
I0
sg7
I3
sg8
I1
sg9
g15
sg10
I0
sg11
I0
sg12
I365226
sg13
I0
sg14
g15
ssI656
(dp670
g2
F73.5
sg3
I2
sg4
F24.0
sg5
I0
sg6
I0
sg7
I2
sg8
I0
sg9
I6
sg10
I0
sg11
I2
sg12
I14879
sg13
I2
sg14
g15
ssI657
(dp671
g2
F7.8958
sg3
I2
sg4
g15
sg5
I0
sg6
I0
sg7
I3
sg8
I0
sg9
g15
sg10
I0
sg11
I0
sg12
I349223
sg13
I0
sg14
g15
ssI658
(dp672
g2
F15.5
sg3
I1
sg4
F32.0
sg5
I1
sg6
I1
sg7
I3
sg8
I1
sg9
g15
sg10
I0
sg11
I2
sg12
I364849
sg13
I1
sg14
g15
ssI659
(dp673
g2
F13.0
sg3
I2
sg4
F23.0
sg5
I0
sg6
I0
sg7
I2
sg8
I0
sg9
g15
sg10
I0
sg11
I0
sg12
I29751
sg13
I0
sg14
g15
ssI660
(dp674
g2
F113.275
sg3
I0
sg4
F58.0
sg5
I0
sg6
I2
sg7
I1
sg8
I0
sg9
g15
sg10
I0
sg11
I2
sg12
I35273
sg13
I0
sg14
F3.48
ssI661
(dp675
g2
F133.65
sg3
I2
sg4
F50.0
sg5
I4
sg6
I0
sg7
I1
sg8
I0
sg9
I0
sg10
I1
sg11
I2
sg12
I17611
sg13
I2
sg14
g15
ssI662
(dp676
g2
F7.225
sg3
I0
sg4
F40.0
sg5
I0
sg6
I0
sg7
I3
sg8
I0
sg9
g15
sg10
I0
sg11
I0
sg12
I2623
sg13
I0
sg14
g15
ssI663
(dp677
g2
F25.5875
sg3
I2
sg4
F47.0
sg5
I0
sg6
I0
sg7
I1
sg8
I0
sg9
g15
sg10
I0
sg11
I0
sg12
I5727
sg13
I0
sg14
F4.58
ssI664
(dp678
g2
F7.4958
sg3
I2
sg4
F36.0
sg5
I0
sg6
I0
sg7
I3
sg8
I0
sg9
g15
sg10
I0
sg11
I0
sg12
I349210
sg13
I0
sg14
g15
ssI665
(dp679
g2
F7.925
sg3
I2
sg4
F20.0
sg5
I0
sg6
I0
sg7
I3
sg8
I0
sg9
I4
sg10
I1
sg11
I1
sg12
I3101285
sg13
I1
sg14
g15
ssI666
(dp680
g2
F73.5
sg3
I2
sg4
F32.0
sg5
I0
sg6
I0
sg7
I2
sg8
I0
sg9
I6
sg10
I0
sg11
I2
sg12
I14879
sg13
I2
sg14
g15
ssI667
(dp681
g2
F13.0
sg3
I2
sg4
F25.0
sg5
I0
sg6
I0
sg7
I2
sg8
I0
sg9
g15
sg10
I0
sg11
I0
sg12
I234686
sg13
I0
sg14
g15
ssI668
(dp682
g2
F7.775
sg3
I2
sg4
g15
sg5
I0
sg6
I0
sg7
I3
sg8
I0
sg9
g15
sg10
I0
sg11
I0
sg12
I312993
sg13
I0
sg14
g15
ssI669
(dp683
g2
F8.05
sg3
I2
sg4
F43.0
sg5
I0
sg6
I0
sg7
I3
sg8
I0
sg9
I2
sg10
I0
sg11
I0
sg12
I3536
sg13
I0
sg14
g15
ssI670
(dp684
g2
F52.0
sg3
I2
sg4
g15
sg5
I1
sg6
I0
sg7
I1
sg8
I1
sg9
g15
sg10
I1
sg11
I1
sg12
I19996
sg13
I1
sg14
F2.126
ssI671
(dp685
g2
F39.0
sg3
I2
sg4
F40.0
sg5
I1
sg6
I1
sg7
I2
sg8
I1
sg9
g15
sg10
I1
sg11
I2
sg12
I29750
sg13
I1
sg14
g15
ssI672
(dp686
g2
F52.0
sg3
I2
sg4
F31.0
sg5
I0
sg6
I0
sg7
I1
sg8
I0
sg9
I6
sg10
I0
sg11
I1
sg12
I12750
sg13
I1
sg14
F1.71
ssI673
(dp687
g2
F10.5
sg3
I2
sg4
F70.0
sg5
I0
sg6
I0
sg7
I2
sg8
I0
sg9
I1
sg10
I0
sg11
I0
sg12
I24580
sg13
I0
sg14
g15
ssI674
(dp688
g2
F13.0
sg3
I2
sg4
F31.0
sg5
I0
sg6
I0
sg7
I2
sg8
I0
sg9
g15
sg10
I1
sg11
I0
sg12
I244270
sg13
I0
sg14
g15
ssI675
(dp689
g2
F0.0
sg3
I2
sg4
g15
sg5
I0
sg6
I0
sg7
I2
sg8
I0
sg9
g15
sg10
I0
sg11
I0
sg12
I239856
sg13
I0
sg14
g15
ssI676
(dp690
g2
F7.775
sg3
I2
sg4
F18.0
sg5
I0
sg6
I0
sg7
I3
sg8
I0
sg9
g15
sg10
I0
sg11
I0
sg12
I349912
sg13
I0
sg14
g15
ssI677
(dp691
g2
F8.05
sg3
I2
sg4
F24.5
sg5
I0
sg6
I0
sg7
I3
sg8
I0
sg9
g15
sg10
I0
sg11
I0
sg12
I342826
sg13
I0
sg14
g15
ssI678
(dp692
g2
F9.8417
sg3
I2
sg4
F18.0
sg5
I3
sg6
I0
sg7
I3
sg8
I1
sg9
g15
sg10
I1
sg11
I0
sg12
I4138
sg13
I0
sg14
g15
ssI679
(dp693
g2
F46.9
sg3
I2
sg4
F43.0
sg5
I1
sg6
I6
sg7
I3
sg8
I1
sg9
I1
sg10
I0
sg11
I7
sg12
I2144
sg13
I1
sg14
g15
ssI680
(dp694
g2
F512.3292
sg3
I0
sg4
F36.0
sg5
I0
sg6
I1
sg7
I1
sg8
I0
sg9
I0
sg10
I1
sg11
I1
sg12
I17755
sg13
I0
sg14
F1.53
ssI681
(dp695
g2
F8.1375
sg3
I1
sg4
g15
sg5
I3
sg6
I0
sg7
I3
sg8
I1
sg9
g15
sg10
I0
sg11
I0
sg12
I330935
sg13
I0
sg14
g15
ssI682
(dp696
g2
F76.7292
sg3
I0
sg4
F27.0
sg5
I0
sg6
I0
sg7
I1
sg8
I0
sg9
I0
sg10
I1
sg11
I0
sg12
I17572
sg13
I0
sg14
F3.49
ssI683
(dp697
g2
F9.225
sg3
I2
sg4
F20.0
sg5
I0
sg6
I0
sg7
I3
sg8
I0
sg9
g15
sg10
I0
sg11
I0
sg12
I6563
sg13
I0
sg14
g15
ssI684
(dp698
g2
F46.9
sg3
I2
sg4
F14.0
sg5
I0
sg6
I2
sg7
I3
sg8
I0
sg9
I1
sg10
I0
sg11
I7
sg12
I2144
sg13
I5
sg14
g15
ssI685
(dp699
g2
F39.0
sg3
I2
sg4
F60.0
sg5
I0
sg6
I1
sg7
I2
sg8
I0
sg9
g15
sg10
I0
sg11
I2
sg12
I29750
sg13
I1
sg14
g15
ssI686
(dp700
g2
F41.5792
sg3
I0
sg4
F25.0
sg5
I0
sg6
I2
sg7
I2
sg8
I0
sg9
I6
sg10
I0
sg11
I3
sg12
I2123
sg13
I1
sg14
g15
ssI687
(dp701
g2
F39.6875
sg3
I2
sg4
F14.0
sg5
I0
sg6
I1
sg7
I3
sg8
I0
sg9
g15
sg10
I0
sg11
I5
sg12
I3101295
sg13
I4
sg14
g15
ssI688
(dp702
g2
F10.1708
sg3
I2
sg4
F19.0
sg5
I0
sg6
I0
sg7
I3
sg8
I0
sg9
g15
sg10
I0
sg11
I0
sg12
I349228
sg13
I0
sg14
g15
ssI689
(dp703
g2
F7.7958
sg3
I2
sg4
F18.0
sg5
I0
sg6
I0
sg7
I3
sg8
I0
sg9
g15
sg10
I0
sg11
I0
sg12
I350036
sg13
I0
sg14
g15
ssI690
(dp704
g2
F211.3375
sg3
I2
sg4
F15.0
sg5
I3
sg6
I1
sg7
I1
sg8
I1
sg9
g15
sg10
I1
sg11
I1
sg12
I24160
sg13
I0
sg14
F1.5
ssI691
(dp705
g2
F57.0
sg3
I2
sg4
F31.0
sg5
I0
sg6
I0
sg7
I1
sg8
I0
sg9
g15
sg10
I1
sg11
I1
sg12
I17474
sg13
I1
sg14
F1.2
ssI692
(dp706
g2
F13.4167
sg3
I0
sg4
F4.0
sg5
I3
sg6
I1
sg7
I3
sg8
I1
sg9
g15
sg10
I1
sg11
I1
sg12
I349256
sg13
I0
sg14
g15
ssI693
(dp707
g2
F56.4958
sg3
I2
sg4
g15
sg5
I0
sg6
I0
sg7
I3
sg8
I0
sg9
g15
sg10
I1
sg11
I0
sg12
I1601
sg13
I0
sg14
g15
ssI694
(dp708
g2
F7.225
sg3
I0
sg4
F25.0
sg5
I0
sg6
I0
sg7
I3
sg8
I0
sg9
g15
sg10
I0
sg11
I0
sg12
I2672
sg13
I0
sg14
g15
ssI695
(dp709
g2
F26.55
sg3
I2
sg4
F60.0
sg5
I4
sg6
I0
sg7
I1
sg8
I0
sg9
g15
sg10
I0
sg11
I0
sg12
I113800
sg13
I0
sg14
g15
ssI696
(dp710
g2
F13.5
sg3
I2
sg4
F52.0
sg5
I0
sg6
I0
sg7
I2
sg8
I0
sg9
g15
sg10
I0
sg11
I0
sg12
I248731
sg13
I0
sg14
g15
ssI697
(dp711
g2
F8.05
sg3
I2
sg4
F44.0
sg5
I0
sg6
I0
sg7
I3
sg8
I0
sg9
g15
sg10
I0
sg11
I0
sg12
I363592
sg13
I0
sg14
g15
ssI698
(dp712
g2
F7.7333
sg3
I1
sg4
g15
sg5
I3
sg6
I0
sg7
I3
sg8
I1
sg9
g15
sg10
I1
sg11
I0
sg12
I35852
sg13
I0
sg14
g15
ssI699
(dp713
g2
F110.8833
sg3
I0
sg4
F49.0
sg5
I0
sg6
I1
sg7
I1
sg8
I0
sg9
g15
sg10
I0
sg11
I2
sg12
I17421
sg13
I1
sg14
F2.68
ssI700
(dp714
g2
F7.65
sg3
I2
sg4
F42.0
sg5
I0
sg6
I0
sg7
I3
sg8
I0
sg9
g15
sg10
I0
sg11
I0
sg12
I348121
sg13
I0
sg14
F5.8149999999999995
ssI701
(dp715
g2
F227.525
sg3
I0
sg4
F18.0
sg5
I1
sg6
I0
sg7
I1
sg8
I1
sg9
I0
sg10
I1
sg11
I1
sg12
I17757
sg13
I1
sg14
F2.63
ssI702
(dp716
g2
F26.2875
sg3
I2
sg4
F35.0
sg5
I0
sg6
I0
sg7
I1
sg8
I0
sg9
I0
sg10
I1
sg11
I0
sg12
I17475
sg13
I0
sg14
F4.24
ssI703
(dp717
g2
F14.4542
sg3
I0
sg4
F18.0
sg5
I3
sg6
I1
sg7
I3
sg8
I1
sg9
g15
sg10
I0
sg11
I1
sg12
I2691
sg13
I0
sg14
g15
ssI704
(dp718
g2
F7.7417
sg3
I1
sg4
F25.0
sg5
I0
sg6
I0
sg7
I3
sg8
I0
sg9
g15
sg10
I0
sg11
I0
sg12
I36864
sg13
I0
sg14
g15
ssI705
(dp719
g2
F7.8542
sg3
I2
sg4
F26.0
sg5
I0
sg6
I0
sg7
I3
sg8
I0
sg9
g15
sg10
I0
sg11
I1
sg12
I350025
sg13
I1
sg14
g15
ssI706
(dp720
g2
F26.0
sg3
I2
sg4
F39.0
sg5
I0
sg6
I0
sg7
I2
sg8
I0
sg9
g15
sg10
I0
sg11
I0
sg12
I250655
sg13
I0
sg14
g15
ssI707
(dp721
g2
F13.5
sg3
I2
sg4
F45.0
sg5
I1
sg6
I0
sg7
I2
sg8
I1
sg9
g15
sg10
I1
sg11
I0
sg12
I223596
sg13
I0
sg14
g15
ssI708
(dp722
g2
F26.2875
sg3
I2
sg4
F42.0
sg5
I0
sg6
I0
sg7
I1
sg8
I0
sg9
I0
sg10
I1
sg11
I0
sg12
I17476
sg13
I0
sg14
F4.24
ssI709
(dp723
g2
F151.55
sg3
I2
sg4
F22.0
sg5
I3
sg6
I0
sg7
I1
sg8
I1
sg9
g15
sg10
I1
sg11
I0
sg12
I113781
sg13
I0
sg14
g15
ssI710
(dp724
g2
F15.2458
sg3
I0
sg4
g15
sg5
I2
sg6
I1
sg7
I3
sg8
I0
sg9
g15
sg10
I1
sg11
I2
sg12
I2661
sg13
I1
sg14
g15
ssI711
(dp725
g2
F49.5042
sg3
I0
sg4
F24.0
sg5
I4
sg6
I0
sg7
I1
sg8
I1
sg9
I0
sg10
I1
sg11
I0
sg12
I17482
sg13
I0
sg14
F2.9
ssI712
(dp726
g2
F26.55
sg3
I2
sg4
g15
sg5
I0
sg6
I0
sg7
I1
sg8
I0
sg9
g15
sg10
I0
sg11
I0
sg12
I113028
sg13
I0
sg14
F2.124
ssI713
(dp727
g2
F52.0
sg3
I2
sg4
F48.0
sg5
I0
sg6
I0
sg7
I1
sg8
I0
sg9
g15
sg10
I1
sg11
I1
sg12
I19996
sg13
I1
sg14
F2.126
ssI714
(dp728
g2
F9.4833
sg3
I2
sg4
F29.0
sg5
I0
sg6
I0
sg7
I3
sg8
I0
sg9
g15
sg10
I0
sg11
I0
sg12
I7545
sg13
I0
sg14
g15
ssI715
(dp729
g2
F13.0
sg3
I2
sg4
F52.0
sg5
I0
sg6
I0
sg7
I2
sg8
I0
sg9
g15
sg10
I0
sg11
I0
sg12
I250647
sg13
I0
sg14
g15
ssI716
(dp730
g2
F7.65
sg3
I2
sg4
F19.0
sg5
I0
sg6
I0
sg7
I3
sg8
I0
sg9
g15
sg10
I0
sg11
I0
sg12
I348124
sg13
I0
sg14
F5.865
ssI717
(dp731
g2
F227.525
sg3
I0
sg4
F38.0
sg5
I3
sg6
I0
sg7
I1
sg8
I1
sg9
I0
sg10
I1
sg11
I0
sg12
I17757
sg13
I0
sg14
F2.45
ssI718
(dp732
g2
F10.5
sg3
I2
sg4
F27.0
sg5
I3
sg6
I0
sg7
I2
sg8
I1
sg9
g15
sg10
I1
sg11
I0
sg12
I34218
sg13
I0
sg14
F4.101
ssI719
(dp733
g2
F15.5
sg3
I1
sg4
g15
sg5
I0
sg6
I0
sg7
I3
sg8
I0
sg9
g15
sg10
I0
sg11
I0
sg12
I36568
sg13
I0
sg14
g15
ssI720
(dp734
g2
F7.775
sg3
I2
sg4
F33.0
sg5
I0
sg6
I0
sg7
I3
sg8
I0
sg9
g15
sg10
I0
sg11
I0
sg12
I347062
sg13
I0
sg14
g15
ssI721
(dp735
g2
F33.0
sg3
I2
sg4
F6.0
sg5
I3
sg6
I1
sg7
I2
sg8
I1
sg9
g15
sg10
I1
sg11
I1
sg12
I248727
sg13
I0
sg14
g15
ssI722
(dp736
g2
F7.0542
sg3
I2
sg4
F17.0
sg5
I0
sg6
I0
sg7
I3
sg8
I0
sg9
g15
sg10
I0
sg11
I1
sg12
I350048
sg13
I1
sg14
g15
ssI723
(dp737
g2
F13.0
sg3
I2
sg4
F34.0
sg5
I0
sg6
I0
sg7
I2
sg8
I0
sg9
g15
sg10
I0
sg11
I0
sg12
I12233
sg13
I0
sg14
g15
ssI724
(dp738
g2
F13.0
sg3
I2
sg4
F50.0
sg5
I0
sg6
I0
sg7
I2
sg8
I0
sg9
g15
sg10
I0
sg11
I0
sg12
I250643
sg13
I0
sg14
g15
ssI725
(dp739
g2
F53.1
sg3
I2
sg4
F27.0
sg5
I0
sg6
I0
sg7
I1
sg8
I0
sg9
g15
sg10
I1
sg11
I1
sg12
I113806
sg13
I1
sg14
F4.8
ssI726
(dp740
g2
F8.6625
sg3
I2
sg4
F20.0
sg5
I0
sg6
I0
sg7
I3
sg8
I0
sg9
g15
sg10
I0
sg11
I0
sg12
I315094
sg13
I0
sg14
g15
ssI727
(dp741
g2
F21.0
sg3
I2
sg4
F30.0
sg5
I1
sg6
I0
sg7
I2
sg8
I1
sg9
g15
sg10
I1
sg11
I3
sg12
I31027
sg13
I3
sg14
g15
ssI728
(dp742
g2
F7.7375
sg3
I1
sg4
g15
sg5
I3
sg6
I0
sg7
I3
sg8
I1
sg9
g15
sg10
I1
sg11
I0
sg12
I36866
sg13
I0
sg14
g15
ssI729
(dp743
g2
F26.0
sg3
I2
sg4
F25.0
sg5
I0
sg6
I0
sg7
I2
sg8
I0
sg9
g15
sg10
I0
sg11
I1
sg12
I236853
sg13
I1
sg14
g15
ssI730
(dp744
g2
F7.925
sg3
I2
sg4
F25.0
sg5
I3
sg6
I0
sg7
I3
sg8
I1
sg9
I6
sg10
I0
sg11
I1
sg12
I3101271
sg13
I1
sg14
g15
ssI731
(dp745
g2
F211.3375
sg3
I2
sg4
F29.0
sg5
I3
sg6
I0
sg7
I1
sg8
I1
sg9
g15
sg10
I1
sg11
I0
sg12
I24160
sg13
I0
sg14
F1.5
ssI732
(dp746
g2
F18.7875
sg3
I0
sg4
F11.0
sg5
I0
sg6
I0
sg7
I3
sg8
I0
sg9
g15
sg10
I0
sg11
I0
sg12
I2699
sg13
I0
sg14
g15
ssI733
(dp747
g2
F0.0
sg3
I2
sg4
g15
sg5
I0
sg6
I0
sg7
I2
sg8
I0
sg9
g15
sg10
I0
sg11
I0
sg12
I239855
sg13
I0
sg14
g15
ssI734
(dp748
g2
F13.0
sg3
I2
sg4
F23.0
sg5
I0
sg6
I0
sg7
I2
sg8
I0
sg9
g15
sg10
I0
sg11
I0
sg12
I28425
sg13
I0
sg14
g15
ssI735
(dp749
g2
F13.0
sg3
I2
sg4
F23.0
sg5
I0
sg6
I0
sg7
I2
sg8
I0
sg9
g15
sg10
I0
sg11
I0
sg12
I233639
sg13
I0
sg14
g15
ssI736
(dp750
g2
F16.1
sg3
I2
sg4
F28.5
sg5
I0
sg6
I0
sg7
I3
sg8
I0
sg9
g15
sg10
I0
sg11
I0
sg12
I54636
sg13
I0
sg14
g15
ssI737
(dp751
g2
F34.375
sg3
I2
sg4
F48.0
sg5
I1
sg6
I3
sg7
I3
sg8
I1
sg9
I5
sg10
I0
sg11
I4
sg12
I6608
sg13
I1
sg14
g15
ssI738
(dp752
g2
F512.3292
sg3
I0
sg4
F35.0
sg5
I0
sg6
I0
sg7
I1
sg8
I0
sg9
I0
sg10
I1
sg11
I0
sg12
I17755
sg13
I0
sg14
F1.101
ssI739
(dp753
g2
F7.8958
sg3
I2
sg4
g15
sg5
I0
sg6
I0
sg7
I3
sg8
I0
sg9
g15
sg10
I0
sg11
I0
sg12
I349201
sg13
I0
sg14
g15
ssI740
(dp754
g2
F7.8958
sg3
I2
sg4
g15
sg5
I0
sg6
I0
sg7
I3
sg8
I0
sg9
g15
sg10
I0
sg11
I0
sg12
I349218
sg13
I0
sg14
g15
ssI741
(dp755
g2
F30.0
sg3
I2
sg4
g15
sg5
I0
sg6
I0
sg7
I1
sg8
I0
sg9
g15
sg10
I1
sg11
I0
sg12
I16988
sg13
I0
sg14
F3.45
ssI742
(dp756
g2
F78.85
sg3
I2
sg4
F36.0
sg5
I0
sg6
I0
sg7
I1
sg8
I0
sg9
g15
sg10
I0
sg11
I1
sg12
I19877
sg13
I1
sg14
F2.46
ssI743
(dp757
g2
F262.375
sg3
I0
sg4
F21.0
sg5
I3
sg6
I2
sg7
I1
sg8
I1
sg9
I0
sg10
I1
sg11
I4
sg12
I17608
sg13
I2
sg14
F1.6125
ssI744
(dp758
g2
F16.1
sg3
I2
sg4
F24.0
sg5
I0
sg6
I0
sg7
I3
sg8
I0
sg9
g15
sg10
I0
sg11
I1
sg12
I376566
sg13
I1
sg14
g15
ssI745
(dp759
g2
F7.925
sg3
I2
sg4
F31.0
sg5
I0
sg6
I0
sg7
I3
sg8
I0
sg9
I4
sg10
I1
sg11
I0
sg12
I3101288
sg13
I0
sg14
g15
ssI746
(dp760
g2
F71.0
sg3
I2
sg4
F70.0
sg5
I4
sg6
I1
sg7
I1
sg8
I0
sg9
I6
sg10
I0
sg11
I2
sg12
I5735
sg13
I1
sg14
F1.22
ssI747
(dp761
g2
F20.25
sg3
I2
sg4
F16.0
sg5
I0
sg6
I1
sg7
I3
sg8
I0
sg9
I1
sg10
I0
sg11
I2
sg12
I2673
sg13
I1
sg14
g15
ssI748
(dp762
g2
F13.0
sg3
I2
sg4
F30.0
sg5
I3
sg6
I0
sg7
I2
sg8
I1
sg9
g15
sg10
I1
sg11
I0
sg12
I250648
sg13
I0
sg14
g15
ssI749
(dp763
g2
F53.1
sg3
I2
sg4
F19.0
sg5
I0
sg6
I0
sg7
I1
sg8
I0
sg9
g15
sg10
I0
sg11
I1
sg12
I113773
sg13
I1
sg14
F3.3
ssI750
(dp764
g2
F7.75
sg3
I1
sg4
F31.0
sg5
I0
sg6
I0
sg7
I3
sg8
I0
sg9
g15
sg10
I0
sg11
I0
sg12
I335097
sg13
I0
sg14
g15
ssI751
(dp765
g2
F23.0
sg3
I2
sg4
F4.0
sg5
I3
sg6
I1
sg7
I2
sg8
I1
sg9
g15
sg10
I1
sg11
I2
sg12
I29103
sg13
I1
sg14
g15
ssI752
(dp766
g2
F12.475
sg3
I2
sg4
F6.0
sg5
I2
sg6
I1
sg7
I3
sg8
I0
sg9
g15
sg10
I1
sg11
I1
sg12
I392096
sg13
I0
sg14
F4.121
ssI753
(dp767
g2
F9.5
sg3
I2
sg4
F33.0
sg5
I4
sg6
I0
sg7
I3
sg8
I0
sg9
g15
sg10
I0
sg11
I0
sg12
I345780
sg13
I0
sg14
g15
ssI754
(dp768
g2
F7.8958
sg3
I2
sg4
F23.0
sg5
I0
sg6
I0
sg7
I3
sg8
I0
sg9
g15
sg10
I0
sg11
I0
sg12
I349204
sg13
I0
sg14
g15
ssI755
(dp769
g2
F65.0
sg3
I2
sg4
F48.0
sg5
I1
sg6
I2
sg7
I2
sg8
I1
sg9
g15
sg10
I1
sg11
I3
sg12
I220845
sg13
I1
sg14
g15
ssI756
(dp770
g2
F14.5
sg3
I2
sg4
F0.67
sg5
I2
sg6
I1
sg7
I2
sg8
I0
sg9
g15
sg10
I1
sg11
I2
sg12
I250649
sg13
I1
sg14
g15
ssI757
(dp771
g2
F7.7958
sg3
I2
sg4
F28.0
sg5
I0
sg6
I0
sg7
I3
sg8
I0
sg9
g15
sg10
I0
sg11
I0
sg12
I350042
sg13
I0
sg14
g15
ssI758
(dp772
g2
F11.5
sg3
I2
sg4
F18.0
sg5
I0
sg6
I0
sg7
I2
sg8
I0
sg9
g15
sg10
I0
sg11
I0
sg12
I29108
sg13
I0
sg14
g15
ssI759
(dp773
g2
F8.05
sg3
I2
sg4
F34.0
sg5
I0
sg6
I0
sg7
I3
sg8
I0
sg9
g15
sg10
I0
sg11
I0
sg12
I363294
sg13
I0
sg14
g15
ssI760
(dp774
g2
F86.5
sg3
I2
sg4
F33.0
sg5
I4
sg6
I0
sg7
I1
sg8
I1
sg9
g15
sg10
I1
sg11
I0
sg12
I110152
sg13
I0
sg14
F1.77
ssI761
(dp775
g2
F14.5
sg3
I2
sg4
g15
sg5
I0
sg6
I0
sg7
I3
sg8
I0
sg9
g15
sg10
I0
sg11
I0
sg12
I358585
sg13
I0
sg14
g15
ssI762
(dp776
g2
F7.125
sg3
I2
sg4
F41.0
sg5
I0
sg6
I0
sg7
I3
sg8
I0
sg9
I6
sg10
I0
sg11
I0
sg12
I3101272
sg13
I0
sg14
g15
ssI763
(dp777
g2
F7.2292
sg3
I0
sg4
F20.0
sg5
I0
sg6
I0
sg7
I3
sg8
I0
sg9
g15
sg10
I1
sg11
I0
sg12
I2663
sg13
I0
sg14
g15
ssI764
(dp778
g2
F120.0
sg3
I2
sg4
F36.0
sg5
I1
sg6
I2
sg7
I1
sg8
I1
sg9
g15
sg10
I1
sg11
I3
sg12
I113760
sg13
I1
sg14
F1.97
ssI765
(dp779
g2
F7.775
sg3
I2
sg4
F16.0
sg5
I0
sg6
I0
sg7
I3
sg8
I0
sg9
g15
sg10
I0
sg11
I0
sg12
I347074
sg13
I0
sg14
g15
ssI766
(dp780
g2
F77.9583
sg3
I2
sg4
F51.0
sg5
I1
sg6
I0
sg7
I1
sg8
I1
sg9
g15
sg10
I1
sg11
I1
sg12
I13502
sg13
I1
sg14
F3.11
ssI767
(dp781
g2
F39.6
sg3
I0
sg4
g15
sg5
I4
sg6
I0
sg7
I1
sg8
I0
sg9
g15
sg10
I0
sg11
I0
sg12
I112379
sg13
I0
sg14
g15
ssI768
(dp782
g2
F7.75
sg3
I1
sg4
F30.5
sg5
I3
sg6
I0
sg7
I3
sg8
I1
sg9
g15
sg10
I0
sg11
I0
sg12
I364850
sg13
I0
sg14
g15
ssI769
(dp783
g2
F24.15
sg3
I1
sg4
g15
sg5
I0
sg6
I0
sg7
I3
sg8
I0
sg9
g15
sg10
I0
sg11
I1
sg12
I371110
sg13
I1
sg14
g15
ssI770
(dp784
g2
F8.3625
sg3
I2
sg4
F32.0
sg5
I0
sg6
I0
sg7
I3
sg8
I0
sg9
g15
sg10
I0
sg11
I0
sg12
I8471
sg13
I0
sg14
g15
ssI771
(dp785
g2
F9.5
sg3
I2
sg4
F24.0
sg5
I0
sg6
I0
sg7
I3
sg8
I0
sg9
g15
sg10
I0
sg11
I0
sg12
I345781
sg13
I0
sg14
g15
ssI772
(dp786
g2
F7.8542
sg3
I2
sg4
F48.0
sg5
I0
sg6
I0
sg7
I3
sg8
I0
sg9
g15
sg10
I0
sg11
I0
sg12
I350047
sg13
I0
sg14
g15
ssI773
(dp787
g2
F10.5
sg3
I2
sg4
F57.0
sg5
I1
sg6
I0
sg7
I2
sg8
I1
sg9
I6
sg10
I0
sg11
I0
sg12
I3
sg13
I0
sg14
F4.77
ssI774
(dp788
g2
F7.225
sg3
I0
sg4
g15
sg5
I0
sg6
I0
sg7
I3
sg8
I0
sg9
g15
sg10
I0
sg11
I0
sg12
I2674
sg13
I0
sg14
g15
ssI775
(dp789
g2
F23.0
sg3
I2
sg4
F54.0
sg5
I1
sg6
I3
sg7
I2
sg8
I1
sg9
g15
sg10
I1
sg11
I4
sg12
I29105
sg13
I1
sg14
g15
ssI776
(dp790
g2
F7.75
sg3
I2
sg4
F18.0
sg5
I0
sg6
I0
sg7
I3
sg8
I0
sg9
g15
sg10
I0
sg11
I0
sg12
I347078
sg13
I0
sg14
g15
ssI777
(dp791
g2
F7.75
sg3
I1
sg4
g15
sg5
I0
sg6
I0
sg7
I3
sg8
I0
sg9
g15
sg10
I0
sg11
I0
sg12
I383121
sg13
I0
sg14
F5.38
ssI778
(dp792
g2
F12.475
sg3
I2
sg4
F5.0
sg5
I3
sg6
I0
sg7
I3
sg8
I1
sg9
g15
sg10
I1
sg11
I0
sg12
I364516
sg13
I0
sg14
g15
ssI779
(dp793
g2
F7.7375
sg3
I1
sg4
g15
sg5
I0
sg6
I0
sg7
I3
sg8
I0
sg9
g15
sg10
I0
sg11
I0
sg12
I36865
sg13
I0
sg14
g15
ssI780
(dp794
g2
F211.3375
sg3
I2
sg4
F43.0
sg5
I1
sg6
I1
sg7
I1
sg8
I1
sg9
g15
sg10
I1
sg11
I1
sg12
I24160
sg13
I0
sg14
F1.3
ssI781
(dp795
g2
F7.2292
sg3
I0
sg4
F13.0
sg5
I3
sg6
I0
sg7
I3
sg8
I1
sg9
g15
sg10
I1
sg11
I0
sg12
I2687
sg13
I0
sg14
g15
ssI782
(dp796
g2
F57.0
sg3
I2
sg4
F17.0
sg5
I1
sg6
I0
sg7
I1
sg8
I1
sg9
g15
sg10
I1
sg11
I1
sg12
I17474
sg13
I1
sg14
F1.2
ssI783
(dp797
g2
F30.0
sg3
I2
sg4
F29.0
sg5
I0
sg6
I0
sg7
I1
sg8
I0
sg9
g15
sg10
I0
sg11
I0
sg12
I113501
sg13
I0
sg14
F3.6
ssI784
(dp798
g2
F23.45
sg3
I2
sg4
g15
sg5
I0
sg6
I2
sg7
I3
sg8
I0
sg9
I5
sg10
I0
sg11
I3
sg12
I6607
sg13
I1
sg14
g15
ssI785
(dp799
g2
F7.05
sg3
I2
sg4
F25.0
sg5
I0
sg6
I0
sg7
I3
sg8
I0
sg9
I3
sg10
I0
sg11
I0
sg12
I3101312
sg13
I0
sg14
g15
ssI786
(dp800
g2
F7.25
sg3
I2
sg4
F25.0
sg5
I0
sg6
I0
sg7
I3
sg8
I0
sg9
g15
sg10
I0
sg11
I0
sg12
I374887
sg13
I0
sg14
g15
ssI787
(dp801
g2
F7.4958
sg3
I2
sg4
F18.0
sg5
I3
sg6
I0
sg7
I3
sg8
I1
sg9
g15
sg10
I1
sg11
I0
sg12
I3101265
sg13
I0
sg14
g15
ssI788
(dp802
g2
F29.125
sg3
I1
sg4
F8.0
sg5
I2
sg6
I1
sg7
I3
sg8
I0
sg9
g15
sg10
I0
sg11
I5
sg12
I382652
sg13
I4
sg14
g15
ssI789
(dp803
g2
F20.575
sg3
I2
sg4
F1.0
sg5
I2
sg6
I2
sg7
I3
sg8
I0
sg9
I1
sg10
I1
sg11
I3
sg12
I2315
sg13
I1
sg14
g15
ssI790
(dp804
g2
F79.2
sg3
I0
sg4
F46.0
sg5
I0
sg6
I0
sg7
I1
sg8
I0
sg9
I0
sg10
I0
sg11
I0
sg12
I17593
sg13
I0
sg14
F1.83
ssI791
(dp805
g2
F7.75
sg3
I1
sg4
g15
sg5
I0
sg6
I0
sg7
I3
sg8
I0
sg9
g15
sg10
I0
sg11
I0
sg12
I12460
sg13
I0
sg14
g15
ssI792
(dp806
g2
F26.0
sg3
I2
sg4
F16.0
sg5
I0
sg6
I0
sg7
I2
sg8
I0
sg9
g15
sg10
I0
sg11
I0
sg12
I239865
sg13
I0
sg14
g15
ssI793
(dp807
g2
F69.55
sg3
I2
sg4
g15
sg5
I3
sg6
I2
sg7
I3
sg8
I1
sg9
I1
sg10
I0
sg11
I10
sg12
I2343
sg13
I8
sg14
g15
ssI794
(dp808
g2
F30.6958
sg3
I0
sg4
g15
sg5
I0
sg6
I0
sg7
I1
sg8
I0
sg9
I0
sg10
I0
sg11
I0
sg12
I17600
sg13
I0
sg14
g15
ssI795
(dp809
g2
F7.8958
sg3
I2
sg4
F25.0
sg5
I0
sg6
I0
sg7
I3
sg8
I0
sg9
g15
sg10
I0
sg11
I0
sg12
I349203
sg13
I0
sg14
g15
ssI796
(dp810
g2
F13.0
sg3
I2
sg4
F39.0
sg5
I0
sg6
I0
sg7
I2
sg8
I0
sg9
g15
sg10
I0
sg11
I0
sg12
I28213
sg13
I0
sg14
g15
ssI797
(dp811
g2
F25.9292
sg3
I2
sg4
F49.0
sg5
I4
sg6
I0
sg7
I1
sg8
I1
sg9
g15
sg10
I1
sg11
I0
sg12
I17465
sg13
I0
sg14
F3.17
ssI798
(dp812
g2
F8.6833
sg3
I2
sg4
F31.0
sg5
I1
sg6
I0
sg7
I3
sg8
I1
sg9
g15
sg10
I1
sg11
I0
sg12
I349244
sg13
I0
sg14
g15
ssI799
(dp813
g2
F7.2292
sg3
I0
sg4
F30.0
sg5
I4
sg6
I0
sg7
I3
sg8
I0
sg9
g15
sg10
I0
sg11
I0
sg12
I2685
sg13
I0
sg14
g15
ssI800
(dp814
g2
F24.15
sg3
I2
sg4
F30.0
sg5
I4
sg6
I1
sg7
I3
sg8
I1
sg9
g15
sg10
I0
sg11
I2
sg12
I345773
sg13
I1
sg14
g15
ssI801
(dp815
g2
F13.0
sg3
I2
sg4
F34.0
sg5
I0
sg6
I0
sg7
I2
sg8
I0
sg9
g15
sg10
I0
sg11
I0
sg12
I250647
sg13
I0
sg14
g15
ssI802
(dp816
g2
F26.25
sg3
I2
sg4
F31.0
sg5
I1
sg6
I1
sg7
I2
sg8
I1
sg9
I1
sg10
I1
sg11
I2
sg12
I31921
sg13
I1
sg14
g15
ssI803
(dp817
g2
F120.0
sg3
I2
sg4
F11.0
sg5
I2
sg6
I2
sg7
I1
sg8
I0
sg9
g15
sg10
I1
sg11
I3
sg12
I113760
sg13
I1
sg14
F1.97
ssI804
(dp818
g2
F8.5167
sg3
I0
sg4
F0.42
sg5
I2
sg6
I1
sg7
I3
sg8
I0
sg9
g15
sg10
I1
sg11
I1
sg12
I2625
sg13
I0
sg14
g15
ssI805
(dp819
g2
F6.975
sg3
I2
sg4
F27.0
sg5
I0
sg6
I0
sg7
I3
sg8
I0
sg9
g15
sg10
I1
sg11
I0
sg12
I347089
sg13
I0
sg14
g15
ssI806
(dp820
g2
F7.775
sg3
I2
sg4
F31.0
sg5
I0
sg6
I0
sg7
I3
sg8
I0
sg9
g15
sg10
I0
sg11
I0
sg12
I347063
sg13
I0
sg14
g15
ssI807
(dp821
g2
F0.0
sg3
I2
sg4
F39.0
sg5
I0
sg6
I0
sg7
I1
sg8
I0
sg9
g15
sg10
I0
sg11
I0
sg12
I112050
sg13
I0
sg14
F0.36
ssI808
(dp822
g2
F7.775
sg3
I2
sg4
F18.0
sg5
I3
sg6
I0
sg7
I3
sg8
I1
sg9
g15
sg10
I0
sg11
I0
sg12
I347087
sg13
I0
sg14
g15
ssI809
(dp823
g2
F13.0
sg3
I2
sg4
F39.0
sg5
I0
sg6
I0
sg7
I2
sg8
I0
sg9
g15
sg10
I0
sg11
I0
sg12
I248723
sg13
I0
sg14
g15
ssI810
(dp824
g2
F53.1
sg3
I2
sg4
F33.0
sg5
I1
sg6
I0
sg7
I1
sg8
I1
sg9
g15
sg10
I1
sg11
I1
sg12
I113806
sg13
I1
sg14
F4.8
ssI811
(dp825
g2
F7.8875
sg3
I2
sg4
F26.0
sg5
I0
sg6
I0
sg7
I3
sg8
I0
sg9
g15
sg10
I0
sg11
I0
sg12
I3474
sg13
I0
sg14
g15
ssI812
(dp826
g2
F24.15
sg3
I2
sg4
F39.0
sg5
I0
sg6
I0
sg7
I3
sg8
I0
sg9
I6
sg10
I0
sg11
I0
sg12
I48871
sg13
I0
sg14
g15
ssI813
(dp827
g2
F10.5
sg3
I2
sg4
F35.0
sg5
I0
sg6
I0
sg7
I2
sg8
I0
sg9
g15
sg10
I0
sg11
I0
sg12
I28206
sg13
I0
sg14
g15
ssI814
(dp828
g2
F31.275
sg3
I2
sg4
F6.0
sg5
I3
sg6
I2
sg7
I3
sg8
I1
sg9
g15
sg10
I0
sg11
I6
sg12
I347082
sg13
I4
sg14
g15
ssI815
(dp829
g2
F8.05
sg3
I2
sg4
F30.5
sg5
I0
sg6
I0
sg7
I3
sg8
I0
sg9
g15
sg10
I0
sg11
I0
sg12
I364499
sg13
I0
sg14
g15
ssI816
(dp830
g2
F0.0
sg3
I2
sg4
g15
sg5
I0
sg6
I0
sg7
I1
sg8
I0
sg9
g15
sg10
I0
sg11
I0
sg12
I112058
sg13
I0
sg14
F1.102
ssI817
(dp831
g2
F7.925
sg3
I2
sg4
F23.0
sg5
I3
sg6
I0
sg7
I3
sg8
I1
sg9
I6
sg10
I0
sg11
I0
sg12
I3101290
sg13
I0
sg14
g15
ssI818
(dp832
g2
F37.0042
sg3
I0
sg4
F31.0
sg5
I0
sg6
I1
sg7
I2
sg8
I0
sg9
I6
sg10
I0
sg11
I2
sg12
I2079
sg13
I1
sg14
g15
ssI819
(dp833
g2
F6.45
sg3
I2
sg4
F43.0
sg5
I0
sg6
I0
sg7
I3
sg8
I0
sg9
I6
sg10
I0
sg11
I0
sg12
I7075
sg13
I0
sg14
g15
ssI820
(dp834
g2
F27.9
sg3
I2
sg4
F10.0
sg5
I2
sg6
I2
sg7
I3
sg8
I0
sg9
g15
sg10
I0
sg11
I5
sg12
I347088
sg13
I3
sg14
g15
ssI821
(dp835
g2
F93.5
sg3
I2
sg4
F52.0
sg5
I1
sg6
I1
sg7
I1
sg8
I1
sg9
g15
sg10
I1
sg11
I2
sg12
I12749
sg13
I1
sg14
F1.69
ssI822
(dp836
g2
F8.6625
sg3
I2
sg4
F27.0
sg5
I0
sg6
I0
sg7
I3
sg8
I0
sg9
g15
sg10
I1
sg11
I0
sg12
I315098
sg13
I0
sg14
g15
ssI823
(dp837
g2
F0.0
sg3
I2
sg4
F38.0
sg5
I4
sg6
I0
sg7
I1
sg8
I0
sg9
g15
sg10
I0
sg11
I0
sg12
I19972
sg13
I0
sg14
g15
ssI824
(dp838
g2
F12.475
sg3
I2
sg4
F27.0
sg5
I1
sg6
I1
sg7
I3
sg8
I1
sg9
g15
sg10
I1
sg11
I1
sg12
I392096
sg13
I0
sg14
F4.121
ssI825
(dp839
g2
F39.6875
sg3
I2
sg4
F2.0
sg5
I2
sg6
I1
sg7
I3
sg8
I0
sg9
g15
sg10
I0
sg11
I5
sg12
I3101295
sg13
I4
sg14
g15
ssI826
(dp840
g2
F6.95
sg3
I1
sg4
g15
sg5
I0
sg6
I0
sg7
I3
sg8
I0
sg9
g15
sg10
I0
sg11
I0
sg12
I368323
sg13
I0
sg14
g15
ssI827
(dp841
g2
F56.4958
sg3
I2
sg4
g15
sg5
I0
sg6
I0
sg7
I3
sg8
I0
sg9
g15
sg10
I0
sg11
I0
sg12
I1601
sg13
I0
sg14
g15
ssI828
(dp842
g2
F37.0042
sg3
I0
sg4
F1.0
sg5
I2
sg6
I2
sg7
I2
sg8
I0
sg9
I6
sg10
I1
sg11
I2
sg12
I2079
sg13
I0
sg14
g15
ssI829
(dp843
g2
F7.75
sg3
I1
sg4
g15
sg5
I0
sg6
I0
sg7
I3
sg8
I0
sg9
g15
sg10
I1
sg11
I0
sg12
I367228
sg13
I0
sg14
g15
ssI830
(dp844
g2
F80.0
sg3
g15
sg4
F62.0
sg5
I1
sg6
I0
sg7
I1
sg8
I1
sg9
g15
sg10
I1
sg11
I0
sg12
I113572
sg13
I0
sg14
F1.28
ssI831
(dp845
g2
F14.4542
sg3
I0
sg4
F15.0
sg5
I1
sg6
I0
sg7
I3
sg8
I1
sg9
g15
sg10
I1
sg11
I1
sg12
I2659
sg13
I1
sg14
g15
ssI832
(dp846
g2
F18.75
sg3
I2
sg4
F0.83
sg5
I2
sg6
I1
sg7
I2
sg8
I0
sg9
g15
sg10
I1
sg11
I2
sg12
I29106
sg13
I1
sg14
g15
ssI833
(dp847
g2
F7.2292
sg3
I0
sg4
g15
sg5
I0
sg6
I0
sg7
I3
sg8
I0
sg9
g15
sg10
I0
sg11
I0
sg12
I2671
sg13
I0
sg14
g15
ssI834
(dp848
g2
F7.8542
sg3
I2
sg4
F23.0
sg5
I0
sg6
I0
sg7
I3
sg8
I0
sg9
g15
sg10
I0
sg11
I0
sg12
I347468
sg13
I0
sg14
g15
ssI835
(dp849
g2
F8.3
sg3
I2
sg4
F18.0
sg5
I0
sg6
I0
sg7
I3
sg8
I0
sg9
g15
sg10
I0
sg11
I0
sg12
I2223
sg13
I0
sg14
g15
ssI836
(dp850
g2
F83.1583
sg3
I0
sg4
F39.0
sg5
I3
sg6
I1
sg7
I1
sg8
I1
sg9
I0
sg10
I1
sg11
I2
sg12
I17756
sg13
I1
sg14
F4.49
ssI837
(dp851
g2
F8.6625
sg3
I2
sg4
F21.0
sg5
I0
sg6
I0
sg7
I3
sg8
I0
sg9
g15
sg10
I0
sg11
I0
sg12
I315097
sg13
I0
sg14
g15
ssI838
(dp852
g2
F8.05
sg3
I2
sg4
g15
sg5
I0
sg6
I0
sg7
I3
sg8
I0
sg9
g15
sg10
I0
sg11
I0
sg12
I392092
sg13
I0
sg14
g15
ssI839
(dp853
g2
F56.4958
sg3
I2
sg4
F32.0
sg5
I0
sg6
I0
sg7
I3
sg8
I0
sg9
g15
sg10
I1
sg11
I0
sg12
I1601
sg13
I0
sg14
g15
ssI840
(dp854
g2
F29.7
sg3
I0
sg4
g15
sg5
I0
sg6
I0
sg7
I1
sg8
I0
sg9
g15
sg10
I1
sg11
I0
sg12
I11774
sg13
I0
sg14
F2.47
ssI841
(dp855
g2
F7.925
sg3
I2
sg4
F20.0
sg5
I0
sg6
I0
sg7
I3
sg8
I0
sg9
I6
sg10
I0
sg11
I0
sg12
I3101287
sg13
I0
sg14
g15
ssI842
(dp856
g2
F10.5
sg3
I2
sg4
F16.0
sg5
I0
sg6
I0
sg7
I2
sg8
I0
sg9
I6
sg10
I0
sg11
I0
sg12
I3
sg13
I0
sg14
g15
ssI843
(dp857
g2
F31.0
sg3
I0
sg4
F30.0
sg5
I3
sg6
I0
sg7
I1
sg8
I1
sg9
g15
sg10
I1
sg11
I0
sg12
I113798
sg13
I0
sg14
g15
ssI844
(dp858
g2
F6.4375
sg3
I0
sg4
F34.5
sg5
I0
sg6
I0
sg7
I3
sg8
I0
sg9
g15
sg10
I0
sg11
I0
sg12
I2683
sg13
I0
sg14
g15
ssI845
(dp859
g2
F8.6625
sg3
I2
sg4
F17.0
sg5
I0
sg6
I0
sg7
I3
sg8
I0
sg9
g15
sg10
I0
sg11
I0
sg12
I315090
sg13
I0
sg14
g15
ssI846
(dp860
g2
F7.55
sg3
I2
sg4
F42.0
sg5
I0
sg6
I0
sg7
I3
sg8
I0
sg9
I1
sg10
I0
sg11
I0
sg12
I5547
sg13
I0
sg14
g15
ssI847
(dp861
g2
F69.55
sg3
I2
sg4
g15
sg5
I0
sg6
I2
sg7
I3
sg8
I0
sg9
I1
sg10
I0
sg11
I10
sg12
I2343
sg13
I8
sg14
g15
ssI848
(dp862
g2
F7.8958
sg3
I0
sg4
F35.0
sg5
I0
sg6
I0
sg7
I3
sg8
I0
sg9
g15
sg10
I0
sg11
I0
sg12
I349213
sg13
I0
sg14
g15
ssI849
(dp863
g2
F33.0
sg3
I2
sg4
F28.0
sg5
I4
sg6
I1
sg7
I2
sg8
I0
sg9
g15
sg10
I0
sg11
I1
sg12
I248727
sg13
I0
sg14
g15
ssI850
(dp864
g2
F89.1042
sg3
I0
sg4
g15
sg5
I1
sg6
I0
sg7
I1
sg8
I1
sg9
g15
sg10
I1
sg11
I1
sg12
I17453
sg13
I1
sg14
F2.92
ssI851
(dp865
g2
F31.275
sg3
I2
sg4
F4.0
sg5
I2
sg6
I2
sg7
I3
sg8
I0
sg9
g15
sg10
I0
sg11
I6
sg12
I347082
sg13
I4
sg14
g15
ssI852
(dp866
g2
F7.775
sg3
I2
sg4
F74.0
sg5
I0
sg6
I0
sg7
I3
sg8
I0
sg9
g15
sg10
I0
sg11
I0
sg12
I347060
sg13
I0
sg14
g15
ssI853
(dp867
g2
F15.2458
sg3
I0
sg4
F9.0
sg5
I3
sg6
I1
sg7
I3
sg8
I1
sg9
g15
sg10
I0
sg11
I2
sg12
I2678
sg13
I1
sg14
g15
ssI854
(dp868
g2
F39.4
sg3
I2
sg4
F16.0
sg5
I3
sg6
I1
sg7
I1
sg8
I1
sg9
I0
sg10
I1
sg11
I1
sg12
I17592
sg13
I0
sg14
F3.28
ssI855
(dp869
g2
F26.0
sg3
I2
sg4
F44.0
sg5
I1
sg6
I0
sg7
I2
sg8
I1
sg9
g15
sg10
I0
sg11
I1
sg12
I244252
sg13
I1
sg14
g15
ssI856
(dp870
g2
F9.35
sg3
I2
sg4
F18.0
sg5
I1
sg6
I1
sg7
I3
sg8
I1
sg9
g15
sg10
I1
sg11
I1
sg12
I392091
sg13
I0
sg14
g15
ssI857
(dp871
g2
F164.8667
sg3
I2
sg4
F45.0
sg5
I1
sg6
I1
sg7
I1
sg8
I1
sg9
g15
sg10
I1
sg11
I2
sg12
I36928
sg13
I1
sg14
g15
ssI858
(dp872
g2
F26.55
sg3
I2
sg4
F51.0
sg5
I0
sg6
I0
sg7
I1
sg8
I0
sg9
g15
sg10
I1
sg11
I0
sg12
I113055
sg13
I0
sg14
F4.17
ssI859
(dp873
g2
F19.2583
sg3
I0
sg4
F24.0
sg5
I1
sg6
I3
sg7
I3
sg8
I1
sg9
g15
sg10
I1
sg11
I3
sg12
I2666
sg13
I0
sg14
g15
ssI860
(dp874
g2
F7.2292
sg3
I0
sg4
g15
sg5
I0
sg6
I0
sg7
I3
sg8
I0
sg9
g15
sg10
I0
sg11
I0
sg12
I2629
sg13
I0
sg14
g15
ssI861
(dp875
g2
F14.1083
sg3
I2
sg4
F41.0
sg5
I0
sg6
I0
sg7
I3
sg8
I0
sg9
g15
sg10
I0
sg11
I2
sg12
I350026
sg13
I2
sg14
g15
ssI862
(dp876
g2
F11.5
sg3
I2
sg4
F21.0
sg5
I0
sg6
I0
sg7
I2
sg8
I0
sg9
g15
sg10
I0
sg11
I1
sg12
I28134
sg13
I1
sg14
g15
ssI863
(dp877
g2
F25.9292
sg3
I2
sg4
F48.0
sg5
I1
sg6
I0
sg7
I1
sg8
I1
sg9
g15
sg10
I1
sg11
I0
sg12
I17466
sg13
I0
sg14
F3.17
ssI864
(dp878
g2
F69.55
sg3
I2
sg4
g15
sg5
I3
sg6
I2
sg7
I3
sg8
I1
sg9
I1
sg10
I0
sg11
I10
sg12
I2343
sg13
I8
sg14
g15
ssI865
(dp879
g2
F13.0
sg3
I2
sg4
F24.0
sg5
I0
sg6
I0
sg7
I2
sg8
I0
sg9
g15
sg10
I0
sg11
I0
sg12
I233866
sg13
I0
sg14
g15
ssI866
(dp880
g2
F13.0
sg3
I2
sg4
F42.0
sg5
I1
sg6
I0
sg7
I2
sg8
I1
sg9
g15
sg10
I1
sg11
I0
sg12
I236852
sg13
I0
sg14
g15
ssI867
(dp881
g2
F13.8583
sg3
I0
sg4
F27.0
sg5
I4
sg6
I0
sg7
I2
sg8
I1
sg9
I6
sg10
I1
sg11
I1
sg12
I2149
sg13
I1
sg14
g15
ssI868
(dp882
g2
F50.4958
sg3
I2
sg4
F31.0
sg5
I0
sg6
I0
sg7
I1
sg8
I0
sg9
I0
sg10
I0
sg11
I0
sg12
I17590
sg13
I0
sg14
F0.24
ssI869
(dp883
g2
F9.5
sg3
I2
sg4
g15
sg5
I4
sg6
I0
sg7
I3
sg8
I0
sg9
g15
sg10
I0
sg11
I0
sg12
I345777
sg13
I0
sg14
g15
ssI870
(dp884
g2
F11.1333
sg3
I2
sg4
F4.0
sg5
I2
sg6
I1
sg7
I3
sg8
I0
sg9
g15
sg10
I1
sg11
I2
sg12
I347742
sg13
I1
sg14
g15
ssI871
(dp885
g2
F7.8958
sg3
I2
sg4
F26.0
sg5
I0
sg6
I0
sg7
I3
sg8
I0
sg9
g15
sg10
I0
sg11
I0
sg12
I349248
sg13
I0
sg14
g15
ssI872
(dp886
g2
F52.5542
sg3
I2
sg4
F47.0
sg5
I1
sg6
I1
sg7
I1
sg8
I1
sg9
g15
sg10
I1
sg11
I2
sg12
I11751
sg13
I1
sg14
F3.35
ssI873
(dp887
g2
F5.0
sg3
I2
sg4
F33.0
sg5
I0
sg6
I0
sg7
I1
sg8
I0
sg9
g15
sg10
I0
sg11
I0
sg12
I695
sg13
I0
sg14
F1.53
ssI874
(dp888
g2
F9.0
sg3
I2
sg4
F47.0
sg5
I4
sg6
I0
sg7
I3
sg8
I0
sg9
g15
sg10
I0
sg11
I0
sg12
I345765
sg13
I0
sg14
g15
ssI875
(dp889
g2
F24.0
sg3
I0
sg4
F28.0
sg5
I1
sg6
I0
sg7
I2
sg8
I1
sg9
I6
sg10
I1
sg11
I1
sg12
I3381
sg13
I1
sg14
g15
ssI876
(dp890
g2
F7.225
sg3
I0
sg4
F15.0
sg5
I3
sg6
I0
sg7
I3
sg8
I1
sg9
g15
sg10
I1
sg11
I0
sg12
I2667
sg13
I0
sg14
g15
ssI877
(dp891
g2
F9.8458
sg3
I2
sg4
F20.0
sg5
I0
sg6
I0
sg7
I3
sg8
I0
sg9
g15
sg10
I0
sg11
I0
sg12
I7534
sg13
I0
sg14
g15
ssI878
(dp892
g2
F7.8958
sg3
I2
sg4
F19.0
sg5
I0
sg6
I0
sg7
I3
sg8
I0
sg9
g15
sg10
I0
sg11
I0
sg12
I349212
sg13
I0
sg14
g15
ssI879
(dp893
g2
F7.8958
sg3
I2
sg4
g15
sg5
I0
sg6
I0
sg7
I3
sg8
I0
sg9
g15
sg10
I0
sg11
I0
sg12
I349217
sg13
I0
sg14
g15
ssI880
(dp894
g2
F83.1583
sg3
I0
sg4
F56.0
sg5
I1
sg6
I1
sg7
I1
sg8
I1
sg9
g15
sg10
I1
sg11
I1
sg12
I11767
sg13
I0
sg14
F2.5
ssI881
(dp895
g2
F26.0
sg3
I2
sg4
F25.0
sg5
I1
sg6
I1
sg7
I2
sg8
I1
sg9
g15
sg10
I1
sg11
I1
sg12
I230433
sg13
I0
sg14
g15
ssI882
(dp896
g2
F7.8958
sg3
I2
sg4
F33.0
sg5
I0
sg6
I0
sg7
I3
sg8
I0
sg9
g15
sg10
I0
sg11
I0
sg12
I349257
sg13
I0
sg14
g15
ssI883
(dp897
g2
F10.5167
sg3
I2
sg4
F22.0
sg5
I3
sg6
I0
sg7
I3
sg8
I1
sg9
g15
sg10
I0
sg11
I0
sg12
I7552
sg13
I0
sg14
g15
ssI884
(dp898
g2
F10.5
sg3
I2
sg4
F28.0
sg5
I0
sg6
I0
sg7
I2
sg8
I0
sg9
I6
sg10
I0
sg11
I0
sg12
I34068
sg13
I0
sg14
g15
ssI885
(dp899
g2
F7.05
sg3
I2
sg4
F25.0
sg5
I0
sg6
I0
sg7
I3
sg8
I0
sg9
I3
sg10
I0
sg11
I0
sg12
I392076
sg13
I0
sg14
g15
ssI886
(dp900
g2
F29.125
sg3
I1
sg4
F39.0
sg5
I1
sg6
I5
sg7
I3
sg8
I1
sg9
g15
sg10
I0
sg11
I5
sg12
I382652
sg13
I0
sg14
g15
ssI887
(dp901
g2
F13.0
sg3
I2
sg4
F27.0
sg5
I4
sg6
I0
sg7
I2
sg8
I0
sg9
g15
sg10
I0
sg11
I0
sg12
I211536
sg13
I0
sg14
g15
ssI888
(dp902
g2
F30.0
sg3
I2
sg4
F19.0
sg5
I3
sg6
I0
sg7
I1
sg8
I1
sg9
g15
sg10
I1
sg11
I0
sg12
I112053
sg13
I0
sg14
F1.42
ssI889
(dp903
g2
F23.45
sg3
I2
sg4
g15
sg5
I3
sg6
I2
sg7
I3
sg8
I1
sg9
I5
sg10
I0
sg11
I3
sg12
I6607
sg13
I1
sg14
g15
ssI890
(dp904
g2
F30.0
sg3
I0
sg4
F26.0
sg5
I0
sg6
I0
sg7
I1
sg8
I0
sg9
g15
sg10
I1
sg11
I0
sg12
I111369
sg13
I0
sg14
F2.148
ssI891
(dp905
g2
F7.75
sg3
I1
sg4
F32.0
sg5
I0
sg6
I0
sg7
I3
sg8
I0
sg9
g15
sg10
I0
sg11
I0
sg12
I370376
sg13
I0
sg14
g15
ss.